
FRA262STUIII.elf:     file format elf32-littlearm

Sections:
Idx Name          Size      VMA       LMA       File off  Algn
  0 .isr_vector   00000198  08000000  08000000  00010000  2**0
                  CONTENTS, ALLOC, LOAD, READONLY, DATA
  1 .text         00007080  080001a0  080001a0  000101a0  2**4
                  CONTENTS, ALLOC, LOAD, READONLY, CODE
  2 .rodata       00000620  08007220  08007220  00017220  2**2
                  CONTENTS, ALLOC, LOAD, READONLY, DATA
  3 .ARM.extab    00000000  08007840  08007840  000200b0  2**0
                  CONTENTS
  4 .ARM          00000008  08007840  08007840  00017840  2**2
                  CONTENTS, ALLOC, LOAD, READONLY, DATA
  5 .preinit_array 00000000  08007848  08007848  000200b0  2**0
                  CONTENTS, ALLOC, LOAD, DATA
  6 .init_array   00000004  08007848  08007848  00017848  2**2
                  CONTENTS, ALLOC, LOAD, DATA
  7 .fini_array   00000004  0800784c  0800784c  0001784c  2**2
                  CONTENTS, ALLOC, LOAD, DATA
  8 .data         000000b0  20000000  08007850  00020000  2**2
                  CONTENTS, ALLOC, LOAD, DATA
  9 .bss          00000508  200000b0  08007900  000200b0  2**3
                  ALLOC
 10 ._user_heap_stack 00000600  200005b8  08007900  000205b8  2**0
                  ALLOC
 11 .ARM.attributes 00000030  00000000  00000000  000200b0  2**0
                  CONTENTS, READONLY
 12 .debug_info   0016530b  00000000  00000000  000200e0  2**0
                  CONTENTS, READONLY, DEBUGGING, OCTETS
 13 .debug_abbrev 000036ea  00000000  00000000  001853eb  2**0
                  CONTENTS, READONLY, DEBUGGING, OCTETS
 14 .debug_loc    00051466  00000000  00000000  00188ad5  2**0
                  CONTENTS, READONLY, DEBUGGING, OCTETS
 15 .debug_aranges 00000c50  00000000  00000000  001d9f40  2**3
                  CONTENTS, READONLY, DEBUGGING, OCTETS
 16 .debug_ranges 00008768  00000000  00000000  001dab90  2**3
                  CONTENTS, READONLY, DEBUGGING, OCTETS
 17 .debug_line   0002bf02  00000000  00000000  001e32f8  2**0
                  CONTENTS, READONLY, DEBUGGING, OCTETS
 18 .debug_str    003da43c  00000000  00000000  0020f1fa  2**0
                  CONTENTS, READONLY, DEBUGGING, OCTETS
 19 .comment      00000050  00000000  00000000  005e9636  2**0
                  CONTENTS, READONLY
 20 .debug_frame  000037d8  00000000  00000000  005e9688  2**2
                  CONTENTS, READONLY, DEBUGGING, OCTETS

Disassembly of section .text:

080001a0 <__do_global_dtors_aux>:
 80001a0:	b510      	push	{r4, lr}
 80001a2:	4c05      	ldr	r4, [pc, #20]	; (80001b8 <__do_global_dtors_aux+0x18>)
 80001a4:	7823      	ldrb	r3, [r4, #0]
 80001a6:	b933      	cbnz	r3, 80001b6 <__do_global_dtors_aux+0x16>
 80001a8:	4b04      	ldr	r3, [pc, #16]	; (80001bc <__do_global_dtors_aux+0x1c>)
 80001aa:	b113      	cbz	r3, 80001b2 <__do_global_dtors_aux+0x12>
 80001ac:	4804      	ldr	r0, [pc, #16]	; (80001c0 <__do_global_dtors_aux+0x20>)
 80001ae:	f3af 8000 	nop.w
 80001b2:	2301      	movs	r3, #1
 80001b4:	7023      	strb	r3, [r4, #0]
 80001b6:	bd10      	pop	{r4, pc}
 80001b8:	200000b0 	.word	0x200000b0
 80001bc:	00000000 	.word	0x00000000
 80001c0:	08007208 	.word	0x08007208

080001c4 <frame_dummy>:
 80001c4:	b508      	push	{r3, lr}
 80001c6:	4b03      	ldr	r3, [pc, #12]	; (80001d4 <frame_dummy+0x10>)
 80001c8:	b11b      	cbz	r3, 80001d2 <frame_dummy+0xe>
 80001ca:	4903      	ldr	r1, [pc, #12]	; (80001d8 <frame_dummy+0x14>)
 80001cc:	4803      	ldr	r0, [pc, #12]	; (80001dc <frame_dummy+0x18>)
 80001ce:	f3af 8000 	nop.w
 80001d2:	bd08      	pop	{r3, pc}
 80001d4:	00000000 	.word	0x00000000
 80001d8:	200000b4 	.word	0x200000b4
 80001dc:	08007208 	.word	0x08007208

080001e0 <memchr>:
 80001e0:	f001 01ff 	and.w	r1, r1, #255	; 0xff
 80001e4:	2a10      	cmp	r2, #16
 80001e6:	db2b      	blt.n	8000240 <memchr+0x60>
 80001e8:	f010 0f07 	tst.w	r0, #7
 80001ec:	d008      	beq.n	8000200 <memchr+0x20>
 80001ee:	f810 3b01 	ldrb.w	r3, [r0], #1
 80001f2:	3a01      	subs	r2, #1
 80001f4:	428b      	cmp	r3, r1
 80001f6:	d02d      	beq.n	8000254 <memchr+0x74>
 80001f8:	f010 0f07 	tst.w	r0, #7
 80001fc:	b342      	cbz	r2, 8000250 <memchr+0x70>
 80001fe:	d1f6      	bne.n	80001ee <memchr+0xe>
 8000200:	b4f0      	push	{r4, r5, r6, r7}
 8000202:	ea41 2101 	orr.w	r1, r1, r1, lsl #8
 8000206:	ea41 4101 	orr.w	r1, r1, r1, lsl #16
 800020a:	f022 0407 	bic.w	r4, r2, #7
 800020e:	f07f 0700 	mvns.w	r7, #0
 8000212:	2300      	movs	r3, #0
 8000214:	e8f0 5602 	ldrd	r5, r6, [r0], #8
 8000218:	3c08      	subs	r4, #8
 800021a:	ea85 0501 	eor.w	r5, r5, r1
 800021e:	ea86 0601 	eor.w	r6, r6, r1
 8000222:	fa85 f547 	uadd8	r5, r5, r7
 8000226:	faa3 f587 	sel	r5, r3, r7
 800022a:	fa86 f647 	uadd8	r6, r6, r7
 800022e:	faa5 f687 	sel	r6, r5, r7
 8000232:	b98e      	cbnz	r6, 8000258 <memchr+0x78>
 8000234:	d1ee      	bne.n	8000214 <memchr+0x34>
 8000236:	bcf0      	pop	{r4, r5, r6, r7}
 8000238:	f001 01ff 	and.w	r1, r1, #255	; 0xff
 800023c:	f002 0207 	and.w	r2, r2, #7
 8000240:	b132      	cbz	r2, 8000250 <memchr+0x70>
 8000242:	f810 3b01 	ldrb.w	r3, [r0], #1
 8000246:	3a01      	subs	r2, #1
 8000248:	ea83 0301 	eor.w	r3, r3, r1
 800024c:	b113      	cbz	r3, 8000254 <memchr+0x74>
 800024e:	d1f8      	bne.n	8000242 <memchr+0x62>
 8000250:	2000      	movs	r0, #0
 8000252:	4770      	bx	lr
 8000254:	3801      	subs	r0, #1
 8000256:	4770      	bx	lr
 8000258:	2d00      	cmp	r5, #0
 800025a:	bf06      	itte	eq
 800025c:	4635      	moveq	r5, r6
 800025e:	3803      	subeq	r0, #3
 8000260:	3807      	subne	r0, #7
 8000262:	f015 0f01 	tst.w	r5, #1
 8000266:	d107      	bne.n	8000278 <memchr+0x98>
 8000268:	3001      	adds	r0, #1
 800026a:	f415 7f80 	tst.w	r5, #256	; 0x100
 800026e:	bf02      	ittt	eq
 8000270:	3001      	addeq	r0, #1
 8000272:	f415 3fc0 	tsteq.w	r5, #98304	; 0x18000
 8000276:	3001      	addeq	r0, #1
 8000278:	bcf0      	pop	{r4, r5, r6, r7}
 800027a:	3801      	subs	r0, #1
 800027c:	4770      	bx	lr
 800027e:	bf00      	nop

08000280 <__aeabi_dmul>:
 8000280:	b570      	push	{r4, r5, r6, lr}
 8000282:	f04f 0cff 	mov.w	ip, #255	; 0xff
 8000286:	f44c 6ce0 	orr.w	ip, ip, #1792	; 0x700
 800028a:	ea1c 5411 	ands.w	r4, ip, r1, lsr #20
 800028e:	bf1d      	ittte	ne
 8000290:	ea1c 5513 	andsne.w	r5, ip, r3, lsr #20
 8000294:	ea94 0f0c 	teqne	r4, ip
 8000298:	ea95 0f0c 	teqne	r5, ip
 800029c:	f000 f8de 	bleq	800045c <__aeabi_dmul+0x1dc>
 80002a0:	442c      	add	r4, r5
 80002a2:	ea81 0603 	eor.w	r6, r1, r3
 80002a6:	ea21 514c 	bic.w	r1, r1, ip, lsl #21
 80002aa:	ea23 534c 	bic.w	r3, r3, ip, lsl #21
 80002ae:	ea50 3501 	orrs.w	r5, r0, r1, lsl #12
 80002b2:	bf18      	it	ne
 80002b4:	ea52 3503 	orrsne.w	r5, r2, r3, lsl #12
 80002b8:	f441 1180 	orr.w	r1, r1, #1048576	; 0x100000
 80002bc:	f443 1380 	orr.w	r3, r3, #1048576	; 0x100000
 80002c0:	d038      	beq.n	8000334 <__aeabi_dmul+0xb4>
 80002c2:	fba0 ce02 	umull	ip, lr, r0, r2
 80002c6:	f04f 0500 	mov.w	r5, #0
 80002ca:	fbe1 e502 	umlal	lr, r5, r1, r2
 80002ce:	f006 4200 	and.w	r2, r6, #2147483648	; 0x80000000
 80002d2:	fbe0 e503 	umlal	lr, r5, r0, r3
 80002d6:	f04f 0600 	mov.w	r6, #0
 80002da:	fbe1 5603 	umlal	r5, r6, r1, r3
 80002de:	f09c 0f00 	teq	ip, #0
 80002e2:	bf18      	it	ne
 80002e4:	f04e 0e01 	orrne.w	lr, lr, #1
 80002e8:	f1a4 04ff 	sub.w	r4, r4, #255	; 0xff
 80002ec:	f5b6 7f00 	cmp.w	r6, #512	; 0x200
 80002f0:	f564 7440 	sbc.w	r4, r4, #768	; 0x300
 80002f4:	d204      	bcs.n	8000300 <__aeabi_dmul+0x80>
 80002f6:	ea5f 0e4e 	movs.w	lr, lr, lsl #1
 80002fa:	416d      	adcs	r5, r5
 80002fc:	eb46 0606 	adc.w	r6, r6, r6
 8000300:	ea42 21c6 	orr.w	r1, r2, r6, lsl #11
 8000304:	ea41 5155 	orr.w	r1, r1, r5, lsr #21
 8000308:	ea4f 20c5 	mov.w	r0, r5, lsl #11
 800030c:	ea40 505e 	orr.w	r0, r0, lr, lsr #21
 8000310:	ea4f 2ece 	mov.w	lr, lr, lsl #11
 8000314:	f1b4 0cfd 	subs.w	ip, r4, #253	; 0xfd
 8000318:	bf88      	it	hi
 800031a:	f5bc 6fe0 	cmphi.w	ip, #1792	; 0x700
 800031e:	d81e      	bhi.n	800035e <__aeabi_dmul+0xde>
 8000320:	f1be 4f00 	cmp.w	lr, #2147483648	; 0x80000000
 8000324:	bf08      	it	eq
 8000326:	ea5f 0e50 	movseq.w	lr, r0, lsr #1
 800032a:	f150 0000 	adcs.w	r0, r0, #0
 800032e:	eb41 5104 	adc.w	r1, r1, r4, lsl #20
 8000332:	bd70      	pop	{r4, r5, r6, pc}
 8000334:	f006 4600 	and.w	r6, r6, #2147483648	; 0x80000000
 8000338:	ea46 0101 	orr.w	r1, r6, r1
 800033c:	ea40 0002 	orr.w	r0, r0, r2
 8000340:	ea81 0103 	eor.w	r1, r1, r3
 8000344:	ebb4 045c 	subs.w	r4, r4, ip, lsr #1
 8000348:	bfc2      	ittt	gt
 800034a:	ebd4 050c 	rsbsgt	r5, r4, ip
 800034e:	ea41 5104 	orrgt.w	r1, r1, r4, lsl #20
 8000352:	bd70      	popgt	{r4, r5, r6, pc}
 8000354:	f441 1180 	orr.w	r1, r1, #1048576	; 0x100000
 8000358:	f04f 0e00 	mov.w	lr, #0
 800035c:	3c01      	subs	r4, #1
 800035e:	f300 80ab 	bgt.w	80004b8 <__aeabi_dmul+0x238>
 8000362:	f114 0f36 	cmn.w	r4, #54	; 0x36
 8000366:	bfde      	ittt	le
 8000368:	2000      	movle	r0, #0
 800036a:	f001 4100 	andle.w	r1, r1, #2147483648	; 0x80000000
 800036e:	bd70      	pople	{r4, r5, r6, pc}
 8000370:	f1c4 0400 	rsb	r4, r4, #0
 8000374:	3c20      	subs	r4, #32
 8000376:	da35      	bge.n	80003e4 <__aeabi_dmul+0x164>
 8000378:	340c      	adds	r4, #12
 800037a:	dc1b      	bgt.n	80003b4 <__aeabi_dmul+0x134>
 800037c:	f104 0414 	add.w	r4, r4, #20
 8000380:	f1c4 0520 	rsb	r5, r4, #32
 8000384:	fa00 f305 	lsl.w	r3, r0, r5
 8000388:	fa20 f004 	lsr.w	r0, r0, r4
 800038c:	fa01 f205 	lsl.w	r2, r1, r5
 8000390:	ea40 0002 	orr.w	r0, r0, r2
 8000394:	f001 4200 	and.w	r2, r1, #2147483648	; 0x80000000
 8000398:	f021 4100 	bic.w	r1, r1, #2147483648	; 0x80000000
 800039c:	eb10 70d3 	adds.w	r0, r0, r3, lsr #31
 80003a0:	fa21 f604 	lsr.w	r6, r1, r4
 80003a4:	eb42 0106 	adc.w	r1, r2, r6
 80003a8:	ea5e 0e43 	orrs.w	lr, lr, r3, lsl #1
 80003ac:	bf08      	it	eq
 80003ae:	ea20 70d3 	biceq.w	r0, r0, r3, lsr #31
 80003b2:	bd70      	pop	{r4, r5, r6, pc}
 80003b4:	f1c4 040c 	rsb	r4, r4, #12
 80003b8:	f1c4 0520 	rsb	r5, r4, #32
 80003bc:	fa00 f304 	lsl.w	r3, r0, r4
 80003c0:	fa20 f005 	lsr.w	r0, r0, r5
 80003c4:	fa01 f204 	lsl.w	r2, r1, r4
 80003c8:	ea40 0002 	orr.w	r0, r0, r2
 80003cc:	f001 4100 	and.w	r1, r1, #2147483648	; 0x80000000
 80003d0:	eb10 70d3 	adds.w	r0, r0, r3, lsr #31
 80003d4:	f141 0100 	adc.w	r1, r1, #0
 80003d8:	ea5e 0e43 	orrs.w	lr, lr, r3, lsl #1
 80003dc:	bf08      	it	eq
 80003de:	ea20 70d3 	biceq.w	r0, r0, r3, lsr #31
 80003e2:	bd70      	pop	{r4, r5, r6, pc}
 80003e4:	f1c4 0520 	rsb	r5, r4, #32
 80003e8:	fa00 f205 	lsl.w	r2, r0, r5
 80003ec:	ea4e 0e02 	orr.w	lr, lr, r2
 80003f0:	fa20 f304 	lsr.w	r3, r0, r4
 80003f4:	fa01 f205 	lsl.w	r2, r1, r5
 80003f8:	ea43 0302 	orr.w	r3, r3, r2
 80003fc:	fa21 f004 	lsr.w	r0, r1, r4
 8000400:	f001 4100 	and.w	r1, r1, #2147483648	; 0x80000000
 8000404:	fa21 f204 	lsr.w	r2, r1, r4
 8000408:	ea20 0002 	bic.w	r0, r0, r2
 800040c:	eb00 70d3 	add.w	r0, r0, r3, lsr #31
 8000410:	ea5e 0e43 	orrs.w	lr, lr, r3, lsl #1
 8000414:	bf08      	it	eq
 8000416:	ea20 70d3 	biceq.w	r0, r0, r3, lsr #31
 800041a:	bd70      	pop	{r4, r5, r6, pc}
 800041c:	f094 0f00 	teq	r4, #0
 8000420:	d10f      	bne.n	8000442 <__aeabi_dmul+0x1c2>
 8000422:	f001 4600 	and.w	r6, r1, #2147483648	; 0x80000000
 8000426:	0040      	lsls	r0, r0, #1
 8000428:	eb41 0101 	adc.w	r1, r1, r1
 800042c:	f411 1f80 	tst.w	r1, #1048576	; 0x100000
 8000430:	bf08      	it	eq
 8000432:	3c01      	subeq	r4, #1
 8000434:	d0f7      	beq.n	8000426 <__aeabi_dmul+0x1a6>
 8000436:	ea41 0106 	orr.w	r1, r1, r6
 800043a:	f095 0f00 	teq	r5, #0
 800043e:	bf18      	it	ne
 8000440:	4770      	bxne	lr
 8000442:	f003 4600 	and.w	r6, r3, #2147483648	; 0x80000000
 8000446:	0052      	lsls	r2, r2, #1
 8000448:	eb43 0303 	adc.w	r3, r3, r3
 800044c:	f413 1f80 	tst.w	r3, #1048576	; 0x100000
 8000450:	bf08      	it	eq
 8000452:	3d01      	subeq	r5, #1
 8000454:	d0f7      	beq.n	8000446 <__aeabi_dmul+0x1c6>
 8000456:	ea43 0306 	orr.w	r3, r3, r6
 800045a:	4770      	bx	lr
 800045c:	ea94 0f0c 	teq	r4, ip
 8000460:	ea0c 5513 	and.w	r5, ip, r3, lsr #20
 8000464:	bf18      	it	ne
 8000466:	ea95 0f0c 	teqne	r5, ip
 800046a:	d00c      	beq.n	8000486 <__aeabi_dmul+0x206>
 800046c:	ea50 0641 	orrs.w	r6, r0, r1, lsl #1
 8000470:	bf18      	it	ne
 8000472:	ea52 0643 	orrsne.w	r6, r2, r3, lsl #1
 8000476:	d1d1      	bne.n	800041c <__aeabi_dmul+0x19c>
 8000478:	ea81 0103 	eor.w	r1, r1, r3
 800047c:	f001 4100 	and.w	r1, r1, #2147483648	; 0x80000000
 8000480:	f04f 0000 	mov.w	r0, #0
 8000484:	bd70      	pop	{r4, r5, r6, pc}
 8000486:	ea50 0641 	orrs.w	r6, r0, r1, lsl #1
 800048a:	bf06      	itte	eq
 800048c:	4610      	moveq	r0, r2
 800048e:	4619      	moveq	r1, r3
 8000490:	ea52 0643 	orrsne.w	r6, r2, r3, lsl #1
 8000494:	d019      	beq.n	80004ca <__aeabi_dmul+0x24a>
 8000496:	ea94 0f0c 	teq	r4, ip
 800049a:	d102      	bne.n	80004a2 <__aeabi_dmul+0x222>
 800049c:	ea50 3601 	orrs.w	r6, r0, r1, lsl #12
 80004a0:	d113      	bne.n	80004ca <__aeabi_dmul+0x24a>
 80004a2:	ea95 0f0c 	teq	r5, ip
 80004a6:	d105      	bne.n	80004b4 <__aeabi_dmul+0x234>
 80004a8:	ea52 3603 	orrs.w	r6, r2, r3, lsl #12
 80004ac:	bf1c      	itt	ne
 80004ae:	4610      	movne	r0, r2
 80004b0:	4619      	movne	r1, r3
 80004b2:	d10a      	bne.n	80004ca <__aeabi_dmul+0x24a>
 80004b4:	ea81 0103 	eor.w	r1, r1, r3
 80004b8:	f001 4100 	and.w	r1, r1, #2147483648	; 0x80000000
 80004bc:	f041 41fe 	orr.w	r1, r1, #2130706432	; 0x7f000000
 80004c0:	f441 0170 	orr.w	r1, r1, #15728640	; 0xf00000
 80004c4:	f04f 0000 	mov.w	r0, #0
 80004c8:	bd70      	pop	{r4, r5, r6, pc}
 80004ca:	f041 41fe 	orr.w	r1, r1, #2130706432	; 0x7f000000
 80004ce:	f441 0178 	orr.w	r1, r1, #16252928	; 0xf80000
 80004d2:	bd70      	pop	{r4, r5, r6, pc}

080004d4 <__aeabi_drsub>:
 80004d4:	f081 4100 	eor.w	r1, r1, #2147483648	; 0x80000000
 80004d8:	e002      	b.n	80004e0 <__adddf3>
 80004da:	bf00      	nop

080004dc <__aeabi_dsub>:
 80004dc:	f083 4300 	eor.w	r3, r3, #2147483648	; 0x80000000

080004e0 <__adddf3>:
 80004e0:	b530      	push	{r4, r5, lr}
 80004e2:	ea4f 0441 	mov.w	r4, r1, lsl #1
 80004e6:	ea4f 0543 	mov.w	r5, r3, lsl #1
 80004ea:	ea94 0f05 	teq	r4, r5
 80004ee:	bf08      	it	eq
 80004f0:	ea90 0f02 	teqeq	r0, r2
 80004f4:	bf1f      	itttt	ne
 80004f6:	ea54 0c00 	orrsne.w	ip, r4, r0
 80004fa:	ea55 0c02 	orrsne.w	ip, r5, r2
 80004fe:	ea7f 5c64 	mvnsne.w	ip, r4, asr #21
 8000502:	ea7f 5c65 	mvnsne.w	ip, r5, asr #21
 8000506:	f000 80e2 	beq.w	80006ce <__adddf3+0x1ee>
 800050a:	ea4f 5454 	mov.w	r4, r4, lsr #21
 800050e:	ebd4 5555 	rsbs	r5, r4, r5, lsr #21
 8000512:	bfb8      	it	lt
 8000514:	426d      	neglt	r5, r5
 8000516:	dd0c      	ble.n	8000532 <__adddf3+0x52>
 8000518:	442c      	add	r4, r5
 800051a:	ea80 0202 	eor.w	r2, r0, r2
 800051e:	ea81 0303 	eor.w	r3, r1, r3
 8000522:	ea82 0000 	eor.w	r0, r2, r0
 8000526:	ea83 0101 	eor.w	r1, r3, r1
 800052a:	ea80 0202 	eor.w	r2, r0, r2
 800052e:	ea81 0303 	eor.w	r3, r1, r3
 8000532:	2d36      	cmp	r5, #54	; 0x36
 8000534:	bf88      	it	hi
 8000536:	bd30      	pophi	{r4, r5, pc}
 8000538:	f011 4f00 	tst.w	r1, #2147483648	; 0x80000000
 800053c:	ea4f 3101 	mov.w	r1, r1, lsl #12
 8000540:	f44f 1c80 	mov.w	ip, #1048576	; 0x100000
 8000544:	ea4c 3111 	orr.w	r1, ip, r1, lsr #12
 8000548:	d002      	beq.n	8000550 <__adddf3+0x70>
 800054a:	4240      	negs	r0, r0
 800054c:	eb61 0141 	sbc.w	r1, r1, r1, lsl #1
 8000550:	f013 4f00 	tst.w	r3, #2147483648	; 0x80000000
 8000554:	ea4f 3303 	mov.w	r3, r3, lsl #12
 8000558:	ea4c 3313 	orr.w	r3, ip, r3, lsr #12
 800055c:	d002      	beq.n	8000564 <__adddf3+0x84>
 800055e:	4252      	negs	r2, r2
 8000560:	eb63 0343 	sbc.w	r3, r3, r3, lsl #1
 8000564:	ea94 0f05 	teq	r4, r5
 8000568:	f000 80a7 	beq.w	80006ba <__adddf3+0x1da>
 800056c:	f1a4 0401 	sub.w	r4, r4, #1
 8000570:	f1d5 0e20 	rsbs	lr, r5, #32
 8000574:	db0d      	blt.n	8000592 <__adddf3+0xb2>
 8000576:	fa02 fc0e 	lsl.w	ip, r2, lr
 800057a:	fa22 f205 	lsr.w	r2, r2, r5
 800057e:	1880      	adds	r0, r0, r2
 8000580:	f141 0100 	adc.w	r1, r1, #0
 8000584:	fa03 f20e 	lsl.w	r2, r3, lr
 8000588:	1880      	adds	r0, r0, r2
 800058a:	fa43 f305 	asr.w	r3, r3, r5
 800058e:	4159      	adcs	r1, r3
 8000590:	e00e      	b.n	80005b0 <__adddf3+0xd0>
 8000592:	f1a5 0520 	sub.w	r5, r5, #32
 8000596:	f10e 0e20 	add.w	lr, lr, #32
 800059a:	2a01      	cmp	r2, #1
 800059c:	fa03 fc0e 	lsl.w	ip, r3, lr
 80005a0:	bf28      	it	cs
 80005a2:	f04c 0c02 	orrcs.w	ip, ip, #2
 80005a6:	fa43 f305 	asr.w	r3, r3, r5
 80005aa:	18c0      	adds	r0, r0, r3
 80005ac:	eb51 71e3 	adcs.w	r1, r1, r3, asr #31
 80005b0:	f001 4500 	and.w	r5, r1, #2147483648	; 0x80000000
 80005b4:	d507      	bpl.n	80005c6 <__adddf3+0xe6>
 80005b6:	f04f 0e00 	mov.w	lr, #0
 80005ba:	f1dc 0c00 	rsbs	ip, ip, #0
 80005be:	eb7e 0000 	sbcs.w	r0, lr, r0
 80005c2:	eb6e 0101 	sbc.w	r1, lr, r1
 80005c6:	f5b1 1f80 	cmp.w	r1, #1048576	; 0x100000
 80005ca:	d31b      	bcc.n	8000604 <__adddf3+0x124>
 80005cc:	f5b1 1f00 	cmp.w	r1, #2097152	; 0x200000
 80005d0:	d30c      	bcc.n	80005ec <__adddf3+0x10c>
 80005d2:	0849      	lsrs	r1, r1, #1
 80005d4:	ea5f 0030 	movs.w	r0, r0, rrx
 80005d8:	ea4f 0c3c 	mov.w	ip, ip, rrx
 80005dc:	f104 0401 	add.w	r4, r4, #1
 80005e0:	ea4f 5244 	mov.w	r2, r4, lsl #21
 80005e4:	f512 0f80 	cmn.w	r2, #4194304	; 0x400000
 80005e8:	f080 809a 	bcs.w	8000720 <__adddf3+0x240>
 80005ec:	f1bc 4f00 	cmp.w	ip, #2147483648	; 0x80000000
 80005f0:	bf08      	it	eq
 80005f2:	ea5f 0c50 	movseq.w	ip, r0, lsr #1
 80005f6:	f150 0000 	adcs.w	r0, r0, #0
 80005fa:	eb41 5104 	adc.w	r1, r1, r4, lsl #20
 80005fe:	ea41 0105 	orr.w	r1, r1, r5
 8000602:	bd30      	pop	{r4, r5, pc}
 8000604:	ea5f 0c4c 	movs.w	ip, ip, lsl #1
 8000608:	4140      	adcs	r0, r0
 800060a:	eb41 0101 	adc.w	r1, r1, r1
 800060e:	3c01      	subs	r4, #1
 8000610:	bf28      	it	cs
 8000612:	f5b1 1f80 	cmpcs.w	r1, #1048576	; 0x100000
 8000616:	d2e9      	bcs.n	80005ec <__adddf3+0x10c>
 8000618:	f091 0f00 	teq	r1, #0
 800061c:	bf04      	itt	eq
 800061e:	4601      	moveq	r1, r0
 8000620:	2000      	moveq	r0, #0
 8000622:	fab1 f381 	clz	r3, r1
 8000626:	bf08      	it	eq
 8000628:	3320      	addeq	r3, #32
 800062a:	f1a3 030b 	sub.w	r3, r3, #11
 800062e:	f1b3 0220 	subs.w	r2, r3, #32
 8000632:	da0c      	bge.n	800064e <__adddf3+0x16e>
 8000634:	320c      	adds	r2, #12
 8000636:	dd08      	ble.n	800064a <__adddf3+0x16a>
 8000638:	f102 0c14 	add.w	ip, r2, #20
 800063c:	f1c2 020c 	rsb	r2, r2, #12
 8000640:	fa01 f00c 	lsl.w	r0, r1, ip
 8000644:	fa21 f102 	lsr.w	r1, r1, r2
 8000648:	e00c      	b.n	8000664 <__adddf3+0x184>
 800064a:	f102 0214 	add.w	r2, r2, #20
 800064e:	bfd8      	it	le
 8000650:	f1c2 0c20 	rsble	ip, r2, #32
 8000654:	fa01 f102 	lsl.w	r1, r1, r2
 8000658:	fa20 fc0c 	lsr.w	ip, r0, ip
 800065c:	bfdc      	itt	le
 800065e:	ea41 010c 	orrle.w	r1, r1, ip
 8000662:	4090      	lslle	r0, r2
 8000664:	1ae4      	subs	r4, r4, r3
 8000666:	bfa2      	ittt	ge
 8000668:	eb01 5104 	addge.w	r1, r1, r4, lsl #20
 800066c:	4329      	orrge	r1, r5
 800066e:	bd30      	popge	{r4, r5, pc}
 8000670:	ea6f 0404 	mvn.w	r4, r4
 8000674:	3c1f      	subs	r4, #31
 8000676:	da1c      	bge.n	80006b2 <__adddf3+0x1d2>
 8000678:	340c      	adds	r4, #12
 800067a:	dc0e      	bgt.n	800069a <__adddf3+0x1ba>
 800067c:	f104 0414 	add.w	r4, r4, #20
 8000680:	f1c4 0220 	rsb	r2, r4, #32
 8000684:	fa20 f004 	lsr.w	r0, r0, r4
 8000688:	fa01 f302 	lsl.w	r3, r1, r2
 800068c:	ea40 0003 	orr.w	r0, r0, r3
 8000690:	fa21 f304 	lsr.w	r3, r1, r4
 8000694:	ea45 0103 	orr.w	r1, r5, r3
 8000698:	bd30      	pop	{r4, r5, pc}
 800069a:	f1c4 040c 	rsb	r4, r4, #12
 800069e:	f1c4 0220 	rsb	r2, r4, #32
 80006a2:	fa20 f002 	lsr.w	r0, r0, r2
 80006a6:	fa01 f304 	lsl.w	r3, r1, r4
 80006aa:	ea40 0003 	orr.w	r0, r0, r3
 80006ae:	4629      	mov	r1, r5
 80006b0:	bd30      	pop	{r4, r5, pc}
 80006b2:	fa21 f004 	lsr.w	r0, r1, r4
 80006b6:	4629      	mov	r1, r5
 80006b8:	bd30      	pop	{r4, r5, pc}
 80006ba:	f094 0f00 	teq	r4, #0
 80006be:	f483 1380 	eor.w	r3, r3, #1048576	; 0x100000
 80006c2:	bf06      	itte	eq
 80006c4:	f481 1180 	eoreq.w	r1, r1, #1048576	; 0x100000
 80006c8:	3401      	addeq	r4, #1
 80006ca:	3d01      	subne	r5, #1
 80006cc:	e74e      	b.n	800056c <__adddf3+0x8c>
 80006ce:	ea7f 5c64 	mvns.w	ip, r4, asr #21
 80006d2:	bf18      	it	ne
 80006d4:	ea7f 5c65 	mvnsne.w	ip, r5, asr #21
 80006d8:	d029      	beq.n	800072e <__adddf3+0x24e>
 80006da:	ea94 0f05 	teq	r4, r5
 80006de:	bf08      	it	eq
 80006e0:	ea90 0f02 	teqeq	r0, r2
 80006e4:	d005      	beq.n	80006f2 <__adddf3+0x212>
 80006e6:	ea54 0c00 	orrs.w	ip, r4, r0
 80006ea:	bf04      	itt	eq
 80006ec:	4619      	moveq	r1, r3
 80006ee:	4610      	moveq	r0, r2
 80006f0:	bd30      	pop	{r4, r5, pc}
 80006f2:	ea91 0f03 	teq	r1, r3
 80006f6:	bf1e      	ittt	ne
 80006f8:	2100      	movne	r1, #0
 80006fa:	2000      	movne	r0, #0
 80006fc:	bd30      	popne	{r4, r5, pc}
 80006fe:	ea5f 5c54 	movs.w	ip, r4, lsr #21
 8000702:	d105      	bne.n	8000710 <__adddf3+0x230>
 8000704:	0040      	lsls	r0, r0, #1
 8000706:	4149      	adcs	r1, r1
 8000708:	bf28      	it	cs
 800070a:	f041 4100 	orrcs.w	r1, r1, #2147483648	; 0x80000000
 800070e:	bd30      	pop	{r4, r5, pc}
 8000710:	f514 0480 	adds.w	r4, r4, #4194304	; 0x400000
 8000714:	bf3c      	itt	cc
 8000716:	f501 1180 	addcc.w	r1, r1, #1048576	; 0x100000
 800071a:	bd30      	popcc	{r4, r5, pc}
 800071c:	f001 4500 	and.w	r5, r1, #2147483648	; 0x80000000
 8000720:	f045 41fe 	orr.w	r1, r5, #2130706432	; 0x7f000000
 8000724:	f441 0170 	orr.w	r1, r1, #15728640	; 0xf00000
 8000728:	f04f 0000 	mov.w	r0, #0
 800072c:	bd30      	pop	{r4, r5, pc}
 800072e:	ea7f 5c64 	mvns.w	ip, r4, asr #21
 8000732:	bf1a      	itte	ne
 8000734:	4619      	movne	r1, r3
 8000736:	4610      	movne	r0, r2
 8000738:	ea7f 5c65 	mvnseq.w	ip, r5, asr #21
 800073c:	bf1c      	itt	ne
 800073e:	460b      	movne	r3, r1
 8000740:	4602      	movne	r2, r0
 8000742:	ea50 3401 	orrs.w	r4, r0, r1, lsl #12
 8000746:	bf06      	itte	eq
 8000748:	ea52 3503 	orrseq.w	r5, r2, r3, lsl #12
 800074c:	ea91 0f03 	teqeq	r1, r3
 8000750:	f441 2100 	orrne.w	r1, r1, #524288	; 0x80000
 8000754:	bd30      	pop	{r4, r5, pc}
 8000756:	bf00      	nop

08000758 <__aeabi_ui2d>:
 8000758:	f090 0f00 	teq	r0, #0
 800075c:	bf04      	itt	eq
 800075e:	2100      	moveq	r1, #0
 8000760:	4770      	bxeq	lr
 8000762:	b530      	push	{r4, r5, lr}
 8000764:	f44f 6480 	mov.w	r4, #1024	; 0x400
 8000768:	f104 0432 	add.w	r4, r4, #50	; 0x32
 800076c:	f04f 0500 	mov.w	r5, #0
 8000770:	f04f 0100 	mov.w	r1, #0
 8000774:	e750      	b.n	8000618 <__adddf3+0x138>
 8000776:	bf00      	nop

08000778 <__aeabi_i2d>:
 8000778:	f090 0f00 	teq	r0, #0
 800077c:	bf04      	itt	eq
 800077e:	2100      	moveq	r1, #0
 8000780:	4770      	bxeq	lr
 8000782:	b530      	push	{r4, r5, lr}
 8000784:	f44f 6480 	mov.w	r4, #1024	; 0x400
 8000788:	f104 0432 	add.w	r4, r4, #50	; 0x32
 800078c:	f010 4500 	ands.w	r5, r0, #2147483648	; 0x80000000
 8000790:	bf48      	it	mi
 8000792:	4240      	negmi	r0, r0
 8000794:	f04f 0100 	mov.w	r1, #0
 8000798:	e73e      	b.n	8000618 <__adddf3+0x138>
 800079a:	bf00      	nop

0800079c <__aeabi_f2d>:
 800079c:	0042      	lsls	r2, r0, #1
 800079e:	ea4f 01e2 	mov.w	r1, r2, asr #3
 80007a2:	ea4f 0131 	mov.w	r1, r1, rrx
 80007a6:	ea4f 7002 	mov.w	r0, r2, lsl #28
 80007aa:	bf1f      	itttt	ne
 80007ac:	f012 437f 	andsne.w	r3, r2, #4278190080	; 0xff000000
 80007b0:	f093 4f7f 	teqne	r3, #4278190080	; 0xff000000
 80007b4:	f081 5160 	eorne.w	r1, r1, #939524096	; 0x38000000
 80007b8:	4770      	bxne	lr
 80007ba:	f032 427f 	bics.w	r2, r2, #4278190080	; 0xff000000
 80007be:	bf08      	it	eq
 80007c0:	4770      	bxeq	lr
 80007c2:	f093 4f7f 	teq	r3, #4278190080	; 0xff000000
 80007c6:	bf04      	itt	eq
 80007c8:	f441 2100 	orreq.w	r1, r1, #524288	; 0x80000
 80007cc:	4770      	bxeq	lr
 80007ce:	b530      	push	{r4, r5, lr}
 80007d0:	f44f 7460 	mov.w	r4, #896	; 0x380
 80007d4:	f001 4500 	and.w	r5, r1, #2147483648	; 0x80000000
 80007d8:	f021 4100 	bic.w	r1, r1, #2147483648	; 0x80000000
 80007dc:	e71c      	b.n	8000618 <__adddf3+0x138>
 80007de:	bf00      	nop

080007e0 <__aeabi_ul2d>:
 80007e0:	ea50 0201 	orrs.w	r2, r0, r1
 80007e4:	bf08      	it	eq
 80007e6:	4770      	bxeq	lr
 80007e8:	b530      	push	{r4, r5, lr}
 80007ea:	f04f 0500 	mov.w	r5, #0
 80007ee:	e00a      	b.n	8000806 <__aeabi_l2d+0x16>

080007f0 <__aeabi_l2d>:
 80007f0:	ea50 0201 	orrs.w	r2, r0, r1
 80007f4:	bf08      	it	eq
 80007f6:	4770      	bxeq	lr
 80007f8:	b530      	push	{r4, r5, lr}
 80007fa:	f011 4500 	ands.w	r5, r1, #2147483648	; 0x80000000
 80007fe:	d502      	bpl.n	8000806 <__aeabi_l2d+0x16>
 8000800:	4240      	negs	r0, r0
 8000802:	eb61 0141 	sbc.w	r1, r1, r1, lsl #1
 8000806:	f44f 6480 	mov.w	r4, #1024	; 0x400
 800080a:	f104 0432 	add.w	r4, r4, #50	; 0x32
 800080e:	ea5f 5c91 	movs.w	ip, r1, lsr #22
 8000812:	f43f aed8 	beq.w	80005c6 <__adddf3+0xe6>
 8000816:	f04f 0203 	mov.w	r2, #3
 800081a:	ea5f 0cdc 	movs.w	ip, ip, lsr #3
 800081e:	bf18      	it	ne
 8000820:	3203      	addne	r2, #3
 8000822:	ea5f 0cdc 	movs.w	ip, ip, lsr #3
 8000826:	bf18      	it	ne
 8000828:	3203      	addne	r2, #3
 800082a:	eb02 02dc 	add.w	r2, r2, ip, lsr #3
 800082e:	f1c2 0320 	rsb	r3, r2, #32
 8000832:	fa00 fc03 	lsl.w	ip, r0, r3
 8000836:	fa20 f002 	lsr.w	r0, r0, r2
 800083a:	fa01 fe03 	lsl.w	lr, r1, r3
 800083e:	ea40 000e 	orr.w	r0, r0, lr
 8000842:	fa21 f102 	lsr.w	r1, r1, r2
 8000846:	4414      	add	r4, r2
 8000848:	e6bd      	b.n	80005c6 <__adddf3+0xe6>
 800084a:	bf00      	nop

0800084c <__aeabi_d2f>:
 800084c:	ea4f 0241 	mov.w	r2, r1, lsl #1
 8000850:	f1b2 43e0 	subs.w	r3, r2, #1879048192	; 0x70000000
 8000854:	bf24      	itt	cs
 8000856:	f5b3 1c00 	subscs.w	ip, r3, #2097152	; 0x200000
 800085a:	f1dc 5cfe 	rsbscs	ip, ip, #532676608	; 0x1fc00000
 800085e:	d90d      	bls.n	800087c <__aeabi_d2f+0x30>
 8000860:	f001 4c00 	and.w	ip, r1, #2147483648	; 0x80000000
 8000864:	ea4f 02c0 	mov.w	r2, r0, lsl #3
 8000868:	ea4c 7050 	orr.w	r0, ip, r0, lsr #29
 800086c:	f1b2 4f00 	cmp.w	r2, #2147483648	; 0x80000000
 8000870:	eb40 0083 	adc.w	r0, r0, r3, lsl #2
 8000874:	bf08      	it	eq
 8000876:	f020 0001 	biceq.w	r0, r0, #1
 800087a:	4770      	bx	lr
 800087c:	f011 4f80 	tst.w	r1, #1073741824	; 0x40000000
 8000880:	d121      	bne.n	80008c6 <__aeabi_d2f+0x7a>
 8000882:	f113 7238 	adds.w	r2, r3, #48234496	; 0x2e00000
 8000886:	bfbc      	itt	lt
 8000888:	f001 4000 	andlt.w	r0, r1, #2147483648	; 0x80000000
 800088c:	4770      	bxlt	lr
 800088e:	f441 1180 	orr.w	r1, r1, #1048576	; 0x100000
 8000892:	ea4f 5252 	mov.w	r2, r2, lsr #21
 8000896:	f1c2 0218 	rsb	r2, r2, #24
 800089a:	f1c2 0c20 	rsb	ip, r2, #32
 800089e:	fa10 f30c 	lsls.w	r3, r0, ip
 80008a2:	fa20 f002 	lsr.w	r0, r0, r2
 80008a6:	bf18      	it	ne
 80008a8:	f040 0001 	orrne.w	r0, r0, #1
 80008ac:	ea4f 23c1 	mov.w	r3, r1, lsl #11
 80008b0:	ea4f 23d3 	mov.w	r3, r3, lsr #11
 80008b4:	fa03 fc0c 	lsl.w	ip, r3, ip
 80008b8:	ea40 000c 	orr.w	r0, r0, ip
 80008bc:	fa23 f302 	lsr.w	r3, r3, r2
 80008c0:	ea4f 0343 	mov.w	r3, r3, lsl #1
 80008c4:	e7cc      	b.n	8000860 <__aeabi_d2f+0x14>
 80008c6:	ea7f 5362 	mvns.w	r3, r2, asr #21
 80008ca:	d107      	bne.n	80008dc <__aeabi_d2f+0x90>
 80008cc:	ea50 3301 	orrs.w	r3, r0, r1, lsl #12
 80008d0:	bf1e      	ittt	ne
 80008d2:	f04f 40fe 	movne.w	r0, #2130706432	; 0x7f000000
 80008d6:	f440 0040 	orrne.w	r0, r0, #12582912	; 0xc00000
 80008da:	4770      	bxne	lr
 80008dc:	f001 4000 	and.w	r0, r1, #2147483648	; 0x80000000
 80008e0:	f040 40fe 	orr.w	r0, r0, #2130706432	; 0x7f000000
 80008e4:	f440 0000 	orr.w	r0, r0, #8388608	; 0x800000
 80008e8:	4770      	bx	lr
 80008ea:	bf00      	nop

080008ec <__aeabi_uldivmod>:
 80008ec:	b953      	cbnz	r3, 8000904 <__aeabi_uldivmod+0x18>
 80008ee:	b94a      	cbnz	r2, 8000904 <__aeabi_uldivmod+0x18>
 80008f0:	2900      	cmp	r1, #0
 80008f2:	bf08      	it	eq
 80008f4:	2800      	cmpeq	r0, #0
 80008f6:	bf1c      	itt	ne
 80008f8:	f04f 31ff 	movne.w	r1, #4294967295
 80008fc:	f04f 30ff 	movne.w	r0, #4294967295
 8000900:	f000 b974 	b.w	8000bec <__aeabi_idiv0>
 8000904:	f1ad 0c08 	sub.w	ip, sp, #8
 8000908:	e96d ce04 	strd	ip, lr, [sp, #-16]!
 800090c:	f000 f806 	bl	800091c <__udivmoddi4>
 8000910:	f8dd e004 	ldr.w	lr, [sp, #4]
 8000914:	e9dd 2302 	ldrd	r2, r3, [sp, #8]
 8000918:	b004      	add	sp, #16
 800091a:	4770      	bx	lr

0800091c <__udivmoddi4>:
 800091c:	e92d 47f0 	stmdb	sp!, {r4, r5, r6, r7, r8, r9, sl, lr}
 8000920:	9d08      	ldr	r5, [sp, #32]
 8000922:	4604      	mov	r4, r0
 8000924:	468e      	mov	lr, r1
 8000926:	2b00      	cmp	r3, #0
 8000928:	d14d      	bne.n	80009c6 <__udivmoddi4+0xaa>
 800092a:	428a      	cmp	r2, r1
 800092c:	4694      	mov	ip, r2
 800092e:	d969      	bls.n	8000a04 <__udivmoddi4+0xe8>
 8000930:	fab2 f282 	clz	r2, r2
 8000934:	b152      	cbz	r2, 800094c <__udivmoddi4+0x30>
 8000936:	fa01 f302 	lsl.w	r3, r1, r2
 800093a:	f1c2 0120 	rsb	r1, r2, #32
 800093e:	fa20 f101 	lsr.w	r1, r0, r1
 8000942:	fa0c fc02 	lsl.w	ip, ip, r2
 8000946:	ea41 0e03 	orr.w	lr, r1, r3
 800094a:	4094      	lsls	r4, r2
 800094c:	ea4f 481c 	mov.w	r8, ip, lsr #16
 8000950:	0c21      	lsrs	r1, r4, #16
 8000952:	fbbe f6f8 	udiv	r6, lr, r8
 8000956:	fa1f f78c 	uxth.w	r7, ip
 800095a:	fb08 e316 	mls	r3, r8, r6, lr
 800095e:	ea41 4303 	orr.w	r3, r1, r3, lsl #16
 8000962:	fb06 f107 	mul.w	r1, r6, r7
 8000966:	4299      	cmp	r1, r3
 8000968:	d90a      	bls.n	8000980 <__udivmoddi4+0x64>
 800096a:	eb1c 0303 	adds.w	r3, ip, r3
 800096e:	f106 30ff 	add.w	r0, r6, #4294967295
 8000972:	f080 811f 	bcs.w	8000bb4 <__udivmoddi4+0x298>
 8000976:	4299      	cmp	r1, r3
 8000978:	f240 811c 	bls.w	8000bb4 <__udivmoddi4+0x298>
 800097c:	3e02      	subs	r6, #2
 800097e:	4463      	add	r3, ip
 8000980:	1a5b      	subs	r3, r3, r1
 8000982:	b2a4      	uxth	r4, r4
 8000984:	fbb3 f0f8 	udiv	r0, r3, r8
 8000988:	fb08 3310 	mls	r3, r8, r0, r3
 800098c:	ea44 4403 	orr.w	r4, r4, r3, lsl #16
 8000990:	fb00 f707 	mul.w	r7, r0, r7
 8000994:	42a7      	cmp	r7, r4
 8000996:	d90a      	bls.n	80009ae <__udivmoddi4+0x92>
 8000998:	eb1c 0404 	adds.w	r4, ip, r4
 800099c:	f100 33ff 	add.w	r3, r0, #4294967295
 80009a0:	f080 810a 	bcs.w	8000bb8 <__udivmoddi4+0x29c>
 80009a4:	42a7      	cmp	r7, r4
 80009a6:	f240 8107 	bls.w	8000bb8 <__udivmoddi4+0x29c>
 80009aa:	4464      	add	r4, ip
 80009ac:	3802      	subs	r0, #2
 80009ae:	ea40 4006 	orr.w	r0, r0, r6, lsl #16
 80009b2:	1be4      	subs	r4, r4, r7
 80009b4:	2600      	movs	r6, #0
 80009b6:	b11d      	cbz	r5, 80009c0 <__udivmoddi4+0xa4>
 80009b8:	40d4      	lsrs	r4, r2
 80009ba:	2300      	movs	r3, #0
 80009bc:	e9c5 4300 	strd	r4, r3, [r5]
 80009c0:	4631      	mov	r1, r6
 80009c2:	e8bd 87f0 	ldmia.w	sp!, {r4, r5, r6, r7, r8, r9, sl, pc}
 80009c6:	428b      	cmp	r3, r1
 80009c8:	d909      	bls.n	80009de <__udivmoddi4+0xc2>
 80009ca:	2d00      	cmp	r5, #0
 80009cc:	f000 80ef 	beq.w	8000bae <__udivmoddi4+0x292>
 80009d0:	2600      	movs	r6, #0
 80009d2:	e9c5 0100 	strd	r0, r1, [r5]
 80009d6:	4630      	mov	r0, r6
 80009d8:	4631      	mov	r1, r6
 80009da:	e8bd 87f0 	ldmia.w	sp!, {r4, r5, r6, r7, r8, r9, sl, pc}
 80009de:	fab3 f683 	clz	r6, r3
 80009e2:	2e00      	cmp	r6, #0
 80009e4:	d14a      	bne.n	8000a7c <__udivmoddi4+0x160>
 80009e6:	428b      	cmp	r3, r1
 80009e8:	d302      	bcc.n	80009f0 <__udivmoddi4+0xd4>
 80009ea:	4282      	cmp	r2, r0
 80009ec:	f200 80f9 	bhi.w	8000be2 <__udivmoddi4+0x2c6>
 80009f0:	1a84      	subs	r4, r0, r2
 80009f2:	eb61 0303 	sbc.w	r3, r1, r3
 80009f6:	2001      	movs	r0, #1
 80009f8:	469e      	mov	lr, r3
 80009fa:	2d00      	cmp	r5, #0
 80009fc:	d0e0      	beq.n	80009c0 <__udivmoddi4+0xa4>
 80009fe:	e9c5 4e00 	strd	r4, lr, [r5]
 8000a02:	e7dd      	b.n	80009c0 <__udivmoddi4+0xa4>
 8000a04:	b902      	cbnz	r2, 8000a08 <__udivmoddi4+0xec>
 8000a06:	deff      	udf	#255	; 0xff
 8000a08:	fab2 f282 	clz	r2, r2
 8000a0c:	2a00      	cmp	r2, #0
 8000a0e:	f040 8092 	bne.w	8000b36 <__udivmoddi4+0x21a>
 8000a12:	eba1 010c 	sub.w	r1, r1, ip
 8000a16:	ea4f 471c 	mov.w	r7, ip, lsr #16
 8000a1a:	fa1f fe8c 	uxth.w	lr, ip
 8000a1e:	2601      	movs	r6, #1
 8000a20:	0c20      	lsrs	r0, r4, #16
 8000a22:	fbb1 f3f7 	udiv	r3, r1, r7
 8000a26:	fb07 1113 	mls	r1, r7, r3, r1
 8000a2a:	ea40 4101 	orr.w	r1, r0, r1, lsl #16
 8000a2e:	fb0e f003 	mul.w	r0, lr, r3
 8000a32:	4288      	cmp	r0, r1
 8000a34:	d908      	bls.n	8000a48 <__udivmoddi4+0x12c>
 8000a36:	eb1c 0101 	adds.w	r1, ip, r1
 8000a3a:	f103 38ff 	add.w	r8, r3, #4294967295
 8000a3e:	d202      	bcs.n	8000a46 <__udivmoddi4+0x12a>
 8000a40:	4288      	cmp	r0, r1
 8000a42:	f200 80cb 	bhi.w	8000bdc <__udivmoddi4+0x2c0>
 8000a46:	4643      	mov	r3, r8
 8000a48:	1a09      	subs	r1, r1, r0
 8000a4a:	b2a4      	uxth	r4, r4
 8000a4c:	fbb1 f0f7 	udiv	r0, r1, r7
 8000a50:	fb07 1110 	mls	r1, r7, r0, r1
 8000a54:	ea44 4401 	orr.w	r4, r4, r1, lsl #16
 8000a58:	fb0e fe00 	mul.w	lr, lr, r0
 8000a5c:	45a6      	cmp	lr, r4
 8000a5e:	d908      	bls.n	8000a72 <__udivmoddi4+0x156>
 8000a60:	eb1c 0404 	adds.w	r4, ip, r4
 8000a64:	f100 31ff 	add.w	r1, r0, #4294967295
 8000a68:	d202      	bcs.n	8000a70 <__udivmoddi4+0x154>
 8000a6a:	45a6      	cmp	lr, r4
 8000a6c:	f200 80bb 	bhi.w	8000be6 <__udivmoddi4+0x2ca>
 8000a70:	4608      	mov	r0, r1
 8000a72:	eba4 040e 	sub.w	r4, r4, lr
 8000a76:	ea40 4003 	orr.w	r0, r0, r3, lsl #16
 8000a7a:	e79c      	b.n	80009b6 <__udivmoddi4+0x9a>
 8000a7c:	f1c6 0720 	rsb	r7, r6, #32
 8000a80:	40b3      	lsls	r3, r6
 8000a82:	fa22 fc07 	lsr.w	ip, r2, r7
 8000a86:	ea4c 0c03 	orr.w	ip, ip, r3
 8000a8a:	fa20 f407 	lsr.w	r4, r0, r7
 8000a8e:	fa01 f306 	lsl.w	r3, r1, r6
 8000a92:	431c      	orrs	r4, r3
 8000a94:	40f9      	lsrs	r1, r7
 8000a96:	ea4f 491c 	mov.w	r9, ip, lsr #16
 8000a9a:	fa00 f306 	lsl.w	r3, r0, r6
 8000a9e:	fbb1 f8f9 	udiv	r8, r1, r9
 8000aa2:	0c20      	lsrs	r0, r4, #16
 8000aa4:	fa1f fe8c 	uxth.w	lr, ip
 8000aa8:	fb09 1118 	mls	r1, r9, r8, r1
 8000aac:	ea40 4101 	orr.w	r1, r0, r1, lsl #16
 8000ab0:	fb08 f00e 	mul.w	r0, r8, lr
 8000ab4:	4288      	cmp	r0, r1
 8000ab6:	fa02 f206 	lsl.w	r2, r2, r6
 8000aba:	d90b      	bls.n	8000ad4 <__udivmoddi4+0x1b8>
 8000abc:	eb1c 0101 	adds.w	r1, ip, r1
 8000ac0:	f108 3aff 	add.w	sl, r8, #4294967295
 8000ac4:	f080 8088 	bcs.w	8000bd8 <__udivmoddi4+0x2bc>
 8000ac8:	4288      	cmp	r0, r1
 8000aca:	f240 8085 	bls.w	8000bd8 <__udivmoddi4+0x2bc>
 8000ace:	f1a8 0802 	sub.w	r8, r8, #2
 8000ad2:	4461      	add	r1, ip
 8000ad4:	1a09      	subs	r1, r1, r0
 8000ad6:	b2a4      	uxth	r4, r4
 8000ad8:	fbb1 f0f9 	udiv	r0, r1, r9
 8000adc:	fb09 1110 	mls	r1, r9, r0, r1
 8000ae0:	ea44 4101 	orr.w	r1, r4, r1, lsl #16
 8000ae4:	fb00 fe0e 	mul.w	lr, r0, lr
 8000ae8:	458e      	cmp	lr, r1
 8000aea:	d908      	bls.n	8000afe <__udivmoddi4+0x1e2>
 8000aec:	eb1c 0101 	adds.w	r1, ip, r1
 8000af0:	f100 34ff 	add.w	r4, r0, #4294967295
 8000af4:	d26c      	bcs.n	8000bd0 <__udivmoddi4+0x2b4>
 8000af6:	458e      	cmp	lr, r1
 8000af8:	d96a      	bls.n	8000bd0 <__udivmoddi4+0x2b4>
 8000afa:	3802      	subs	r0, #2
 8000afc:	4461      	add	r1, ip
 8000afe:	ea40 4008 	orr.w	r0, r0, r8, lsl #16
 8000b02:	fba0 9402 	umull	r9, r4, r0, r2
 8000b06:	eba1 010e 	sub.w	r1, r1, lr
 8000b0a:	42a1      	cmp	r1, r4
 8000b0c:	46c8      	mov	r8, r9
 8000b0e:	46a6      	mov	lr, r4
 8000b10:	d356      	bcc.n	8000bc0 <__udivmoddi4+0x2a4>
 8000b12:	d053      	beq.n	8000bbc <__udivmoddi4+0x2a0>
 8000b14:	b15d      	cbz	r5, 8000b2e <__udivmoddi4+0x212>
 8000b16:	ebb3 0208 	subs.w	r2, r3, r8
 8000b1a:	eb61 010e 	sbc.w	r1, r1, lr
 8000b1e:	fa01 f707 	lsl.w	r7, r1, r7
 8000b22:	fa22 f306 	lsr.w	r3, r2, r6
 8000b26:	40f1      	lsrs	r1, r6
 8000b28:	431f      	orrs	r7, r3
 8000b2a:	e9c5 7100 	strd	r7, r1, [r5]
 8000b2e:	2600      	movs	r6, #0
 8000b30:	4631      	mov	r1, r6
 8000b32:	e8bd 87f0 	ldmia.w	sp!, {r4, r5, r6, r7, r8, r9, sl, pc}
 8000b36:	f1c2 0320 	rsb	r3, r2, #32
 8000b3a:	40d8      	lsrs	r0, r3
 8000b3c:	fa0c fc02 	lsl.w	ip, ip, r2
 8000b40:	fa21 f303 	lsr.w	r3, r1, r3
 8000b44:	4091      	lsls	r1, r2
 8000b46:	4301      	orrs	r1, r0
 8000b48:	ea4f 471c 	mov.w	r7, ip, lsr #16
 8000b4c:	fa1f fe8c 	uxth.w	lr, ip
 8000b50:	fbb3 f0f7 	udiv	r0, r3, r7
 8000b54:	fb07 3610 	mls	r6, r7, r0, r3
 8000b58:	0c0b      	lsrs	r3, r1, #16
 8000b5a:	ea43 4306 	orr.w	r3, r3, r6, lsl #16
 8000b5e:	fb00 f60e 	mul.w	r6, r0, lr
 8000b62:	429e      	cmp	r6, r3
 8000b64:	fa04 f402 	lsl.w	r4, r4, r2
 8000b68:	d908      	bls.n	8000b7c <__udivmoddi4+0x260>
 8000b6a:	eb1c 0303 	adds.w	r3, ip, r3
 8000b6e:	f100 38ff 	add.w	r8, r0, #4294967295
 8000b72:	d22f      	bcs.n	8000bd4 <__udivmoddi4+0x2b8>
 8000b74:	429e      	cmp	r6, r3
 8000b76:	d92d      	bls.n	8000bd4 <__udivmoddi4+0x2b8>
 8000b78:	3802      	subs	r0, #2
 8000b7a:	4463      	add	r3, ip
 8000b7c:	1b9b      	subs	r3, r3, r6
 8000b7e:	b289      	uxth	r1, r1
 8000b80:	fbb3 f6f7 	udiv	r6, r3, r7
 8000b84:	fb07 3316 	mls	r3, r7, r6, r3
 8000b88:	ea41 4103 	orr.w	r1, r1, r3, lsl #16
 8000b8c:	fb06 f30e 	mul.w	r3, r6, lr
 8000b90:	428b      	cmp	r3, r1
 8000b92:	d908      	bls.n	8000ba6 <__udivmoddi4+0x28a>
 8000b94:	eb1c 0101 	adds.w	r1, ip, r1
 8000b98:	f106 38ff 	add.w	r8, r6, #4294967295
 8000b9c:	d216      	bcs.n	8000bcc <__udivmoddi4+0x2b0>
 8000b9e:	428b      	cmp	r3, r1
 8000ba0:	d914      	bls.n	8000bcc <__udivmoddi4+0x2b0>
 8000ba2:	3e02      	subs	r6, #2
 8000ba4:	4461      	add	r1, ip
 8000ba6:	1ac9      	subs	r1, r1, r3
 8000ba8:	ea46 4600 	orr.w	r6, r6, r0, lsl #16
 8000bac:	e738      	b.n	8000a20 <__udivmoddi4+0x104>
 8000bae:	462e      	mov	r6, r5
 8000bb0:	4628      	mov	r0, r5
 8000bb2:	e705      	b.n	80009c0 <__udivmoddi4+0xa4>
 8000bb4:	4606      	mov	r6, r0
 8000bb6:	e6e3      	b.n	8000980 <__udivmoddi4+0x64>
 8000bb8:	4618      	mov	r0, r3
 8000bba:	e6f8      	b.n	80009ae <__udivmoddi4+0x92>
 8000bbc:	454b      	cmp	r3, r9
 8000bbe:	d2a9      	bcs.n	8000b14 <__udivmoddi4+0x1f8>
 8000bc0:	ebb9 0802 	subs.w	r8, r9, r2
 8000bc4:	eb64 0e0c 	sbc.w	lr, r4, ip
 8000bc8:	3801      	subs	r0, #1
 8000bca:	e7a3      	b.n	8000b14 <__udivmoddi4+0x1f8>
 8000bcc:	4646      	mov	r6, r8
 8000bce:	e7ea      	b.n	8000ba6 <__udivmoddi4+0x28a>
 8000bd0:	4620      	mov	r0, r4
 8000bd2:	e794      	b.n	8000afe <__udivmoddi4+0x1e2>
 8000bd4:	4640      	mov	r0, r8
 8000bd6:	e7d1      	b.n	8000b7c <__udivmoddi4+0x260>
 8000bd8:	46d0      	mov	r8, sl
 8000bda:	e77b      	b.n	8000ad4 <__udivmoddi4+0x1b8>
 8000bdc:	3b02      	subs	r3, #2
 8000bde:	4461      	add	r1, ip
 8000be0:	e732      	b.n	8000a48 <__udivmoddi4+0x12c>
 8000be2:	4630      	mov	r0, r6
 8000be4:	e709      	b.n	80009fa <__udivmoddi4+0xde>
 8000be6:	4464      	add	r4, ip
 8000be8:	3802      	subs	r0, #2
 8000bea:	e742      	b.n	8000a72 <__udivmoddi4+0x156>

08000bec <__aeabi_idiv0>:
 8000bec:	4770      	bx	lr
 8000bee:	bf00      	nop

08000bf0 <_ZN5Eigen16CommaInitializerINS_6MatrixIfLi3ELi1ELi0ELi3ELi1EEEE8finishedEv.isra.0>:
    * \code
    * quaternion.fromRotationMatrix((Matrix3f() << axis0, axis1, axis2).finished());
    * \endcode
    */
  EIGEN_DEVICE_FUNC
  inline XprType& finished() {
 8000bf0:	b508      	push	{r3, lr}
      eigen_assert(((m_row+m_currentBlockRows) == m_xpr.rows() || m_xpr.cols() == 0)
 8000bf2:	68c2      	ldr	r2, [r0, #12]
 8000bf4:	6843      	ldr	r3, [r0, #4]
 8000bf6:	4413      	add	r3, r2
 8000bf8:	2b03      	cmp	r3, #3
 8000bfa:	d103      	bne.n	8000c04 <_ZN5Eigen16CommaInitializerINS_6MatrixIfLi3ELi1ELi0ELi3ELi1EEEE8finishedEv.isra.0+0x14>
 8000bfc:	6883      	ldr	r3, [r0, #8]
 8000bfe:	2b01      	cmp	r3, #1
 8000c00:	d100      	bne.n	8000c04 <_ZN5Eigen16CommaInitializerINS_6MatrixIfLi3ELi1ELi0ELi3ELi1EEEE8finishedEv.isra.0+0x14>
           && m_col == m_xpr.cols()
           && "Too few coefficients passed to comma initializer (operator<<)");
      return m_xpr;
  }
 8000c02:	bd08      	pop	{r3, pc}
      eigen_assert(((m_row+m_currentBlockRows) == m_xpr.rows() || m_xpr.cols() == 0)
 8000c04:	4b02      	ldr	r3, [pc, #8]	; (8000c10 <_ZN5Eigen16CommaInitializerINS_6MatrixIfLi3ELi1ELi0ELi3ELi1EEEE8finishedEv.isra.0+0x20>)
 8000c06:	4a03      	ldr	r2, [pc, #12]	; (8000c14 <_ZN5Eigen16CommaInitializerINS_6MatrixIfLi3ELi1ELi0ELi3ELi1EEEE8finishedEv.isra.0+0x24>)
 8000c08:	4803      	ldr	r0, [pc, #12]	; (8000c18 <_ZN5Eigen16CommaInitializerINS_6MatrixIfLi3ELi1ELi0ELi3ELi1EEEE8finishedEv.isra.0+0x28>)
 8000c0a:	217a      	movs	r1, #122	; 0x7a
 8000c0c:	f005 fabe 	bl	800618c <__assert_func>
 8000c10:	08007220 	.word	0x08007220
 8000c14:	080072c0 	.word	0x080072c0
 8000c18:	08007328 	.word	0x08007328

08000c1c <_ZN5Eigen16CommaInitializerINS_6MatrixIfLi3ELi3ELi0ELi3ELi3EEEE8finishedEv.isra.0>:
  inline XprType& finished() {
 8000c1c:	b508      	push	{r3, lr}
      eigen_assert(((m_row+m_currentBlockRows) == m_xpr.rows() || m_xpr.cols() == 0)
 8000c1e:	68c2      	ldr	r2, [r0, #12]
 8000c20:	6843      	ldr	r3, [r0, #4]
 8000c22:	4413      	add	r3, r2
 8000c24:	2b03      	cmp	r3, #3
 8000c26:	d103      	bne.n	8000c30 <_ZN5Eigen16CommaInitializerINS_6MatrixIfLi3ELi3ELi0ELi3ELi3EEEE8finishedEv.isra.0+0x14>
 8000c28:	6883      	ldr	r3, [r0, #8]
 8000c2a:	2b03      	cmp	r3, #3
 8000c2c:	d100      	bne.n	8000c30 <_ZN5Eigen16CommaInitializerINS_6MatrixIfLi3ELi3ELi0ELi3ELi3EEEE8finishedEv.isra.0+0x14>
  }
 8000c2e:	bd08      	pop	{r3, pc}
      eigen_assert(((m_row+m_currentBlockRows) == m_xpr.rows() || m_xpr.cols() == 0)
 8000c30:	4b02      	ldr	r3, [pc, #8]	; (8000c3c <_ZN5Eigen16CommaInitializerINS_6MatrixIfLi3ELi3ELi0ELi3ELi3EEEE8finishedEv.isra.0+0x20>)
 8000c32:	4a03      	ldr	r2, [pc, #12]	; (8000c40 <_ZN5Eigen16CommaInitializerINS_6MatrixIfLi3ELi3ELi0ELi3ELi3EEEE8finishedEv.isra.0+0x24>)
 8000c34:	4803      	ldr	r0, [pc, #12]	; (8000c44 <_ZN5Eigen16CommaInitializerINS_6MatrixIfLi3ELi3ELi0ELi3ELi3EEEE8finishedEv.isra.0+0x28>)
 8000c36:	217a      	movs	r1, #122	; 0x7a
 8000c38:	f005 faa8 	bl	800618c <__assert_func>
 8000c3c:	08007220 	.word	0x08007220
 8000c40:	08007370 	.word	0x08007370
 8000c44:	08007328 	.word	0x08007328

08000c48 <_Z18SystemClock_Configv>:
/**
  * @brief System Clock Configuration
  * @retval None
  */
void SystemClock_Config(void)
{
 8000c48:	b500      	push	{lr}
  RCC_OscInitTypeDef RCC_OscInitStruct = {0};
 8000c4a:	2300      	movs	r3, #0
{
 8000c4c:	b095      	sub	sp, #84	; 0x54
  RCC_OscInitTypeDef RCC_OscInitStruct = {0};
 8000c4e:	e9cd 330b 	strd	r3, r3, [sp, #44]	; 0x2c
 8000c52:	e9cd 3309 	strd	r3, r3, [sp, #36]	; 0x24
  RCC_ClkInitTypeDef RCC_ClkInitStruct = {0};
 8000c56:	e9cd 3302 	strd	r3, r3, [sp, #8]
 8000c5a:	e9cd 3304 	strd	r3, r3, [sp, #16]

  /** Configure the main internal regulator output voltage
  */
  __HAL_RCC_PWR_CLK_ENABLE();
 8000c5e:	4926      	ldr	r1, [pc, #152]	; (8000cf8 <_Z18SystemClock_Configv+0xb0>)
 8000c60:	9300      	str	r3, [sp, #0]
  RCC_OscInitTypeDef RCC_OscInitStruct = {0};
 8000c62:	930d      	str	r3, [sp, #52]	; 0x34
  RCC_ClkInitTypeDef RCC_ClkInitStruct = {0};
 8000c64:	9306      	str	r3, [sp, #24]
  __HAL_RCC_PWR_CLK_ENABLE();
 8000c66:	6c08      	ldr	r0, [r1, #64]	; 0x40
  __HAL_PWR_VOLTAGESCALING_CONFIG(PWR_REGULATOR_VOLTAGE_SCALE1);
 8000c68:	4a24      	ldr	r2, [pc, #144]	; (8000cfc <_Z18SystemClock_Configv+0xb4>)
  __HAL_RCC_PWR_CLK_ENABLE();
 8000c6a:	f040 5080 	orr.w	r0, r0, #268435456	; 0x10000000
 8000c6e:	6408      	str	r0, [r1, #64]	; 0x40
 8000c70:	6c09      	ldr	r1, [r1, #64]	; 0x40
 8000c72:	f001 5180 	and.w	r1, r1, #268435456	; 0x10000000
 8000c76:	9100      	str	r1, [sp, #0]
 8000c78:	9900      	ldr	r1, [sp, #0]
  __HAL_PWR_VOLTAGESCALING_CONFIG(PWR_REGULATOR_VOLTAGE_SCALE1);
 8000c7a:	9301      	str	r3, [sp, #4]
 8000c7c:	6813      	ldr	r3, [r2, #0]
 8000c7e:	f443 4340 	orr.w	r3, r3, #49152	; 0xc000
 8000c82:	6013      	str	r3, [r2, #0]
 8000c84:	6813      	ldr	r3, [r2, #0]
 8000c86:	f403 4340 	and.w	r3, r3, #49152	; 0xc000

  /** Initializes the RCC Oscillators according to the specified parameters
  * in the RCC_OscInitTypeDef structure.
  */
  RCC_OscInitStruct.OscillatorType = RCC_OSCILLATORTYPE_HSI;
 8000c8a:	2102      	movs	r1, #2
  __HAL_PWR_VOLTAGESCALING_CONFIG(PWR_REGULATOR_VOLTAGE_SCALE1);
 8000c8c:	9301      	str	r3, [sp, #4]
 8000c8e:	9801      	ldr	r0, [sp, #4]
  RCC_OscInitStruct.OscillatorType = RCC_OSCILLATORTYPE_HSI;
 8000c90:	9108      	str	r1, [sp, #32]
  RCC_OscInitStruct.HSIState = RCC_HSI_ON;
  RCC_OscInitStruct.HSICalibrationValue = RCC_HSICALIBRATION_DEFAULT;
  RCC_OscInitStruct.PLL.PLLState = RCC_PLL_ON;
 8000c92:	2002      	movs	r0, #2
 8000c94:	2100      	movs	r1, #0
 8000c96:	e9cd 010e 	strd	r0, r1, [sp, #56]	; 0x38
 8000c9a:	2008      	movs	r0, #8
 8000c9c:	2164      	movs	r1, #100	; 0x64
 8000c9e:	e9cd 0110 	strd	r0, r1, [sp, #64]	; 0x40
 8000ca2:	2002      	movs	r0, #2
 8000ca4:	2104      	movs	r1, #4
 8000ca6:	e9cd 0112 	strd	r0, r1, [sp, #72]	; 0x48
  RCC_OscInitStruct.HSIState = RCC_HSI_ON;
 8000caa:	2201      	movs	r2, #1
  RCC_OscInitStruct.HSICalibrationValue = RCC_HSICALIBRATION_DEFAULT;
 8000cac:	2310      	movs	r3, #16
  RCC_OscInitStruct.PLL.PLLSource = RCC_PLLSOURCE_HSI;
  RCC_OscInitStruct.PLL.PLLM = 8;
  RCC_OscInitStruct.PLL.PLLN = 100;
  RCC_OscInitStruct.PLL.PLLP = RCC_PLLP_DIV2;
  RCC_OscInitStruct.PLL.PLLQ = 4;
  if (HAL_RCC_OscConfig(&RCC_OscInitStruct) != HAL_OK)
 8000cae:	a808      	add	r0, sp, #32
  RCC_OscInitStruct.HSICalibrationValue = RCC_HSICALIBRATION_DEFAULT;
 8000cb0:	e9cd 230b 	strd	r2, r3, [sp, #44]	; 0x2c
  if (HAL_RCC_OscConfig(&RCC_OscInitStruct) != HAL_OK)
 8000cb4:	f003 ff84 	bl	8004bc0 <HAL_RCC_OscConfig>
 8000cb8:	b108      	cbz	r0, 8000cbe <_Z18SystemClock_Configv+0x76>
  \details Disables IRQ interrupts by setting the I-bit in the CPSR.
           Can only be executed in Privileged modes.
 */
__STATIC_FORCEINLINE void __disable_irq(void)
{
  __ASM volatile ("cpsid i" : : : "memory");
 8000cba:	b672      	cpsid	i
void Error_Handler(void)
{
  /* USER CODE BEGIN Error_Handler_Debug */
  /* User can add his own implementation to report the HAL error return state */
  __disable_irq();
  while (1)
 8000cbc:	e7fe      	b.n	8000cbc <_Z18SystemClock_Configv+0x74>
  RCC_ClkInitStruct.ClockType = RCC_CLOCKTYPE_HCLK|RCC_CLOCKTYPE_SYSCLK
 8000cbe:	ed9f 7b0a 	vldr	d7, [pc, #40]	; 8000ce8 <_Z18SystemClock_Configv+0xa0>
 8000cc2:	ed8d 7b02 	vstr	d7, [sp, #8]
 8000cc6:	ed9f 7b0a 	vldr	d7, [pc, #40]	; 8000cf0 <_Z18SystemClock_Configv+0xa8>
 8000cca:	4603      	mov	r3, r0
  if (HAL_RCC_ClockConfig(&RCC_ClkInitStruct, FLASH_LATENCY_3) != HAL_OK)
 8000ccc:	2103      	movs	r1, #3
 8000cce:	a802      	add	r0, sp, #8
  RCC_ClkInitStruct.ClockType = RCC_CLOCKTYPE_HCLK|RCC_CLOCKTYPE_SYSCLK
 8000cd0:	ed8d 7b04 	vstr	d7, [sp, #16]
  RCC_ClkInitStruct.APB2CLKDivider = RCC_HCLK_DIV1;
 8000cd4:	9306      	str	r3, [sp, #24]
  if (HAL_RCC_ClockConfig(&RCC_ClkInitStruct, FLASH_LATENCY_3) != HAL_OK)
 8000cd6:	f004 f98b 	bl	8004ff0 <HAL_RCC_ClockConfig>
 8000cda:	b108      	cbz	r0, 8000ce0 <_Z18SystemClock_Configv+0x98>
 8000cdc:	b672      	cpsid	i
  while (1)
 8000cde:	e7fe      	b.n	8000cde <_Z18SystemClock_Configv+0x96>
}
 8000ce0:	b015      	add	sp, #84	; 0x54
 8000ce2:	f85d fb04 	ldr.w	pc, [sp], #4
 8000ce6:	bf00      	nop
 8000ce8:	0000000f 	.word	0x0000000f
 8000cec:	00000002 	.word	0x00000002
 8000cf0:	00000000 	.word	0x00000000
 8000cf4:	00001000 	.word	0x00001000
 8000cf8:	40023800 	.word	0x40023800
 8000cfc:	40007000 	.word	0x40007000

08000d00 <_Z10Trajectoryv>:
void Trajectory(){
 8000d00:	e92d 43f8 	stmdb	sp!, {r3, r4, r5, r6, r7, r8, r9, lr}
{return _micros + htim11.Instance->CNT;}
 8000d04:	4ba0      	ldr	r3, [pc, #640]	; (8000f88 <_Z10Trajectoryv+0x288>)
 8000d06:	49a1      	ldr	r1, [pc, #644]	; (8000f8c <_Z10Trajectoryv+0x28c>)
 8000d08:	681d      	ldr	r5, [r3, #0]
	if(micros() - TimeStampTraject >= 1000){
 8000d0a:	4ca1      	ldr	r4, [pc, #644]	; (8000f90 <_Z10Trajectoryv+0x290>)
{return _micros + htim11.Instance->CNT;}
 8000d0c:	6a6b      	ldr	r3, [r5, #36]	; 0x24
	if(micros() - TimeStampTraject >= 1000){
 8000d0e:	6820      	ldr	r0, [r4, #0]
{return _micros + htim11.Instance->CNT;}
 8000d10:	e9d1 2100 	ldrd	r2, r1, [r1]
	if(micros() - TimeStampTraject >= 1000){
 8000d14:	1a1b      	subs	r3, r3, r0
 8000d16:	eb60 0000 	sbc.w	r0, r0, r0
 8000d1a:	189b      	adds	r3, r3, r2
 8000d1c:	eb41 0100 	adc.w	r1, r1, r0
 8000d20:	f5b3 7f7a 	cmp.w	r3, #1000	; 0x3e8
 8000d24:	f171 0300 	sbcs.w	r3, r1, #0
void Trajectory(){
 8000d28:	ed2d 8b08 	vpush	{d8-d11}
	if(micros() - TimeStampTraject >= 1000){
 8000d2c:	d369      	bcc.n	8000e02 <_Z10Trajectoryv+0x102>
		if (Finalposition/Velocity > Velocity/Acceleration){
 8000d2e:	4b99      	ldr	r3, [pc, #612]	; (8000f94 <_Z10Trajectoryv+0x294>)
 8000d30:	4999      	ldr	r1, [pc, #612]	; (8000f98 <_Z10Trajectoryv+0x298>)
 8000d32:	ed93 7a00 	vldr	s14, [r3]
 8000d36:	4b99      	ldr	r3, [pc, #612]	; (8000f9c <_Z10Trajectoryv+0x29c>)
 8000d38:	ed91 8a00 	vldr	s16, [r1]
 8000d3c:	ed93 aa00 	vldr	s20, [r3]
{return _micros + htim11.Instance->CNT;}
 8000d40:	6a6b      	ldr	r3, [r5, #36]	; 0x24
		if (Finalposition/Velocity > Velocity/Acceleration){
 8000d42:	eec7 7a08 	vdiv.f32	s15, s14, s16
{return _micros + htim11.Instance->CNT;}
 8000d46:	189b      	adds	r3, r3, r2
		TimeStampTraject = micros();
 8000d48:	6023      	str	r3, [r4, #0]
		if (Finalposition/Velocity > Velocity/Acceleration){
 8000d4a:	eec8 8a0a 	vdiv.f32	s17, s16, s20
 8000d4e:	eef4 7ae8 	vcmpe.f32	s15, s17
 8000d52:	eef1 fa10 	vmrs	APSR_nzcv, fpscr
 8000d56:	dc58      	bgt.n	8000e0a <_Z10Trajectoryv+0x10a>
			Velocity = sqrt(Finalposition/2);
 8000d58:	eef6 7a00 	vmov.f32	s15, #96	; 0x3f000000  0.5
 8000d5c:	ee67 7a27 	vmul.f32	s15, s14, s15
			Tb = sqrt(2*Finalposition);
 8000d60:	ee77 6a07 	vadd.f32	s13, s14, s14
  using ::sqrt;

#ifndef __CORRECT_ISO_CPP_MATH_H_PROTO
  inline _GLIBCXX_CONSTEXPR float
  sqrt(float __x)
  { return __builtin_sqrtf(__x); }
 8000d64:	eeb1 8ae7 	vsqrt.f32	s16, s15
 8000d68:	eef1 8ae6 	vsqrt.f32	s17, s13
			Velocity = sqrt(Finalposition/2);
 8000d6c:	ed81 8a00 	vstr	s16, [r1]
		timeFinal = (4*Velocity) + ((Finalposition-(2*Velocity*Velocity))/Velocity);
 8000d70:	eef0 6a00 	vmov.f32	s13, #0	; 0x40000000  2.0
 8000d74:	eef0 5a47 	vmov.f32	s11, s14
 8000d78:	eee7 5ae6 	vfms.f32	s11, s15, s13
		if (TimeinS < Tb){
 8000d7c:	4e88      	ldr	r6, [pc, #544]	; (8000fa0 <_Z10Trajectoryv+0x2a0>)
 8000d7e:	4a89      	ldr	r2, [pc, #548]	; (8000fa4 <_Z10Trajectoryv+0x2a4>)
 8000d80:	ed96 9a00 	vldr	s18, [r6]
		timeFinal = (4*Velocity) + ((Finalposition-(2*Velocity*Velocity))/Velocity);
 8000d84:	4b88      	ldr	r3, [pc, #544]	; (8000fa8 <_Z10Trajectoryv+0x2a8>)
 8000d86:	edc2 8a00 	vstr	s17, [r2]
 8000d8a:	eec5 7a88 	vdiv.f32	s15, s11, s16
 8000d8e:	eeb1 6a00 	vmov.f32	s12, #16	; 0x40800000  4.0
 8000d92:	eee8 7a06 	vfma.f32	s15, s16, s12
		if (TimeinS < Tb){
 8000d96:	eeb4 9ae8 	vcmpe.f32	s18, s17
 8000d9a:	eef1 fa10 	vmrs	APSR_nzcv, fpscr
		timeFinal = (4*Velocity) + ((Finalposition-(2*Velocity*Velocity))/Velocity);
 8000d9e:	edc3 7a00 	vstr	s15, [r3]
		if (TimeinS < Tb){
 8000da2:	d535      	bpl.n	8000e10 <_Z10Trajectoryv+0x110>
			OutPosition = (0.5*Acceleration*TimeinS*TimeinS);
 8000da4:	ee19 0a10 	vmov	r0, s18
 8000da8:	f7ff fcf8 	bl	800079c <__aeabi_f2d>
 8000dac:	4604      	mov	r4, r0
 8000dae:	460d      	mov	r5, r1
 8000db0:	ee1a 0a10 	vmov	r0, s20
 8000db4:	f7ff fcf2 	bl	800079c <__aeabi_f2d>
 8000db8:	4622      	mov	r2, r4
 8000dba:	462b      	mov	r3, r5
 8000dbc:	f7ff fa60 	bl	8000280 <__aeabi_dmul>
 8000dc0:	4b7a      	ldr	r3, [pc, #488]	; (8000fac <_Z10Trajectoryv+0x2ac>)
 8000dc2:	4f7b      	ldr	r7, [pc, #492]	; (8000fb0 <_Z10Trajectoryv+0x2b0>)
 8000dc4:	2200      	movs	r2, #0
 8000dc6:	f7ff fa5b 	bl	8000280 <__aeabi_dmul>
 8000dca:	4622      	mov	r2, r4
 8000dcc:	462b      	mov	r3, r5
 8000dce:	f7ff fa57 	bl	8000280 <__aeabi_dmul>
 8000dd2:	f7ff fd3b 	bl	800084c <__aeabi_d2f>
			OutVelocity = Acceleration*TimeinS;
 8000dd6:	ee2a 9a09 	vmul.f32	s18, s20, s18
 8000dda:	4b76      	ldr	r3, [pc, #472]	; (8000fb4 <_Z10Trajectoryv+0x2b4>)
			OutAcceleration = Acceleration;
 8000ddc:	4a76      	ldr	r2, [pc, #472]	; (8000fb8 <_Z10Trajectoryv+0x2b8>)
			OutVelocity = Acceleration*TimeinS;
 8000dde:	ed83 9a00 	vstr	s18, [r3]
			ch = 1;
 8000de2:	4b76      	ldr	r3, [pc, #472]	; (8000fbc <_Z10Trajectoryv+0x2bc>)
			OutAcceleration = Acceleration;
 8000de4:	ed82 aa00 	vstr	s20, [r2]
			ch = 1;
 8000de8:	2201      	movs	r2, #1
			OutPosition = (0.5*Acceleration*TimeinS*TimeinS);
 8000dea:	6038      	str	r0, [r7, #0]
			ch = 1;
 8000dec:	701a      	strb	r2, [r3, #0]
		TimeinS = TimeinS + Dt;
 8000dee:	a364      	add	r3, pc, #400	; (adr r3, 8000f80 <_Z10Trajectoryv+0x280>)
 8000df0:	e9d3 2300 	ldrd	r2, r3, [r3]
 8000df4:	4620      	mov	r0, r4
 8000df6:	4629      	mov	r1, r5
 8000df8:	f7ff fb72 	bl	80004e0 <__adddf3>
 8000dfc:	f7ff fd26 	bl	800084c <__aeabi_d2f>
 8000e00:	6030      	str	r0, [r6, #0]
}
 8000e02:	ecbd 8b08 	vpop	{d8-d11}
 8000e06:	e8bd 83f8 	ldmia.w	sp!, {r3, r4, r5, r6, r7, r8, r9, pc}
		timeFinal = (4*Velocity) + ((Finalposition-(2*Velocity*Velocity))/Velocity);
 8000e0a:	ee68 7a08 	vmul.f32	s15, s16, s16
 8000e0e:	e7af      	b.n	8000d70 <_Z10Trajectoryv+0x70>
		else if(TimeinS < (timeFinal-Tb)){
 8000e10:	ee37 6ae8 	vsub.f32	s12, s15, s17
 8000e14:	eeb4 9ac6 	vcmpe.f32	s18, s12
 8000e18:	eef1 fa10 	vmrs	APSR_nzcv, fpscr
 8000e1c:	d414      	bmi.n	8000e48 <_Z10Trajectoryv+0x148>
		else if(((timeFinal-Tb) <= TimeinS) && (TimeinS <= timeFinal)){
 8000e1e:	eef4 7ac9 	vcmpe.f32	s15, s18
 8000e22:	eef1 fa10 	vmrs	APSR_nzcv, fpscr
 8000e26:	da49      	bge.n	8000ebc <_Z10Trajectoryv+0x1bc>
			OutPosition = Finalposition;
 8000e28:	4861      	ldr	r0, [pc, #388]	; (8000fb0 <_Z10Trajectoryv+0x2b0>)
			OutAcceleration = 0;
 8000e2a:	4b63      	ldr	r3, [pc, #396]	; (8000fb8 <_Z10Trajectoryv+0x2b8>)
			ch = 4;
 8000e2c:	4963      	ldr	r1, [pc, #396]	; (8000fbc <_Z10Trajectoryv+0x2bc>)
			OutPosition = Finalposition;
 8000e2e:	ed80 7a00 	vstr	s14, [r0]
			OutAcceleration = 0;
 8000e32:	2200      	movs	r2, #0
			ch = 4;
 8000e34:	2404      	movs	r4, #4
 8000e36:	700c      	strb	r4, [r1, #0]
			OutPosition = (0.5*Acceleration*TimeinS*TimeinS);
 8000e38:	ee19 0a10 	vmov	r0, s18
			OutAcceleration = 0;
 8000e3c:	601a      	str	r2, [r3, #0]
			OutPosition = (0.5*Acceleration*TimeinS*TimeinS);
 8000e3e:	f7ff fcad 	bl	800079c <__aeabi_f2d>
 8000e42:	4604      	mov	r4, r0
 8000e44:	460d      	mov	r5, r1
 8000e46:	e7d2      	b.n	8000dee <_Z10Trajectoryv+0xee>
			OutPosition = (0.5*Acceleration*(Tb*Tb)) + (Velocity*(TimeinS-Tb));
 8000e48:	ee68 7aa8 	vmul.f32	s15, s17, s17
 8000e4c:	ee79 8a68 	vsub.f32	s17, s18, s17
 8000e50:	ee17 0a90 	vmov	r0, s15
 8000e54:	f7ff fca2 	bl	800079c <__aeabi_f2d>
 8000e58:	4604      	mov	r4, r0
 8000e5a:	ee1a 0a10 	vmov	r0, s20
 8000e5e:	460d      	mov	r5, r1
 8000e60:	f7ff fc9c 	bl	800079c <__aeabi_f2d>
 8000e64:	4b51      	ldr	r3, [pc, #324]	; (8000fac <_Z10Trajectoryv+0x2ac>)
 8000e66:	4f52      	ldr	r7, [pc, #328]	; (8000fb0 <_Z10Trajectoryv+0x2b0>)
 8000e68:	2200      	movs	r2, #0
 8000e6a:	f7ff fa09 	bl	8000280 <__aeabi_dmul>
 8000e6e:	4602      	mov	r2, r0
 8000e70:	460b      	mov	r3, r1
 8000e72:	4620      	mov	r0, r4
 8000e74:	4629      	mov	r1, r5
 8000e76:	f7ff fa03 	bl	8000280 <__aeabi_dmul>
 8000e7a:	ee68 7a88 	vmul.f32	s15, s17, s16
 8000e7e:	4604      	mov	r4, r0
 8000e80:	ee17 0a90 	vmov	r0, s15
 8000e84:	460d      	mov	r5, r1
 8000e86:	f7ff fc89 	bl	800079c <__aeabi_f2d>
 8000e8a:	4602      	mov	r2, r0
 8000e8c:	460b      	mov	r3, r1
 8000e8e:	4620      	mov	r0, r4
 8000e90:	4629      	mov	r1, r5
 8000e92:	f7ff fb25 	bl	80004e0 <__adddf3>
 8000e96:	f7ff fcd9 	bl	800084c <__aeabi_d2f>
			OutVelocity = Velocity;
 8000e9a:	4b46      	ldr	r3, [pc, #280]	; (8000fb4 <_Z10Trajectoryv+0x2b4>)
			OutAcceleration = 0;
 8000e9c:	4946      	ldr	r1, [pc, #280]	; (8000fb8 <_Z10Trajectoryv+0x2b8>)
			OutVelocity = Velocity;
 8000e9e:	ed83 8a00 	vstr	s16, [r3]
			ch = 2;
 8000ea2:	4b46      	ldr	r3, [pc, #280]	; (8000fbc <_Z10Trajectoryv+0x2bc>)
			OutPosition = (0.5*Acceleration*(Tb*Tb)) + (Velocity*(TimeinS-Tb));
 8000ea4:	6038      	str	r0, [r7, #0]
			ch = 2;
 8000ea6:	2202      	movs	r2, #2
			OutAcceleration = 0;
 8000ea8:	2000      	movs	r0, #0
 8000eaa:	6008      	str	r0, [r1, #0]
			ch = 2;
 8000eac:	701a      	strb	r2, [r3, #0]
			OutPosition = (0.5*Acceleration*TimeinS*TimeinS);
 8000eae:	ee19 0a10 	vmov	r0, s18
 8000eb2:	f7ff fc73 	bl	800079c <__aeabi_f2d>
 8000eb6:	4604      	mov	r4, r0
 8000eb8:	460d      	mov	r5, r1
 8000eba:	e798      	b.n	8000dee <_Z10Trajectoryv+0xee>
			OutPosition = (0.5*Acceleration*(Tb*Tb))+ (Velocity*(timeFinal-(2*Tb)))  + (Velocity*(TimeinS-(timeFinal-Tb))) - (0.5*Acceleration*((TimeinS-(timeFinal-Tb))*(TimeinS-(timeFinal-Tb))));
 8000ebc:	ee39 ba28 	vadd.f32	s22, s18, s17
 8000ec0:	ee28 7aa8 	vmul.f32	s14, s17, s17
 8000ec4:	ee3b ba67 	vsub.f32	s22, s22, s15
 8000ec8:	eee8 7ae6 	vfms.f32	s15, s17, s13
 8000ecc:	4f38      	ldr	r7, [pc, #224]	; (8000fb0 <_Z10Trajectoryv+0x2b0>)
 8000ece:	ee76 aa49 	vsub.f32	s21, s12, s18
 8000ed2:	ee17 0a10 	vmov	r0, s14
 8000ed6:	eef0 9a67 	vmov.f32	s19, s15
 8000eda:	f7ff fc5f 	bl	800079c <__aeabi_f2d>
 8000ede:	ee6b 7a2a 	vmul.f32	s15, s22, s21
 8000ee2:	4604      	mov	r4, r0
 8000ee4:	ee17 0a90 	vmov	r0, s15
 8000ee8:	460d      	mov	r5, r1
 8000eea:	f7ff fc57 	bl	800079c <__aeabi_f2d>
 8000eee:	4602      	mov	r2, r0
 8000ef0:	460b      	mov	r3, r1
 8000ef2:	4620      	mov	r0, r4
 8000ef4:	4629      	mov	r1, r5
 8000ef6:	f7ff faf3 	bl	80004e0 <__adddf3>
 8000efa:	4604      	mov	r4, r0
 8000efc:	ee1a 0a10 	vmov	r0, s20
 8000f00:	460d      	mov	r5, r1
 8000f02:	f7ff fc4b 	bl	800079c <__aeabi_f2d>
 8000f06:	4b29      	ldr	r3, [pc, #164]	; (8000fac <_Z10Trajectoryv+0x2ac>)
 8000f08:	2200      	movs	r2, #0
 8000f0a:	f7ff f9b9 	bl	8000280 <__aeabi_dmul>
 8000f0e:	4602      	mov	r2, r0
 8000f10:	460b      	mov	r3, r1
 8000f12:	4620      	mov	r0, r4
 8000f14:	4629      	mov	r1, r5
 8000f16:	f7ff f9b3 	bl	8000280 <__aeabi_dmul>
 8000f1a:	ee69 7a88 	vmul.f32	s15, s19, s16
 8000f1e:	4604      	mov	r4, r0
 8000f20:	ee17 0a90 	vmov	r0, s15
 8000f24:	460d      	mov	r5, r1
 8000f26:	f7ff fc39 	bl	800079c <__aeabi_f2d>
 8000f2a:	ee6b 7a08 	vmul.f32	s15, s22, s16
 8000f2e:	4680      	mov	r8, r0
 8000f30:	ee17 0a90 	vmov	r0, s15
 8000f34:	4689      	mov	r9, r1
 8000f36:	f7ff fc31 	bl	800079c <__aeabi_f2d>
 8000f3a:	4602      	mov	r2, r0
 8000f3c:	460b      	mov	r3, r1
 8000f3e:	4640      	mov	r0, r8
 8000f40:	4649      	mov	r1, r9
 8000f42:	f7ff facd 	bl	80004e0 <__adddf3>
			OutVelocity = Velocity-(Acceleration*(TimeinS-(timeFinal-Tb)));
 8000f46:	eeaa 8a2a 	vfma.f32	s16, s20, s21
			OutPosition = (0.5*Acceleration*(Tb*Tb))+ (Velocity*(timeFinal-(2*Tb)))  + (Velocity*(TimeinS-(timeFinal-Tb))) - (0.5*Acceleration*((TimeinS-(timeFinal-Tb))*(TimeinS-(timeFinal-Tb))));
 8000f4a:	4602      	mov	r2, r0
 8000f4c:	460b      	mov	r3, r1
 8000f4e:	4620      	mov	r0, r4
 8000f50:	4629      	mov	r1, r5
 8000f52:	f7ff fac5 	bl	80004e0 <__adddf3>
 8000f56:	f7ff fc79 	bl	800084c <__aeabi_d2f>
			OutVelocity = Velocity-(Acceleration*(TimeinS-(timeFinal-Tb)));
 8000f5a:	4b16      	ldr	r3, [pc, #88]	; (8000fb4 <_Z10Trajectoryv+0x2b4>)
			OutAcceleration = -Acceleration;
 8000f5c:	4916      	ldr	r1, [pc, #88]	; (8000fb8 <_Z10Trajectoryv+0x2b8>)
			OutVelocity = Velocity-(Acceleration*(TimeinS-(timeFinal-Tb)));
 8000f5e:	ed83 8a00 	vstr	s16, [r3]
			ch = 3;
 8000f62:	4b16      	ldr	r3, [pc, #88]	; (8000fbc <_Z10Trajectoryv+0x2bc>)
			OutPosition = (0.5*Acceleration*(Tb*Tb))+ (Velocity*(timeFinal-(2*Tb)))  + (Velocity*(TimeinS-(timeFinal-Tb))) - (0.5*Acceleration*((TimeinS-(timeFinal-Tb))*(TimeinS-(timeFinal-Tb))));
 8000f64:	6038      	str	r0, [r7, #0]
			ch = 3;
 8000f66:	2203      	movs	r2, #3
			OutAcceleration = -Acceleration;
 8000f68:	eeb1 aa4a 	vneg.f32	s20, s20
			OutPosition = (0.5*Acceleration*TimeinS*TimeinS);
 8000f6c:	ee19 0a10 	vmov	r0, s18
			OutAcceleration = -Acceleration;
 8000f70:	ed81 aa00 	vstr	s20, [r1]
			ch = 3;
 8000f74:	701a      	strb	r2, [r3, #0]
			OutPosition = (0.5*Acceleration*TimeinS*TimeinS);
 8000f76:	f7ff fc11 	bl	800079c <__aeabi_f2d>
 8000f7a:	4604      	mov	r4, r0
 8000f7c:	460d      	mov	r5, r1
			ch = 3;
 8000f7e:	e736      	b.n	8000dee <_Z10Trajectoryv+0xee>
 8000f80:	d2f1a9fc 	.word	0xd2f1a9fc
 8000f84:	3f50624d 	.word	0x3f50624d
 8000f88:	20000408 	.word	0x20000408
 8000f8c:	20000300 	.word	0x20000300
 8000f90:	200002d0 	.word	0x200002d0
 8000f94:	20000004 	.word	0x20000004
 8000f98:	20000020 	.word	0x20000020
 8000f9c:	20000000 	.word	0x20000000
 8000fa0:	200002dc 	.word	0x200002dc
 8000fa4:	200002b8 	.word	0x200002b8
 8000fa8:	20000580 	.word	0x20000580
 8000fac:	3fe00000 	.word	0x3fe00000
 8000fb0:	20000230 	.word	0x20000230
 8000fb4:	20000238 	.word	0x20000238
 8000fb8:	2000022c 	.word	0x2000022c
 8000fbc:	2000034c 	.word	0x2000034c

08000fc0 <_Z10Unwrappingv>:
void Unwrapping(){
 8000fc0:	b538      	push	{r3, r4, r5, lr}
{return _micros + htim11.Instance->CNT;}
 8000fc2:	4b33      	ldr	r3, [pc, #204]	; (8001090 <_Z10Unwrappingv+0xd0>)
 8000fc4:	4933      	ldr	r1, [pc, #204]	; (8001094 <_Z10Unwrappingv+0xd4>)
 8000fc6:	681d      	ldr	r5, [r3, #0]
	if(micros() - TimeUnwrap >= 1000){
 8000fc8:	4c33      	ldr	r4, [pc, #204]	; (8001098 <_Z10Unwrappingv+0xd8>)
{return _micros + htim11.Instance->CNT;}
 8000fca:	6a6b      	ldr	r3, [r5, #36]	; 0x24
	if(micros() - TimeUnwrap >= 1000){
 8000fcc:	6820      	ldr	r0, [r4, #0]
{return _micros + htim11.Instance->CNT;}
 8000fce:	e9d1 2100 	ldrd	r2, r1, [r1]
	if(micros() - TimeUnwrap >= 1000){
 8000fd2:	1a1b      	subs	r3, r3, r0
 8000fd4:	eb60 0000 	sbc.w	r0, r0, r0
 8000fd8:	189b      	adds	r3, r3, r2
 8000fda:	eb41 0100 	adc.w	r1, r1, r0
 8000fde:	f5b3 7f7a 	cmp.w	r3, #1000	; 0x3e8
 8000fe2:	f171 0300 	sbcs.w	r3, r1, #0
 8000fe6:	d337      	bcc.n	8001058 <_Z10Unwrappingv+0x98>
		Pn=BinPosXI*0.006136;
 8000fe8:	492c      	ldr	r1, [pc, #176]	; (800109c <_Z10Unwrappingv+0xdc>)
{return _micros + htim11.Instance->CNT;}
 8000fea:	6a6b      	ldr	r3, [r5, #36]	; 0x24
		Pn=BinPosXI*0.006136;
 8000fec:	8808      	ldrh	r0, [r1, #0]
{return _micros + htim11.Instance->CNT;}
 8000fee:	189b      	adds	r3, r3, r2
		TimeUnwrap = micros();
 8000ff0:	6023      	str	r3, [r4, #0]
		Pn=BinPosXI*0.006136;
 8000ff2:	f7ff fbc1 	bl	8000778 <__aeabi_i2d>
 8000ff6:	a324      	add	r3, pc, #144	; (adr r3, 8001088 <_Z10Unwrappingv+0xc8>)
 8000ff8:	e9d3 2300 	ldrd	r2, r3, [r3]
 8000ffc:	f7ff f940 	bl	8000280 <__aeabi_dmul>
 8001000:	f7ff fc24 	bl	800084c <__aeabi_d2f>
		if(Pn-P_n <= -1*e){
 8001004:	4a26      	ldr	r2, [pc, #152]	; (80010a0 <_Z10Unwrappingv+0xe0>)
 8001006:	4b27      	ldr	r3, [pc, #156]	; (80010a4 <_Z10Unwrappingv+0xe4>)
 8001008:	ed92 7a00 	vldr	s14, [r2]
 800100c:	edd3 6a00 	vldr	s13, [r3]
		Pn=BinPosXI*0.006136;
 8001010:	4b25      	ldr	r3, [pc, #148]	; (80010a8 <_Z10Unwrappingv+0xe8>)
 8001012:	ee07 0a90 	vmov	s15, r0
		if(Pn-P_n <= -1*e){
 8001016:	ee37 7ac7 	vsub.f32	s14, s15, s14
 800101a:	eeb1 6a66 	vneg.f32	s12, s13
 800101e:	eeb4 7ac6 	vcmpe.f32	s14, s12
 8001022:	eef1 fa10 	vmrs	APSR_nzcv, fpscr
		Pn=BinPosXI*0.006136;
 8001026:	6018      	str	r0, [r3, #0]
		if(Pn-P_n <= -1*e){
 8001028:	d817      	bhi.n	800105a <_Z10Unwrappingv+0x9a>
			P0=P_0+P_max;
 800102a:	4920      	ldr	r1, [pc, #128]	; (80010ac <_Z10Unwrappingv+0xec>)
 800102c:	4b20      	ldr	r3, [pc, #128]	; (80010b0 <_Z10Unwrappingv+0xf0>)
 800102e:	edd1 6a00 	vldr	s13, [r1]
 8001032:	ed93 7a00 	vldr	s14, [r3]
 8001036:	491f      	ldr	r1, [pc, #124]	; (80010b4 <_Z10Unwrappingv+0xf4>)
 8001038:	ee37 7a26 	vadd.f32	s14, s14, s13
 800103c:	ed81 7a00 	vstr	s14, [r1]
		OutUnwrap=Pn+P0;
 8001040:	481d      	ldr	r0, [pc, #116]	; (80010b8 <_Z10Unwrappingv+0xf8>)
		CurrentEn=BinPosXI*0.006136;
 8001042:	491e      	ldr	r1, [pc, #120]	; (80010bc <_Z10Unwrappingv+0xfc>)
		P_n=Pn;
 8001044:	edc2 7a00 	vstr	s15, [r2]
		OutUnwrap=Pn+P0;
 8001048:	ee77 6a87 	vadd.f32	s13, s15, s14
		CurrentEn=BinPosXI*0.006136;
 800104c:	edc1 7a00 	vstr	s15, [r1]
		OutUnwrap=Pn+P0;
 8001050:	edc0 6a00 	vstr	s13, [r0]
		P_0=P0;
 8001054:	ed83 7a00 	vstr	s14, [r3]
}
 8001058:	bd38      	pop	{r3, r4, r5, pc}
		else if(Pn-P_n >= e){
 800105a:	eeb4 7ae6 	vcmpe.f32	s14, s13
 800105e:	eef1 fa10 	vmrs	APSR_nzcv, fpscr
			P0=P_0-P_max;
 8001062:	4b13      	ldr	r3, [pc, #76]	; (80010b0 <_Z10Unwrappingv+0xf0>)
		else if(Pn-P_n >= e){
 8001064:	db0a      	blt.n	800107c <_Z10Unwrappingv+0xbc>
			P0=P_0-P_max;
 8001066:	4911      	ldr	r1, [pc, #68]	; (80010ac <_Z10Unwrappingv+0xec>)
 8001068:	ed93 7a00 	vldr	s14, [r3]
 800106c:	edd1 6a00 	vldr	s13, [r1]
 8001070:	4910      	ldr	r1, [pc, #64]	; (80010b4 <_Z10Unwrappingv+0xf4>)
 8001072:	ee37 7a66 	vsub.f32	s14, s14, s13
 8001076:	ed81 7a00 	vstr	s14, [r1]
 800107a:	e7e1      	b.n	8001040 <_Z10Unwrappingv+0x80>
			P0=P_0;
 800107c:	490d      	ldr	r1, [pc, #52]	; (80010b4 <_Z10Unwrappingv+0xf4>)
 800107e:	ed93 7a00 	vldr	s14, [r3]
 8001082:	ed81 7a00 	vstr	s14, [r1]
 8001086:	e7db      	b.n	8001040 <_Z10Unwrappingv+0x80>
 8001088:	f540895d 	.word	0xf540895d
 800108c:	3f79220f 	.word	0x3f79220f
 8001090:	20000408 	.word	0x20000408
 8001094:	20000300 	.word	0x20000300
 8001098:	200002d8 	.word	0x200002d8
 800109c:	200000fc 	.word	0x200000fc
 80010a0:	20000268 	.word	0x20000268
 80010a4:	2000003c 	.word	0x2000003c
 80010a8:	2000026c 	.word	0x2000026c
 80010ac:	20000014 	.word	0x20000014
 80010b0:	20000264 	.word	0x20000264
 80010b4:	20000260 	.word	0x20000260
 80010b8:	20000234 	.word	0x20000234
 80010bc:	2000010c 	.word	0x2000010c

080010c0 <_Z11PIDPositionv>:
{return _micros + htim11.Instance->CNT;}
 80010c0:	4b27      	ldr	r3, [pc, #156]	; (8001160 <_Z11PIDPositionv+0xa0>)
 80010c2:	4928      	ldr	r1, [pc, #160]	; (8001164 <_Z11PIDPositionv+0xa4>)
void PIDPosition(){
 80010c4:	b430      	push	{r4, r5}
{return _micros + htim11.Instance->CNT;}
 80010c6:	681d      	ldr	r5, [r3, #0]
	if(micros() - TimeStampPID_P >= 1000){
 80010c8:	4c27      	ldr	r4, [pc, #156]	; (8001168 <_Z11PIDPositionv+0xa8>)
{return _micros + htim11.Instance->CNT;}
 80010ca:	6a6b      	ldr	r3, [r5, #36]	; 0x24
	if(micros() - TimeStampPID_P >= 1000){
 80010cc:	6820      	ldr	r0, [r4, #0]
{return _micros + htim11.Instance->CNT;}
 80010ce:	e9d1 2100 	ldrd	r2, r1, [r1]
	if(micros() - TimeStampPID_P >= 1000){
 80010d2:	1a1b      	subs	r3, r3, r0
 80010d4:	eb60 0000 	sbc.w	r0, r0, r0
 80010d8:	189b      	adds	r3, r3, r2
 80010da:	eb41 0100 	adc.w	r1, r1, r0
 80010de:	f5b3 7f7a 	cmp.w	r3, #1000	; 0x3e8
 80010e2:	f171 0300 	sbcs.w	r3, r1, #0
 80010e6:	d339      	bcc.n	800115c <_Z11PIDPositionv+0x9c>
		ErrPos[0] = OutPosition - KalP;
 80010e8:	4920      	ldr	r1, [pc, #128]	; (800116c <_Z11PIDPositionv+0xac>)
 80010ea:	4b21      	ldr	r3, [pc, #132]	; (8001170 <_Z11PIDPositionv+0xb0>)
 80010ec:	ed91 7a00 	vldr	s14, [r1]
 80010f0:	edd3 6a00 	vldr	s13, [r3]
 80010f4:	491f      	ldr	r1, [pc, #124]	; (8001174 <_Z11PIDPositionv+0xb4>)
		Derivate = K_D * (ErrPos[0]-ErrPos[1]); // d/dt position
 80010f6:	4b20      	ldr	r3, [pc, #128]	; (8001178 <_Z11PIDPositionv+0xb8>)
 80010f8:	edd1 7a01 	vldr	s15, [r1, #4]
 80010fc:	481f      	ldr	r0, [pc, #124]	; (800117c <_Z11PIDPositionv+0xbc>)
		ErrPos[0] = OutPosition - KalP;
 80010fe:	ee37 7a66 	vsub.f32	s14, s14, s13
		Derivate = K_D * (ErrPos[0]-ErrPos[1]); // d/dt position
 8001102:	edd3 6a00 	vldr	s13, [r3]
{return _micros + htim11.Instance->CNT;}
 8001106:	6a6b      	ldr	r3, [r5, #36]	; 0x24
		ErrPos[0] = OutPosition - KalP;
 8001108:	ed81 7a00 	vstr	s14, [r1]
{return _micros + htim11.Instance->CNT;}
 800110c:	189b      	adds	r3, r3, r2
		Derivate = K_D * (ErrPos[0]-ErrPos[1]); // d/dt position
 800110e:	ee77 7a67 	vsub.f32	s15, s14, s15
		sumError = sumError + ErrPos[0];
 8001112:	4a1b      	ldr	r2, [pc, #108]	; (8001180 <_Z11PIDPositionv+0xc0>)
		TimeStampPID_P = micros();
 8001114:	6023      	str	r3, [r4, #0]
		Derivate = K_D * (ErrPos[0]-ErrPos[1]); // d/dt position
 8001116:	ee67 7aa6 	vmul.f32	s15, s15, s13
		Integral = K_I * sumError; // Integral -Newton-Leibniz
 800111a:	4b1a      	ldr	r3, [pc, #104]	; (8001184 <_Z11PIDPositionv+0xc4>)
		sumError = sumError + ErrPos[0];
 800111c:	edd2 6a00 	vldr	s13, [r2]
		Derivate = K_D * (ErrPos[0]-ErrPos[1]); // d/dt position
 8001120:	edc0 7a00 	vstr	s15, [r0]
		Integral = K_I * sumError; // Integral -Newton-Leibniz
 8001124:	edd3 5a00 	vldr	s11, [r3]
		Propo = K_P * ErrPos[0];
 8001128:	4817      	ldr	r0, [pc, #92]	; (8001188 <_Z11PIDPositionv+0xc8>)
		ufromposit = Propo + Integral + Derivate;
 800112a:	4b18      	ldr	r3, [pc, #96]	; (800118c <_Z11PIDPositionv+0xcc>)
		Propo = K_P * ErrPos[0];
 800112c:	ed90 6a00 	vldr	s12, [r0]
 8001130:	4817      	ldr	r0, [pc, #92]	; (8001190 <_Z11PIDPositionv+0xd0>)
		ErrPos[1] = ErrPos[0]; // log previous error
 8001132:	ed81 7a01 	vstr	s14, [r1, #4]
		sumError = sumError + ErrPos[0];
 8001136:	ee77 6a26 	vadd.f32	s13, s14, s13
		Propo = K_P * ErrPos[0];
 800113a:	ee27 6a06 	vmul.f32	s12, s14, s12
		sumError = sumError + ErrPos[0];
 800113e:	edc2 6a00 	vstr	s13, [r2]
		Integral = K_I * sumError; // Integral -Newton-Leibniz
 8001142:	ee66 6aa5 	vmul.f32	s13, s13, s11
 8001146:	4a13      	ldr	r2, [pc, #76]	; (8001194 <_Z11PIDPositionv+0xd4>)
		Propo = K_P * ErrPos[0];
 8001148:	ed80 6a00 	vstr	s12, [r0]
		ufromposit = Propo + Integral + Derivate;
 800114c:	ee76 7aa7 	vadd.f32	s15, s13, s15
		Integral = K_I * sumError; // Integral -Newton-Leibniz
 8001150:	edc2 6a00 	vstr	s13, [r2]
		ufromposit = Propo + Integral + Derivate;
 8001154:	ee77 7a86 	vadd.f32	s15, s15, s12
 8001158:	edc3 7a00 	vstr	s15, [r3]
}
 800115c:	bc30      	pop	{r4, r5}
 800115e:	4770      	bx	lr
 8001160:	20000408 	.word	0x20000408
 8001164:	20000300 	.word	0x20000300
 8001168:	200002c8 	.word	0x200002c8
 800116c:	20000230 	.word	0x20000230
 8001170:	200001fc 	.word	0x200001fc
 8001174:	20000194 	.word	0x20000194
 8001178:	200001ec 	.word	0x200001ec
 800117c:	20000114 	.word	0x20000114
 8001180:	2000057c 	.word	0x2000057c
 8001184:	200001f0 	.word	0x200001f0
 8001188:	200001f4 	.word	0x200001f4
 800118c:	2000059c 	.word	0x2000059c
 8001190:	20000278 	.word	0x20000278
 8001194:	200001dc 	.word	0x200001dc

08001198 <_Z11PIDVelocityv>:
{return _micros + htim11.Instance->CNT;}
 8001198:	4b23      	ldr	r3, [pc, #140]	; (8001228 <_Z11PIDVelocityv+0x90>)
 800119a:	4924      	ldr	r1, [pc, #144]	; (800122c <_Z11PIDVelocityv+0x94>)
void PIDVelocity(){
 800119c:	b430      	push	{r4, r5}
{return _micros + htim11.Instance->CNT;}
 800119e:	681d      	ldr	r5, [r3, #0]
	if(micros() - TimeStampPID_V >= 1000){
 80011a0:	4c23      	ldr	r4, [pc, #140]	; (8001230 <_Z11PIDVelocityv+0x98>)
{return _micros + htim11.Instance->CNT;}
 80011a2:	6a6b      	ldr	r3, [r5, #36]	; 0x24
	if(micros() - TimeStampPID_V >= 1000){
 80011a4:	6820      	ldr	r0, [r4, #0]
{return _micros + htim11.Instance->CNT;}
 80011a6:	e9d1 2100 	ldrd	r2, r1, [r1]
	if(micros() - TimeStampPID_V >= 1000){
 80011aa:	1a1b      	subs	r3, r3, r0
 80011ac:	eb60 0000 	sbc.w	r0, r0, r0
 80011b0:	189b      	adds	r3, r3, r2
 80011b2:	eb41 0100 	adc.w	r1, r1, r0
 80011b6:	f5b3 7f7a 	cmp.w	r3, #1000	; 0x3e8
 80011ba:	f171 0300 	sbcs.w	r3, r1, #0
 80011be:	d331      	bcc.n	8001224 <_Z11PIDVelocityv+0x8c>
		ErrVelo[0] = OutVelocity + ufromposit - KalV;
 80011c0:	491c      	ldr	r1, [pc, #112]	; (8001234 <_Z11PIDVelocityv+0x9c>)
 80011c2:	4b1d      	ldr	r3, [pc, #116]	; (8001238 <_Z11PIDVelocityv+0xa0>)
 80011c4:	ed91 7a00 	vldr	s14, [r1]
 80011c8:	edd3 7a00 	vldr	s15, [r3]
 80011cc:	4b1b      	ldr	r3, [pc, #108]	; (800123c <_Z11PIDVelocityv+0xa4>)
 80011ce:	491c      	ldr	r1, [pc, #112]	; (8001240 <_Z11PIDVelocityv+0xa8>)
		SumAll = SumAll + ErrVelo[0];
 80011d0:	481c      	ldr	r0, [pc, #112]	; (8001244 <_Z11PIDVelocityv+0xac>)
		ErrVelo[0] = OutVelocity + ufromposit - KalV;
 80011d2:	ee37 7a27 	vadd.f32	s14, s14, s15
 80011d6:	edd3 7a00 	vldr	s15, [r3]
{return _micros + htim11.Instance->CNT;}
 80011da:	6a6b      	ldr	r3, [r5, #36]	; 0x24
		SumAll = SumAll + ErrVelo[0];
 80011dc:	edd0 6a00 	vldr	s13, [r0]
		ErrVelo[0] = OutVelocity + ufromposit - KalV;
 80011e0:	ee37 7a67 	vsub.f32	s14, s14, s15
		u_contr = (K_P_V * ErrVelo[0])+(K_I_V * SumAll)+(K_D * (ErrVelo[0]-ErrVelo[1])) ;
 80011e4:	edd1 7a01 	vldr	s15, [r1, #4]
		ErrVelo[0] = OutVelocity + ufromposit - KalV;
 80011e8:	ed81 7a00 	vstr	s14, [r1]
		ErrVelo[1] = ErrVelo[0]; // log previous error
 80011ec:	ed81 7a01 	vstr	s14, [r1, #4]
		u_contr = (K_P_V * ErrVelo[0])+(K_I_V * SumAll)+(K_D * (ErrVelo[0]-ErrVelo[1])) ;
 80011f0:	4915      	ldr	r1, [pc, #84]	; (8001248 <_Z11PIDVelocityv+0xb0>)
{return _micros + htim11.Instance->CNT;}
 80011f2:	189b      	adds	r3, r3, r2
		u_contr = (K_P_V * ErrVelo[0])+(K_I_V * SumAll)+(K_D * (ErrVelo[0]-ErrVelo[1])) ;
 80011f4:	ee77 7a67 	vsub.f32	s15, s14, s15
 80011f8:	4a14      	ldr	r2, [pc, #80]	; (800124c <_Z11PIDVelocityv+0xb4>)
 80011fa:	edd1 5a00 	vldr	s11, [r1]
 80011fe:	ed92 6a00 	vldr	s12, [r2]
 8001202:	4a13      	ldr	r2, [pc, #76]	; (8001250 <_Z11PIDVelocityv+0xb8>)
		TimeStampPID_V = micros();
 8001204:	6023      	str	r3, [r4, #0]
		SumAll = SumAll + ErrVelo[0];
 8001206:	ee77 6a26 	vadd.f32	s13, s14, s13
		u_contr = (K_P_V * ErrVelo[0])+(K_I_V * SumAll)+(K_D * (ErrVelo[0]-ErrVelo[1])) ;
 800120a:	ee67 7aa5 	vmul.f32	s15, s15, s11
 800120e:	4b11      	ldr	r3, [pc, #68]	; (8001254 <_Z11PIDVelocityv+0xbc>)
		SumAll = SumAll + ErrVelo[0];
 8001210:	edc0 6a00 	vstr	s13, [r0]
		u_contr = (K_P_V * ErrVelo[0])+(K_I_V * SumAll)+(K_D * (ErrVelo[0]-ErrVelo[1])) ;
 8001214:	eee6 7a86 	vfma.f32	s15, s13, s12
 8001218:	ed92 6a00 	vldr	s12, [r2]
 800121c:	eee7 7a06 	vfma.f32	s15, s14, s12
 8001220:	edc3 7a00 	vstr	s15, [r3]
}
 8001224:	bc30      	pop	{r4, r5}
 8001226:	4770      	bx	lr
 8001228:	20000408 	.word	0x20000408
 800122c:	20000300 	.word	0x20000300
 8001230:	200002cc 	.word	0x200002cc
 8001234:	20000238 	.word	0x20000238
 8001238:	2000059c 	.word	0x2000059c
 800123c:	20000200 	.word	0x20000200
 8001240:	2000019c 	.word	0x2000019c
 8001244:	200002b4 	.word	0x200002b4
 8001248:	200001ec 	.word	0x200001ec
 800124c:	20000008 	.word	0x20000008
 8001250:	2000000c 	.word	0x2000000c
 8001254:	20000598 	.word	0x20000598

08001258 <_Z12MotDrvCytronv>:
{return _micros + htim11.Instance->CNT;}
 8001258:	4b2b      	ldr	r3, [pc, #172]	; (8001308 <_Z12MotDrvCytronv+0xb0>)
 800125a:	492c      	ldr	r1, [pc, #176]	; (800130c <_Z12MotDrvCytronv+0xb4>)
void MotDrvCytron(){
 800125c:	b570      	push	{r4, r5, r6, lr}
{return _micros + htim11.Instance->CNT;}
 800125e:	681e      	ldr	r6, [r3, #0]
	if(micros() - TimeDrive >= 1000){
 8001260:	4d2b      	ldr	r5, [pc, #172]	; (8001310 <_Z12MotDrvCytronv+0xb8>)
{return _micros + htim11.Instance->CNT;}
 8001262:	6a73      	ldr	r3, [r6, #36]	; 0x24
	if(micros() - TimeDrive >= 1000){
 8001264:	6828      	ldr	r0, [r5, #0]
{return _micros + htim11.Instance->CNT;}
 8001266:	680a      	ldr	r2, [r1, #0]
 8001268:	6849      	ldr	r1, [r1, #4]
	if(micros() - TimeDrive >= 1000){
 800126a:	1a1b      	subs	r3, r3, r0
 800126c:	eb60 0000 	sbc.w	r0, r0, r0
 8001270:	189b      	adds	r3, r3, r2
 8001272:	eb41 0100 	adc.w	r1, r1, r0
 8001276:	f5b3 7f7a 	cmp.w	r3, #1000	; 0x3e8
 800127a:	f171 0300 	sbcs.w	r3, r1, #0
 800127e:	d32b      	bcc.n	80012d8 <_Z12MotDrvCytronv+0x80>
{return _micros + htim11.Instance->CNT;}
 8001280:	6a73      	ldr	r3, [r6, #36]	; 0x24
		u_contr = u_contr*833.3;
 8001282:	4e24      	ldr	r6, [pc, #144]	; (8001314 <_Z12MotDrvCytronv+0xbc>)
{return _micros + htim11.Instance->CNT;}
 8001284:	189b      	adds	r3, r3, r2
		u_contr = u_contr*833.3;
 8001286:	6830      	ldr	r0, [r6, #0]
		TimeDrive = micros();
 8001288:	602b      	str	r3, [r5, #0]
		u_contr = u_contr*833.3;
 800128a:	f7ff fa87 	bl	800079c <__aeabi_f2d>
 800128e:	a31c      	add	r3, pc, #112	; (adr r3, 8001300 <_Z12MotDrvCytronv+0xa8>)
 8001290:	e9d3 2300 	ldrd	r2, r3, [r3]
 8001294:	f7fe fff4 	bl	8000280 <__aeabi_dmul>
 8001298:	f7ff fad8 	bl	800084c <__aeabi_d2f>
 800129c:	ee07 0a90 	vmov	s15, r0
		if(u_contr < 0){
 80012a0:	eef5 7ac0 	vcmpe.f32	s15, #0.0
 80012a4:	eef1 fa10 	vmrs	APSR_nzcv, fpscr
		u_contr = u_contr*833.3;
 80012a8:	6030      	str	r0, [r6, #0]
		if(u_contr < 0){
 80012aa:	d404      	bmi.n	80012b6 <_Z12MotDrvCytronv+0x5e>
		else if(u_contr > 0) {
 80012ac:	dd06      	ble.n	80012bc <_Z12MotDrvCytronv+0x64>
			mot_dirctn = 0;
 80012ae:	4b1a      	ldr	r3, [pc, #104]	; (8001318 <_Z12MotDrvCytronv+0xc0>)
 80012b0:	2400      	movs	r4, #0
 80012b2:	701c      	strb	r4, [r3, #0]
 80012b4:	e002      	b.n	80012bc <_Z12MotDrvCytronv+0x64>
			mot_dirctn= 1;
 80012b6:	4b18      	ldr	r3, [pc, #96]	; (8001318 <_Z12MotDrvCytronv+0xc0>)
 80012b8:	2201      	movs	r2, #1
 80012ba:	701a      	strb	r2, [r3, #0]
		PWMOut= (int)fabsf(u_contr); // Absolute int
 80012bc:	eef0 7ae7 	vabs.f32	s15, s15
 80012c0:	eefd 7ae7 	vcvt.s32.f32	s15, s15
 80012c4:	4a15      	ldr	r2, [pc, #84]	; (800131c <_Z12MotDrvCytronv+0xc4>)
 80012c6:	ee17 3a90 	vmov	r3, s15
		if(PWMOut> 5000){
 80012ca:	f241 3188 	movw	r1, #5000	; 0x1388
		PWMOut= (int)fabsf(u_contr); // Absolute int
 80012ce:	b29b      	uxth	r3, r3
		if(PWMOut> 5000){
 80012d0:	428b      	cmp	r3, r1
		PWMOut= (int)fabsf(u_contr); // Absolute int
 80012d2:	8013      	strh	r3, [r2, #0]
		if(PWMOut> 5000){
 80012d4:	d901      	bls.n	80012da <_Z12MotDrvCytronv+0x82>
			PWMOut = 5000; // saturate 50% gear 1:6 - 120rpm => 10rpm
 80012d6:	8011      	strh	r1, [r2, #0]
}
 80012d8:	bd70      	pop	{r4, r5, r6, pc}
		if(PWMOut < 1600 && fabsf(ErrPos[0]) >= 4){
 80012da:	f5b3 6fc8 	cmp.w	r3, #1600	; 0x640
 80012de:	d2fb      	bcs.n	80012d8 <_Z12MotDrvCytronv+0x80>
 80012e0:	4b0f      	ldr	r3, [pc, #60]	; (8001320 <_Z12MotDrvCytronv+0xc8>)
 80012e2:	edd3 7a00 	vldr	s15, [r3]
 80012e6:	eeb1 7a00 	vmov.f32	s14, #16	; 0x40800000  4.0
 80012ea:	eef0 7ae7 	vabs.f32	s15, s15
 80012ee:	eef4 7ac7 	vcmpe.f32	s15, s14
 80012f2:	eef1 fa10 	vmrs	APSR_nzcv, fpscr
			PWMOut = 1600;  //pvnt too low pwm that can't drive mot
 80012f6:	bfa4      	itt	ge
 80012f8:	f44f 63c8 	movge.w	r3, #1600	; 0x640
 80012fc:	8013      	strhge	r3, [r2, #0]
}
 80012fe:	bd70      	pop	{r4, r5, r6, pc}
 8001300:	66666666 	.word	0x66666666
 8001304:	408a0a66 	.word	0x408a0a66
 8001308:	20000408 	.word	0x20000408
 800130c:	20000300 	.word	0x20000300
 8001310:	200002bc 	.word	0x200002bc
 8001314:	20000598 	.word	0x20000598
 8001318:	20000524 	.word	0x20000524
 800131c:	20000010 	.word	0x20000010
 8001320:	20000194 	.word	0x20000194

08001324 <HAL_GPIO_EXTI_Callback>:
	if(GPIO_Pin == GPIO_PIN_11){
 8001324:	f5b0 6f00 	cmp.w	r0, #2048	; 0x800
void HAL_GPIO_EXTI_Callback(uint16_t GPIO_Pin){
 8001328:	b510      	push	{r4, lr}
	if(GPIO_Pin == GPIO_PIN_11){
 800132a:	d01c      	beq.n	8001366 <HAL_GPIO_EXTI_Callback+0x42>
	if(GPIO_Pin == GPIO_PIN_10){
 800132c:	f5b0 6f80 	cmp.w	r0, #1024	; 0x400
 8001330:	d007      	beq.n	8001342 <HAL_GPIO_EXTI_Callback+0x1e>
	if(GPIO_Pin == GPIO_PIN_13){
 8001332:	f5b0 5f00 	cmp.w	r0, #8192	; 0x2000
 8001336:	d110      	bne.n	800135a <HAL_GPIO_EXTI_Callback+0x36>
		bluecounter++;
 8001338:	4a14      	ldr	r2, [pc, #80]	; (800138c <HAL_GPIO_EXTI_Callback+0x68>)
 800133a:	7813      	ldrb	r3, [r2, #0]
 800133c:	3301      	adds	r3, #1
 800133e:	7013      	strb	r3, [r2, #0]
}
 8001340:	bd10      	pop	{r4, pc}
		if(grandState == work){grandState = stopnd;}
 8001342:	4a13      	ldr	r2, [pc, #76]	; (8001390 <HAL_GPIO_EXTI_Callback+0x6c>)
		PWMOut = 0;
 8001344:	4c13      	ldr	r4, [pc, #76]	; (8001394 <HAL_GPIO_EXTI_Callback+0x70>)
		if(grandState == work){grandState = stopnd;}
 8001346:	7811      	ldrb	r1, [r2, #0]
		bluecounter = 0;
 8001348:	4810      	ldr	r0, [pc, #64]	; (800138c <HAL_GPIO_EXTI_Callback+0x68>)
		PWMOut = 0;
 800134a:	2300      	movs	r3, #0
		if(grandState == work){grandState = stopnd;}
 800134c:	2901      	cmp	r1, #1
		PWMOut = 0;
 800134e:	8023      	strh	r3, [r4, #0]
		bluecounter = 0;
 8001350:	7003      	strb	r3, [r0, #0]
		if(grandState == work){grandState = stopnd;}
 8001352:	d1f5      	bne.n	8001340 <HAL_GPIO_EXTI_Callback+0x1c>
 8001354:	2304      	movs	r3, #4
 8001356:	7013      	strb	r3, [r2, #0]
}
 8001358:	bd10      	pop	{r4, pc}
		if(GPIO_Pin == GPIO_PIN_2){
 800135a:	2804      	cmp	r0, #4
 800135c:	d1f0      	bne.n	8001340 <HAL_GPIO_EXTI_Callback+0x1c>
			TargetDeg = 0 + POSOFFSET;
 800135e:	4b0e      	ldr	r3, [pc, #56]	; (8001398 <HAL_GPIO_EXTI_Callback+0x74>)
 8001360:	2200      	movs	r2, #0
 8001362:	601a      	str	r2, [r3, #0]
}
 8001364:	bd10      	pop	{r4, pc}
		HAL_GPIO_TogglePin(GPIOA, GPIO_PIN_5);
 8001366:	480d      	ldr	r0, [pc, #52]	; (800139c <HAL_GPIO_EXTI_Callback+0x78>)
		bluecounter = 0;
 8001368:	4c08      	ldr	r4, [pc, #32]	; (800138c <HAL_GPIO_EXTI_Callback+0x68>)
		HAL_GPIO_TogglePin(GPIOA, GPIO_PIN_5);
 800136a:	2120      	movs	r1, #32
 800136c:	f001 ff3e 	bl	80031ec <HAL_GPIO_TogglePin>
		counter_e++;
 8001370:	490b      	ldr	r1, [pc, #44]	; (80013a0 <HAL_GPIO_EXTI_Callback+0x7c>)
		grandState = emer;
 8001372:	4807      	ldr	r0, [pc, #28]	; (8001390 <HAL_GPIO_EXTI_Callback+0x6c>)
		counter_e++;
 8001374:	780b      	ldrb	r3, [r1, #0]
		grandState = emer;
 8001376:	f04f 0c03 	mov.w	ip, #3
		bluecounter = 0;
 800137a:	2200      	movs	r2, #0
		grandState = emer;
 800137c:	f880 c000 	strb.w	ip, [r0]
		counter_e++;
 8001380:	3301      	adds	r3, #1
		PWMOut = 0;
 8001382:	4804      	ldr	r0, [pc, #16]	; (8001394 <HAL_GPIO_EXTI_Callback+0x70>)
		counter_e++;
 8001384:	700b      	strb	r3, [r1, #0]
		bluecounter = 0;
 8001386:	7022      	strb	r2, [r4, #0]
		PWMOut = 0;
 8001388:	8002      	strh	r2, [r0, #0]
}
 800138a:	bd10      	pop	{r4, pc}
 800138c:	20000308 	.word	0x20000308
 8001390:	200002fc 	.word	0x200002fc
 8001394:	20000010 	.word	0x20000010
 8001398:	2000001c 	.word	0x2000001c
 800139c:	40020000 	.word	0x40020000
 80013a0:	2000034d 	.word	0x2000034d

080013a4 <HAL_TIM_PeriodElapsedCallback>:
 if(htim == &htim11)
 80013a4:	4b07      	ldr	r3, [pc, #28]	; (80013c4 <HAL_TIM_PeriodElapsedCallback+0x20>)
 80013a6:	4283      	cmp	r3, r0
 80013a8:	d000      	beq.n	80013ac <HAL_TIM_PeriodElapsedCallback+0x8>
}
 80013aa:	4770      	bx	lr
 {_micros += 65535;}
 80013ac:	4a06      	ldr	r2, [pc, #24]	; (80013c8 <HAL_TIM_PeriodElapsedCallback+0x24>)
 80013ae:	e9d2 3100 	ldrd	r3, r1, [r2]
 80013b2:	f64f 70ff 	movw	r0, #65535	; 0xffff
 80013b6:	181b      	adds	r3, r3, r0
 80013b8:	f141 0100 	adc.w	r1, r1, #0
 80013bc:	e9c2 3100 	strd	r3, r1, [r2]
}
 80013c0:	4770      	bx	lr
 80013c2:	bf00      	nop
 80013c4:	20000408 	.word	0x20000408
 80013c8:	20000300 	.word	0x20000300

080013cc <Error_Handler>:
 80013cc:	b672      	cpsid	i
  while (1)
 80013ce:	e7fe      	b.n	80013ce <Error_Handler+0x2>

080013d0 <_ZN5Eigen16CommaInitializerINS_6MatrixIfLi3ELi3ELi0ELi3ELi3EEEEcmERKf>:
  CommaInitializer& operator,(const Scalar& s)
 80013d0:	b538      	push	{r3, r4, r5, lr}
    if (m_col==m_xpr.cols())
 80013d2:	6883      	ldr	r3, [r0, #8]
 80013d4:	6802      	ldr	r2, [r0, #0]
 80013d6:	2b03      	cmp	r3, #3
 80013d8:	d011      	beq.n	80013fe <_ZN5Eigen16CommaInitializerINS_6MatrixIfLi3ELi3ELi0ELi3ELi3EEEEcmERKf+0x2e>
    eigen_assert(m_col<m_xpr.cols()
 80013da:	2b02      	cmp	r3, #2
 80013dc:	dc25      	bgt.n	800142a <_ZN5Eigen16CommaInitializerINS_6MatrixIfLi3ELi3ELi0ELi3ELi3EEEEcmERKf+0x5a>
    eigen_assert(m_currentBlockRows==1);
 80013de:	68c4      	ldr	r4, [r0, #12]
 80013e0:	2c01      	cmp	r4, #1
 80013e2:	d11c      	bne.n	800141e <_ZN5Eigen16CommaInitializerINS_6MatrixIfLi3ELi3ELi0ELi3ELi3EEEEcmERKf+0x4e>
 80013e4:	6844      	ldr	r4, [r0, #4]
    m_xpr.coeffRef(m_row, m_col++) = s;
 80013e6:	f8d1 c000 	ldr.w	ip, [r1]
    EIGEN_STRONG_INLINE Scalar& coeffRef(Index rowId, Index colId)
    {
      if(Flags & RowMajorBit)
        return m_storage.data()[colId + rowId * m_storage.cols()];
      else // column-major
        return m_storage.data()[rowId + colId * m_storage.rows()];
 80013ea:	eb03 0143 	add.w	r1, r3, r3, lsl #1
 80013ee:	4421      	add	r1, r4
 80013f0:	eb02 0281 	add.w	r2, r2, r1, lsl #2
 80013f4:	3301      	adds	r3, #1
 80013f6:	6083      	str	r3, [r0, #8]
 80013f8:	f8c2 c000 	str.w	ip, [r2]
  }
 80013fc:	bd38      	pop	{r3, r4, r5, pc}
      m_row+=m_currentBlockRows;
 80013fe:	68c3      	ldr	r3, [r0, #12]
 8001400:	6844      	ldr	r4, [r0, #4]
 8001402:	441c      	add	r4, r3
      m_currentBlockRows = 1;
 8001404:	2501      	movs	r5, #1
      m_col = 0;
 8001406:	2300      	movs	r3, #0
      eigen_assert(m_row<m_xpr.rows()
 8001408:	2c02      	cmp	r4, #2
      m_col = 0;
 800140a:	e9c0 4301 	strd	r4, r3, [r0, #4]
      m_currentBlockRows = 1;
 800140e:	60c5      	str	r5, [r0, #12]
      eigen_assert(m_row<m_xpr.rows()
 8001410:	dde9      	ble.n	80013e6 <_ZN5Eigen16CommaInitializerINS_6MatrixIfLi3ELi3ELi0ELi3ELi3EEEEcmERKf+0x16>
 8001412:	4b09      	ldr	r3, [pc, #36]	; (8001438 <_ZN5Eigen16CommaInitializerINS_6MatrixIfLi3ELi3ELi0ELi3ELi3EEEEcmERKf+0x68>)
 8001414:	4a09      	ldr	r2, [pc, #36]	; (800143c <_ZN5Eigen16CommaInitializerINS_6MatrixIfLi3ELi3ELi0ELi3ELi3EEEEcmERKf+0x6c>)
 8001416:	480a      	ldr	r0, [pc, #40]	; (8001440 <_ZN5Eigen16CommaInitializerINS_6MatrixIfLi3ELi3ELi0ELi3ELi3EEEEcmERKf+0x70>)
 8001418:	2148      	movs	r1, #72	; 0x48
 800141a:	f004 feb7 	bl	800618c <__assert_func>
    eigen_assert(m_currentBlockRows==1);
 800141e:	4b09      	ldr	r3, [pc, #36]	; (8001444 <_ZN5Eigen16CommaInitializerINS_6MatrixIfLi3ELi3ELi0ELi3ELi3EEEEcmERKf+0x74>)
 8001420:	4a06      	ldr	r2, [pc, #24]	; (800143c <_ZN5Eigen16CommaInitializerINS_6MatrixIfLi3ELi3ELi0ELi3ELi3EEEEcmERKf+0x6c>)
 8001422:	4807      	ldr	r0, [pc, #28]	; (8001440 <_ZN5Eigen16CommaInitializerINS_6MatrixIfLi3ELi3ELi0ELi3ELi3EEEEcmERKf+0x70>)
 8001424:	214d      	movs	r1, #77	; 0x4d
 8001426:	f004 feb1 	bl	800618c <__assert_func>
    eigen_assert(m_col<m_xpr.cols()
 800142a:	4b07      	ldr	r3, [pc, #28]	; (8001448 <_ZN5Eigen16CommaInitializerINS_6MatrixIfLi3ELi3ELi0ELi3ELi3EEEEcmERKf+0x78>)
 800142c:	4a03      	ldr	r2, [pc, #12]	; (800143c <_ZN5Eigen16CommaInitializerINS_6MatrixIfLi3ELi3ELi0ELi3ELi3EEEEcmERKf+0x6c>)
 800142e:	4804      	ldr	r0, [pc, #16]	; (8001440 <_ZN5Eigen16CommaInitializerINS_6MatrixIfLi3ELi3ELi0ELi3ELi3EEEEcmERKf+0x70>)
 8001430:	214b      	movs	r1, #75	; 0x4b
 8001432:	f004 feab 	bl	800618c <__assert_func>
 8001436:	bf00      	nop
 8001438:	080073d8 	.word	0x080073d8
 800143c:	08007428 	.word	0x08007428
 8001440:	08007328 	.word	0x08007328
 8001444:	08007544 	.word	0x08007544
 8001448:	080074ec 	.word	0x080074ec

0800144c <_ZN5Eigen16CommaInitializerINS_6MatrixIfLi3ELi1ELi0ELi3ELi1EEEEcmERKf>:
  CommaInitializer& operator,(const Scalar& s)
 800144c:	b538      	push	{r3, r4, r5, lr}
    if (m_col==m_xpr.cols())
 800144e:	6883      	ldr	r3, [r0, #8]
 8001450:	6802      	ldr	r2, [r0, #0]
 8001452:	2b01      	cmp	r3, #1
 8001454:	d011      	beq.n	800147a <_ZN5Eigen16CommaInitializerINS_6MatrixIfLi3ELi1ELi0ELi3ELi1EEEEcmERKf+0x2e>
    eigen_assert(m_col<m_xpr.cols()
 8001456:	2b00      	cmp	r3, #0
 8001458:	dc24      	bgt.n	80014a4 <_ZN5Eigen16CommaInitializerINS_6MatrixIfLi3ELi1ELi0ELi3ELi1EEEEcmERKf+0x58>
    eigen_assert(m_currentBlockRows==1);
 800145a:	68c4      	ldr	r4, [r0, #12]
 800145c:	2c01      	cmp	r4, #1
 800145e:	d11b      	bne.n	8001498 <_ZN5Eigen16CommaInitializerINS_6MatrixIfLi3ELi1ELi0ELi3ELi1EEEEcmERKf+0x4c>
 8001460:	6844      	ldr	r4, [r0, #4]
    m_xpr.coeffRef(m_row, m_col++) = s;
 8001462:	f8d1 c000 	ldr.w	ip, [r1]
 8001466:	eb03 0143 	add.w	r1, r3, r3, lsl #1
 800146a:	4421      	add	r1, r4
 800146c:	eb02 0281 	add.w	r2, r2, r1, lsl #2
 8001470:	3301      	adds	r3, #1
 8001472:	6083      	str	r3, [r0, #8]
 8001474:	f8c2 c000 	str.w	ip, [r2]
  }
 8001478:	bd38      	pop	{r3, r4, r5, pc}
      m_row+=m_currentBlockRows;
 800147a:	6844      	ldr	r4, [r0, #4]
 800147c:	68c5      	ldr	r5, [r0, #12]
      m_currentBlockRows = 1;
 800147e:	60c3      	str	r3, [r0, #12]
      m_row+=m_currentBlockRows;
 8001480:	442c      	add	r4, r5
      m_col = 0;
 8001482:	2300      	movs	r3, #0
      eigen_assert(m_row<m_xpr.rows()
 8001484:	2c02      	cmp	r4, #2
      m_col = 0;
 8001486:	e9c0 4301 	strd	r4, r3, [r0, #4]
      eigen_assert(m_row<m_xpr.rows()
 800148a:	ddea      	ble.n	8001462 <_ZN5Eigen16CommaInitializerINS_6MatrixIfLi3ELi1ELi0ELi3ELi1EEEEcmERKf+0x16>
 800148c:	4b08      	ldr	r3, [pc, #32]	; (80014b0 <_ZN5Eigen16CommaInitializerINS_6MatrixIfLi3ELi1ELi0ELi3ELi1EEEEcmERKf+0x64>)
 800148e:	4a09      	ldr	r2, [pc, #36]	; (80014b4 <_ZN5Eigen16CommaInitializerINS_6MatrixIfLi3ELi1ELi0ELi3ELi1EEEEcmERKf+0x68>)
 8001490:	4809      	ldr	r0, [pc, #36]	; (80014b8 <_ZN5Eigen16CommaInitializerINS_6MatrixIfLi3ELi1ELi0ELi3ELi1EEEEcmERKf+0x6c>)
 8001492:	2148      	movs	r1, #72	; 0x48
 8001494:	f004 fe7a 	bl	800618c <__assert_func>
    eigen_assert(m_currentBlockRows==1);
 8001498:	4b08      	ldr	r3, [pc, #32]	; (80014bc <_ZN5Eigen16CommaInitializerINS_6MatrixIfLi3ELi1ELi0ELi3ELi1EEEEcmERKf+0x70>)
 800149a:	4a06      	ldr	r2, [pc, #24]	; (80014b4 <_ZN5Eigen16CommaInitializerINS_6MatrixIfLi3ELi1ELi0ELi3ELi1EEEEcmERKf+0x68>)
 800149c:	4806      	ldr	r0, [pc, #24]	; (80014b8 <_ZN5Eigen16CommaInitializerINS_6MatrixIfLi3ELi1ELi0ELi3ELi1EEEEcmERKf+0x6c>)
 800149e:	214d      	movs	r1, #77	; 0x4d
 80014a0:	f004 fe74 	bl	800618c <__assert_func>
    eigen_assert(m_col<m_xpr.cols()
 80014a4:	4b06      	ldr	r3, [pc, #24]	; (80014c0 <_ZN5Eigen16CommaInitializerINS_6MatrixIfLi3ELi1ELi0ELi3ELi1EEEEcmERKf+0x74>)
 80014a6:	4a03      	ldr	r2, [pc, #12]	; (80014b4 <_ZN5Eigen16CommaInitializerINS_6MatrixIfLi3ELi1ELi0ELi3ELi1EEEEcmERKf+0x68>)
 80014a8:	4803      	ldr	r0, [pc, #12]	; (80014b8 <_ZN5Eigen16CommaInitializerINS_6MatrixIfLi3ELi1ELi0ELi3ELi1EEEEcmERKf+0x6c>)
 80014aa:	214b      	movs	r1, #75	; 0x4b
 80014ac:	f004 fe6e 	bl	800618c <__assert_func>
 80014b0:	080073d8 	.word	0x080073d8
 80014b4:	0800755c 	.word	0x0800755c
 80014b8:	08007328 	.word	0x08007328
 80014bc:	08007544 	.word	0x08007544
 80014c0:	080074ec 	.word	0x080074ec

080014c4 <_ZN5Eigen16CommaInitializerINS_6MatrixIfLi1ELi3ELi1ELi1ELi3EEEEcmERKf>:
    if (m_col==m_xpr.cols())
 80014c4:	6882      	ldr	r2, [r0, #8]
 80014c6:	2a03      	cmp	r2, #3
  CommaInitializer& operator,(const Scalar& s)
 80014c8:	b538      	push	{r3, r4, r5, lr}
    if (m_col==m_xpr.cols())
 80014ca:	6804      	ldr	r4, [r0, #0]
 80014cc:	d00f      	beq.n	80014ee <_ZN5Eigen16CommaInitializerINS_6MatrixIfLi1ELi3ELi1ELi1ELi3EEEEcmERKf+0x2a>
    eigen_assert(m_col<m_xpr.cols()
 80014ce:	2a02      	cmp	r2, #2
 80014d0:	dc23      	bgt.n	800151a <_ZN5Eigen16CommaInitializerINS_6MatrixIfLi1ELi3ELi1ELi1ELi3EEEEcmERKf+0x56>
    eigen_assert(m_currentBlockRows==1);
 80014d2:	68c3      	ldr	r3, [r0, #12]
 80014d4:	2b01      	cmp	r3, #1
 80014d6:	d11a      	bne.n	800150e <_ZN5Eigen16CommaInitializerINS_6MatrixIfLi1ELi3ELi1ELi1ELi3EEEEcmERKf+0x4a>
 80014d8:	6843      	ldr	r3, [r0, #4]
    m_xpr.coeffRef(m_row, m_col++) = s;
 80014da:	6809      	ldr	r1, [r1, #0]
        return m_storage.data()[colId + rowId * m_storage.cols()];
 80014dc:	eb03 0343 	add.w	r3, r3, r3, lsl #1
 80014e0:	4413      	add	r3, r2
 80014e2:	eb04 0383 	add.w	r3, r4, r3, lsl #2
 80014e6:	3201      	adds	r2, #1
 80014e8:	6082      	str	r2, [r0, #8]
 80014ea:	6019      	str	r1, [r3, #0]
  }
 80014ec:	bd38      	pop	{r3, r4, r5, pc}
      m_row+=m_currentBlockRows;
 80014ee:	68c2      	ldr	r2, [r0, #12]
 80014f0:	6843      	ldr	r3, [r0, #4]
 80014f2:	4413      	add	r3, r2
      m_col = 0;
 80014f4:	2200      	movs	r2, #0
      m_currentBlockRows = 1;
 80014f6:	2501      	movs	r5, #1
      eigen_assert(m_row<m_xpr.rows()
 80014f8:	4293      	cmp	r3, r2
      m_col = 0;
 80014fa:	e9c0 3201 	strd	r3, r2, [r0, #4]
      m_currentBlockRows = 1;
 80014fe:	60c5      	str	r5, [r0, #12]
      eigen_assert(m_row<m_xpr.rows()
 8001500:	ddeb      	ble.n	80014da <_ZN5Eigen16CommaInitializerINS_6MatrixIfLi1ELi3ELi1ELi1ELi3EEEEcmERKf+0x16>
 8001502:	4b09      	ldr	r3, [pc, #36]	; (8001528 <_ZN5Eigen16CommaInitializerINS_6MatrixIfLi1ELi3ELi1ELi1ELi3EEEEcmERKf+0x64>)
 8001504:	4a09      	ldr	r2, [pc, #36]	; (800152c <_ZN5Eigen16CommaInitializerINS_6MatrixIfLi1ELi3ELi1ELi1ELi3EEEEcmERKf+0x68>)
 8001506:	480a      	ldr	r0, [pc, #40]	; (8001530 <_ZN5Eigen16CommaInitializerINS_6MatrixIfLi1ELi3ELi1ELi1ELi3EEEEcmERKf+0x6c>)
 8001508:	2148      	movs	r1, #72	; 0x48
 800150a:	f004 fe3f 	bl	800618c <__assert_func>
    eigen_assert(m_currentBlockRows==1);
 800150e:	4b09      	ldr	r3, [pc, #36]	; (8001534 <_ZN5Eigen16CommaInitializerINS_6MatrixIfLi1ELi3ELi1ELi1ELi3EEEEcmERKf+0x70>)
 8001510:	4a06      	ldr	r2, [pc, #24]	; (800152c <_ZN5Eigen16CommaInitializerINS_6MatrixIfLi1ELi3ELi1ELi1ELi3EEEEcmERKf+0x68>)
 8001512:	4807      	ldr	r0, [pc, #28]	; (8001530 <_ZN5Eigen16CommaInitializerINS_6MatrixIfLi1ELi3ELi1ELi1ELi3EEEEcmERKf+0x6c>)
 8001514:	214d      	movs	r1, #77	; 0x4d
 8001516:	f004 fe39 	bl	800618c <__assert_func>
    eigen_assert(m_col<m_xpr.cols()
 800151a:	4b07      	ldr	r3, [pc, #28]	; (8001538 <_ZN5Eigen16CommaInitializerINS_6MatrixIfLi1ELi3ELi1ELi1ELi3EEEEcmERKf+0x74>)
 800151c:	4a03      	ldr	r2, [pc, #12]	; (800152c <_ZN5Eigen16CommaInitializerINS_6MatrixIfLi1ELi3ELi1ELi1ELi3EEEEcmERKf+0x68>)
 800151e:	4804      	ldr	r0, [pc, #16]	; (8001530 <_ZN5Eigen16CommaInitializerINS_6MatrixIfLi1ELi3ELi1ELi1ELi3EEEEcmERKf+0x6c>)
 8001520:	214b      	movs	r1, #75	; 0x4b
 8001522:	f004 fe33 	bl	800618c <__assert_func>
 8001526:	bf00      	nop
 8001528:	080073d8 	.word	0x080073d8
 800152c:	08007620 	.word	0x08007620
 8001530:	08007328 	.word	0x08007328
 8001534:	08007544 	.word	0x08007544
 8001538:	080074ec 	.word	0x080074ec

0800153c <_ZN5Eigen8internal26call_dense_assignment_loopINS_6MatrixIfLi3ELi3ELi0ELi3ELi3EEENS_13CwiseBinaryOpINS0_13scalar_sum_opIffEEKNS_7ProductINS7_IS3_S3_Li0EEENS_9TransposeIS3_EELi0EEEKS3_EENS0_9assign_opIffEEEEvRT_RKT0_RKT1_>:
    dst.resize(dstRows, dstCols);
  eigen_assert(dst.rows() == dstRows && dst.cols() == dstCols);
}

template<typename DstXprType, typename SrcXprType, typename Functor>
EIGEN_DEVICE_FUNC EIGEN_STRONG_INLINE void call_dense_assignment_loop(DstXprType& dst, const SrcXprType& src, const Functor &func)
 800153c:	b430      	push	{r4, r5}
    typedef typename internal::ref_selector<Rhs>::type RhsNested;
    typedef typename internal::remove_all<LhsNested>::type LhsNestedCleaned;
    typedef typename internal::remove_all<RhsNested>::type RhsNestedCleaned;

    EIGEN_DEVICE_FUNC EIGEN_STRONG_INLINE
    Product(const Lhs& lhs, const Rhs& rhs) : m_lhs(lhs), m_rhs(rhs)
 800153e:	e9d1 4500 	ldrd	r4, r5, [r1]
  }

  EIGEN_DEVICE_FUNC EIGEN_STRONG_INLINE
  CoeffReturnType coeff(Index row, Index col) const
  {
    return m_data[col * colStride() + row * rowStride()];
 8001542:	ed94 3a03 	vldr	s6, [r4, #12]
 8001546:	ed95 7a04 	vldr	s14, [r5, #16]
 800154a:	edd4 7a00 	vldr	s15, [r4]
 800154e:	ed95 0a03 	vldr	s0, [r5, #12]
 8001552:	ed95 2a01 	vldr	s4, [r5, #4]
 8001556:	edd5 5a00 	vldr	s11, [r5]
 800155a:	edd5 4a06 	vldr	s9, [r5, #24]
 800155e:	ed94 5a04 	vldr	s10, [r4, #16]
 8001562:	ed94 4a06 	vldr	s8, [r4, #24]
 8001566:	ed94 6a05 	vldr	s12, [r4, #20]
 800156a:	688a      	ldr	r2, [r1, #8]
 800156c:	ed95 1a02 	vldr	s2, [r5, #8]
 8001570:	edd4 1a02 	vldr	s3, [r4, #8]
 8001574:	edd4 0a07 	vldr	s1, [r4, #28]
    /** \returns the left hand side nested expression */
    EIGEN_DEVICE_FUNC EIGEN_STRONG_INLINE
    const _LhsNested& lhs() const { return m_lhs; }
    /** \returns the right hand side nested expression */
    EIGEN_DEVICE_FUNC EIGEN_STRONG_INLINE
    const _RhsNested& rhs() const { return m_rhs; }
 8001578:	68cb      	ldr	r3, [r1, #12]
 800157a:	ed2d 8b04 	vpush	{d8-d9}
#else
  scalar_product_op() {
    EIGEN_SCALAR_BINARY_OP_PLUGIN
  }
#endif
  EIGEN_DEVICE_FUNC EIGEN_STRONG_INLINE result_type operator() (const LhsScalar& a, const RhsScalar& b) const { return a * b; }
 800157e:	ee63 6a07 	vmul.f32	s13, s6, s14
 8001582:	ed95 8a07 	vldr	s16, [r5, #28]
 8001586:	edd4 8a01 	vldr	s17, [r4, #4]
 800158a:	ed95 9a05 	vldr	s18, [r5, #20]
 800158e:	eee7 6a80 	vfma.f32	s13, s15, s0
 8001592:	b090      	sub	sp, #64	; 0x40
 8001594:	ee63 2a02 	vmul.f32	s5, s6, s4
 8001598:	ee23 3a08 	vmul.f32	s6, s6, s16
 800159c:	eee7 2aa5 	vfma.f32	s5, s15, s11
 80015a0:	eea7 3aa4 	vfma.f32	s6, s15, s9
 80015a4:	ee62 3a05 	vmul.f32	s7, s4, s10
 80015a8:	ee65 7a07 	vmul.f32	s15, s10, s14
 80015ac:	ee25 5a08 	vmul.f32	s10, s10, s16
  EIGEN_DEVICE_FUNC EIGEN_STRONG_INLINE result_type operator() (const LhsScalar& a, const RhsScalar& b) const { return a + b; }
 80015b0:	eee4 6a09 	vfma.f32	s13, s8, s18
 80015b4:	eea8 5aa4 	vfma.f32	s10, s17, s9
  EIGEN_DEVICE_FUNC EIGEN_STRONG_INLINE result_type operator() (const LhsScalar& a, const RhsScalar& b) const { return a * b; }
 80015b8:	ee22 2a06 	vmul.f32	s4, s4, s12
 80015bc:	ee26 7a07 	vmul.f32	s14, s12, s14
  EIGEN_DEVICE_FUNC EIGEN_STRONG_INLINE result_type operator() (const LhsScalar& a, const RhsScalar& b) const { return a + b; }
 80015c0:	eee4 2a01 	vfma.f32	s5, s8, s2
  CoeffReturnType coeff(Index row, Index col) const
 80015c4:	eee5 3aa8 	vfma.f32	s7, s11, s17
 80015c8:	eea5 2aa1 	vfma.f32	s4, s11, s3
 80015cc:	eee8 7a80 	vfma.f32	s15, s17, s0
    return m_data[col * colStride() + row * rowStride()];
 80015d0:	edd2 5a03 	vldr	s11, [r2, #12]
 80015d4:	edd4 8a08 	vldr	s17, [r4, #32]
 80015d8:	eea1 7a80 	vfma.f32	s14, s3, s0
  EIGEN_DEVICE_FUNC EIGEN_STRONG_INLINE result_type operator() (const LhsScalar& a, const RhsScalar& b) const { return a * b; }
 80015dc:	ee26 6a08 	vmul.f32	s12, s12, s16
 80015e0:	ed95 0a08 	vldr	s0, [r5, #32]
 80015e4:	ed92 8a06 	vldr	s16, [r2, #24]
  EIGEN_DEVICE_FUNC EIGEN_STRONG_INLINE result_type operator() (const LhsScalar& a, const RhsScalar& b) const { return a + b; }
 80015e8:	eea0 5a80 	vfma.f32	s10, s1, s0
 80015ec:	eea1 6aa4 	vfma.f32	s12, s3, s9
 80015f0:	edd2 1a00 	vldr	s3, [r2]
  EIGEN_DEVICE_FUNC EIGEN_STRONG_INLINE result_type operator() (const LhsScalar& a, const RhsScalar& b) const { return a * b; }
 80015f4:	ee66 4aa5 	vmul.f32	s9, s13, s11
  EIGEN_DEVICE_FUNC EIGEN_STRONG_INLINE result_type operator() (const LhsScalar& a, const RhsScalar& b) const { return a + b; }
 80015f8:	eea4 3a00 	vfma.f32	s6, s8, s0
 80015fc:	eee2 4aa1 	vfma.f32	s9, s5, s3
 8001600:	eea8 7a89 	vfma.f32	s14, s17, s18
 8001604:	eeb0 4a45 	vmov.f32	s8, s10
 8001608:	eee0 7a89 	vfma.f32	s15, s1, s18
 800160c:	eea8 6a80 	vfma.f32	s12, s17, s0
 8001610:	ed93 5a00 	vldr	s10, [r3]
 8001614:	ed92 9a01 	vldr	s18, [r2, #4]
 8001618:	ed92 0a02 	vldr	s0, [r2, #8]
 800161c:	eee1 3a20 	vfma.f32	s7, s2, s1
 8001620:	eea1 2a28 	vfma.f32	s4, s2, s17
 8001624:	ee34 5a85 	vadd.f32	s10, s9, s10
 8001628:	ed92 1a07 	vldr	s2, [r2, #28]
 800162c:	eef0 4a46 	vmov.f32	s9, s12
 8001630:	eea3 5a08 	vfma.f32	s10, s6, s16
 8001634:	ed92 6a04 	vldr	s12, [r2, #16]
 8001638:	edd2 8a05 	vldr	s17, [r2, #20]
  EIGEN_DEVICE_FUNC EIGEN_STRONG_INLINE result_type operator() (const LhsScalar& a, const RhsScalar& b) const { return a * b; }
 800163c:	ee67 0aa5 	vmul.f32	s1, s15, s11
 8001640:	ee67 5a25 	vmul.f32	s11, s14, s11
 8001644:	eee3 0aa1 	vfma.f32	s1, s7, s3
 8001648:	eee2 5a21 	vfma.f32	s11, s4, s3
 800164c:	ee67 1a06 	vmul.f32	s3, s14, s12
 8001650:	ee27 7a28 	vmul.f32	s14, s14, s17
 8001654:	eee2 1a09 	vfma.f32	s3, s4, s18
 8001658:	eea2 7a00 	vfma.f32	s14, s4, s0
 800165c:	ed92 2a08 	vldr	s4, [r2, #32]
  *
  */
template<typename DstScalar,typename SrcScalar> struct assign_op {

  EIGEN_EMPTY_STRUCT_CTOR(assign_op)
  EIGEN_DEVICE_FUNC EIGEN_STRONG_INLINE void assignCoeff(DstScalar& a, const SrcScalar& b) const { a = b; }
 8001660:	ed80 5a00 	vstr	s10, [r0]
  EIGEN_DEVICE_FUNC EIGEN_STRONG_INLINE result_type operator() (const LhsScalar& a, const RhsScalar& b) const { return a + b; }
 8001664:	ed93 5a01 	vldr	s10, [r3, #4]
 8001668:	ee30 5a85 	vadd.f32	s10, s1, s10
 800166c:	eea4 5a08 	vfma.f32	s10, s8, s16
 8001670:	ed80 5a01 	vstr	s10, [r0, #4]
 8001674:	ed93 5a02 	vldr	s10, [r3, #8]
 8001678:	ee75 5a85 	vadd.f32	s11, s11, s10
 800167c:	eee4 5a88 	vfma.f32	s11, s9, s16
 8001680:	edc0 5a02 	vstr	s11, [r0, #8]
  EIGEN_DEVICE_FUNC EIGEN_STRONG_INLINE result_type operator() (const LhsScalar& a, const RhsScalar& b) const { return a * b; }
 8001684:	ee66 5a86 	vmul.f32	s11, s13, s12
  EIGEN_DEVICE_FUNC EIGEN_STRONG_INLINE result_type operator() (const LhsScalar& a, const RhsScalar& b) const { return a + b; }
 8001688:	ed93 5a03 	vldr	s10, [r3, #12]
 800168c:	eee2 5a89 	vfma.f32	s11, s5, s18
  EIGEN_DEVICE_FUNC EIGEN_STRONG_INLINE result_type operator() (const LhsScalar& a, const RhsScalar& b) const { return a * b; }
 8001690:	ee27 6a86 	vmul.f32	s12, s15, s12
  EIGEN_DEVICE_FUNC EIGEN_STRONG_INLINE result_type operator() (const LhsScalar& a, const RhsScalar& b) const { return a + b; }
 8001694:	ee75 5a85 	vadd.f32	s11, s11, s10
 8001698:	eea3 6a89 	vfma.f32	s12, s7, s18
 800169c:	eee3 5a01 	vfma.f32	s11, s6, s2
  EIGEN_DEVICE_FUNC EIGEN_STRONG_INLINE result_type operator() (const LhsScalar& a, const RhsScalar& b) const { return a * b; }
 80016a0:	ee66 6aa8 	vmul.f32	s13, s13, s17
 80016a4:	edc0 5a03 	vstr	s11, [r0, #12]
  EIGEN_DEVICE_FUNC EIGEN_STRONG_INLINE result_type operator() (const LhsScalar& a, const RhsScalar& b) const { return a + b; }
 80016a8:	edd3 5a04 	vldr	s11, [r3, #16]
 80016ac:	ee36 6a25 	vadd.f32	s12, s12, s11
 80016b0:	eee2 6a80 	vfma.f32	s13, s5, s0
 80016b4:	eea4 6a01 	vfma.f32	s12, s8, s2
  EIGEN_DEVICE_FUNC EIGEN_STRONG_INLINE result_type operator() (const LhsScalar& a, const RhsScalar& b) const { return a * b; }
 80016b8:	ee67 7aa8 	vmul.f32	s15, s15, s17
 80016bc:	ed80 6a04 	vstr	s12, [r0, #16]
  EIGEN_DEVICE_FUNC EIGEN_STRONG_INLINE result_type operator() (const LhsScalar& a, const RhsScalar& b) const { return a + b; }
 80016c0:	ed93 6a05 	vldr	s12, [r3, #20]
 80016c4:	ee31 6a86 	vadd.f32	s12, s3, s12
 80016c8:	eee3 7a80 	vfma.f32	s15, s7, s0
 80016cc:	eea4 6a81 	vfma.f32	s12, s9, s2
 80016d0:	ed80 6a05 	vstr	s12, [r0, #20]
 80016d4:	ed93 6a06 	vldr	s12, [r3, #24]
 80016d8:	ee76 6a86 	vadd.f32	s13, s13, s12
 80016dc:	eee3 6a02 	vfma.f32	s13, s6, s4
 80016e0:	edc0 6a06 	vstr	s13, [r0, #24]
 80016e4:	edd3 6a07 	vldr	s13, [r3, #28]
 80016e8:	ee77 7aa6 	vadd.f32	s15, s15, s13
 80016ec:	eee4 7a02 	vfma.f32	s15, s8, s4
 80016f0:	edc0 7a07 	vstr	s15, [r0, #28]
 80016f4:	edd3 7a08 	vldr	s15, [r3, #32]
 80016f8:	ee37 7a27 	vadd.f32	s14, s14, s15
 80016fc:	eea4 7a82 	vfma.f32	s14, s9, s4
 8001700:	ed80 7a08 	vstr	s14, [r0, #32]

  typedef generic_dense_assignment_kernel<DstEvaluatorType,SrcEvaluatorType,Functor> Kernel;
  Kernel kernel(dstEvaluator, srcEvaluator, func, dst.const_cast_derived());

  dense_assignment_loop<Kernel>::run(kernel);
}
 8001704:	b010      	add	sp, #64	; 0x40
 8001706:	ecbd 8b04 	vpop	{d8-d9}
 800170a:	bc30      	pop	{r4, r5}
 800170c:	4770      	bx	lr
 800170e:	bf00      	nop

08001710 <_Z12Kalmanfilterv>:
void Kalmanfilter(){
 8001710:	e92d 47f0 	stmdb	sp!, {r4, r5, r6, r7, r8, r9, sl, lr}
{return _micros + htim11.Instance->CNT;}
 8001714:	4ece      	ldr	r6, [pc, #824]	; (8001a50 <_Z12Kalmanfilterv+0x340>)
	 if(micros() - TimeStampKalman >= 1000){
 8001716:	4dcf      	ldr	r5, [pc, #828]	; (8001a54 <_Z12Kalmanfilterv+0x344>)
{return _micros + htim11.Instance->CNT;}
 8001718:	6837      	ldr	r7, [r6, #0]
 800171a:	4ccf      	ldr	r4, [pc, #828]	; (8001a58 <_Z12Kalmanfilterv+0x348>)
	 if(micros() - TimeStampKalman >= 1000){
 800171c:	6828      	ldr	r0, [r5, #0]
{return _micros + htim11.Instance->CNT;}
 800171e:	6a7b      	ldr	r3, [r7, #36]	; 0x24
 8001720:	6821      	ldr	r1, [r4, #0]
 8001722:	6862      	ldr	r2, [r4, #4]
	 if(micros() - TimeStampKalman >= 1000){
 8001724:	1a1b      	subs	r3, r3, r0
 8001726:	eb60 0000 	sbc.w	r0, r0, r0
void Kalmanfilter(){
 800172a:	ed2d 8b0a 	vpush	{d8-d12}
	 if(micros() - TimeStampKalman >= 1000){
 800172e:	185b      	adds	r3, r3, r1
 8001730:	eb42 0200 	adc.w	r2, r2, r0
 8001734:	f5b3 7f7a 	cmp.w	r3, #1000	; 0x3e8
 8001738:	f172 0300 	sbcs.w	r3, r2, #0
void Kalmanfilter(){
 800173c:	b086      	sub	sp, #24
	 if(micros() - TimeStampKalman >= 1000){
 800173e:	d204      	bcs.n	800174a <_Z12Kalmanfilterv+0x3a>
}
 8001740:	b006      	add	sp, #24
 8001742:	ecbd 8b0a 	vpop	{d8-d12}
 8001746:	e8bd 87f0 	ldmia.w	sp!, {r4, r5, r6, r7, r8, r9, sl, pc}
{return _micros + htim11.Instance->CNT;}
 800174a:	6a7b      	ldr	r3, [r7, #36]	; 0x24
  EIGEN_DEVICE_FUNC EIGEN_STRONG_INLINE result_type operator() (const LhsScalar& a, const RhsScalar& b) const { return a * b; }
 800174c:	4ac3      	ldr	r2, [pc, #780]	; (8001a5c <_Z12Kalmanfilterv+0x34c>)
 800174e:	f8df 9348 	ldr.w	r9, [pc, #840]	; 8001a98 <_Z12Kalmanfilterv+0x388>
 8001752:	ed92 6a00 	vldr	s12, [r2]
 8001756:	edd2 6a01 	vldr	s13, [r2, #4]
 800175a:	ed92 7a02 	vldr	s14, [r2, #8]
 800175e:	4ac0      	ldr	r2, [pc, #768]	; (8001a60 <_Z12Kalmanfilterv+0x350>)
  {
#ifndef EIGEN_NO_DEBUG
    internal::check_for_aliasing(dst, src);
#endif

    call_dense_assignment_loop(dst, src, func);
 8001760:	4fc0      	ldr	r7, [pc, #768]	; (8001a64 <_Z12Kalmanfilterv+0x354>)
      : m_lhs(aLhs), m_rhs(aRhs), m_functor(func)
 8001762:	f8df 8338 	ldr.w	r8, [pc, #824]	; 8001a9c <_Z12Kalmanfilterv+0x38c>
 8001766:	f8df a338 	ldr.w	sl, [pc, #824]	; 8001aa0 <_Z12Kalmanfilterv+0x390>
 800176a:	185b      	adds	r3, r3, r1
namespace internal {

template<typename Scalar>
struct scalar_constant_op {
  EIGEN_DEVICE_FUNC EIGEN_STRONG_INLINE scalar_constant_op(const scalar_constant_op& other) : m_other(other.m_other) { }
  EIGEN_DEVICE_FUNC EIGEN_STRONG_INLINE scalar_constant_op(const Scalar& other) : m_other(other) { }
 800176c:	49be      	ldr	r1, [pc, #760]	; (8001a68 <_Z12Kalmanfilterv+0x358>)
		 TimeStampKalman = micros();
 800176e:	602b      	str	r3, [r5, #0]
 8001770:	edd1 7a00 	vldr	s15, [r1]
 8001774:	4bbd      	ldr	r3, [pc, #756]	; (8001a6c <_Z12Kalmanfilterv+0x35c>)
 8001776:	9301      	str	r3, [sp, #4]
 8001778:	ee27 5a86 	vmul.f32	s10, s15, s12
 800177c:	ee67 5aa6 	vmul.f32	s11, s15, s13
 8001780:	ee67 7a87 	vmul.f32	s15, s15, s14
 8001784:	ee25 3a26 	vmul.f32	s6, s10, s13
 8001788:	ee26 4a05 	vmul.f32	s8, s12, s10
 800178c:	ee66 4a25 	vmul.f32	s9, s12, s11
 8001790:	ee66 3aa5 	vmul.f32	s7, s13, s11
 8001794:	ee25 5a07 	vmul.f32	s10, s10, s14
 8001798:	ee66 6aa7 	vmul.f32	s13, s13, s15
 800179c:	ee65 5a87 	vmul.f32	s11, s11, s14
 80017a0:	ee27 7a27 	vmul.f32	s14, s14, s15
 80017a4:	ee26 6a27 	vmul.f32	s12, s12, s15
 80017a8:	edc2 3a04 	vstr	s7, [r2, #16]
 80017ac:	edd9 7a01 	vldr	s15, [r9, #4]
 80017b0:	edd3 3a05 	vldr	s7, [r3, #20]
 80017b4:	edc2 6a05 	vstr	s13, [r2, #20]
 80017b8:	ed82 7a08 	vstr	s14, [r2, #32]
 80017bc:	edd3 6a03 	vldr	s13, [r3, #12]
 80017c0:	ed93 7a04 	vldr	s14, [r3, #16]
 80017c4:	ed82 4a00 	vstr	s8, [r2]
 80017c8:	ed82 6a02 	vstr	s12, [r2, #8]
 80017cc:	ed99 4a00 	vldr	s8, [r9]
 80017d0:	ed93 6a02 	vldr	s12, [r3, #8]
 80017d4:	ed82 5a06 	vstr	s10, [r2, #24]
 80017d8:	edc2 5a07 	vstr	s11, [r2, #28]
 80017dc:	ed93 5a00 	vldr	s10, [r3]
 80017e0:	edd3 5a01 	vldr	s11, [r3, #4]
 80017e4:	edc2 4a01 	vstr	s9, [r2, #4]
 80017e8:	ee67 6aa6 	vmul.f32	s13, s15, s13
 80017ec:	ee27 7a87 	vmul.f32	s14, s15, s14
 80017f0:	ee67 7aa3 	vmul.f32	s15, s15, s7
 80017f4:	eee5 6a04 	vfma.f32	s13, s10, s8
 80017f8:	a901      	add	r1, sp, #4
 80017fa:	4638      	mov	r0, r7
 80017fc:	eea4 7a25 	vfma.f32	s14, s8, s11
 8001800:	eee4 7a06 	vfma.f32	s15, s8, s12
 8001804:	edd9 4a02 	vldr	s9, [r9, #8]
 8001808:	ed93 5a06 	vldr	s10, [r3, #24]
 800180c:	edd3 5a07 	vldr	s11, [r3, #28]
 8001810:	ed93 6a08 	vldr	s12, [r3, #32]
 8001814:	ed82 3a03 	vstr	s6, [r2, #12]
  EIGEN_DEVICE_FUNC EIGEN_STRONG_INLINE result_type operator() (const LhsScalar& a, const RhsScalar& b) const { return a + b; }
 8001818:	eee5 6a24 	vfma.f32	s13, s10, s9
 800181c:	eea4 7aa5 	vfma.f32	s14, s9, s11
 8001820:	eee4 7a86 	vfma.f32	s15, s9, s12
 8001824:	edca 6a00 	vstr	s13, [sl]
 8001828:	ed8a 7a01 	vstr	s14, [sl, #4]
 800182c:	edca 7a02 	vstr	s15, [sl, #8]
 8001830:	e9cd 8302 	strd	r8, r3, [sp, #8]
 8001834:	9204      	str	r2, [sp, #16]
 8001836:	466a      	mov	r2, sp
 8001838:	f7ff fe80 	bl	800153c <_ZN5Eigen8internal26call_dense_assignment_loopINS_6MatrixIfLi3ELi3ELi0ELi3ELi3EEENS_13CwiseBinaryOpINS0_13scalar_sum_opIffEEKNS_7ProductINS7_IS3_S3_Li0EEENS_9TransposeIS3_EELi0EEEKS3_EENS0_9assign_opIffEEEEvRT_RKT0_RKT1_>
 800183c:	4b8c      	ldr	r3, [pc, #560]	; (8001a70 <_Z12Kalmanfilterv+0x360>)
 800183e:	edd7 1a04 	vldr	s3, [r7, #16]
 8001842:	ed93 1a01 	vldr	s2, [r3, #4]
 8001846:	edd3 3a00 	vldr	s7, [r3]
 800184a:	edd7 2a03 	vldr	s5, [r7, #12]
 800184e:	ed97 7a01 	vldr	s14, [r7, #4]
 8001852:	edd7 8a00 	vldr	s17, [r7]
 8001856:	ed93 2a02 	vldr	s4, [r3, #8]
 800185a:	ed97 4a05 	vldr	s8, [r7, #20]
 800185e:	ed97 8a02 	vldr	s16, [r7, #8]
 8001862:	ed97 3a06 	vldr	s6, [r7, #24]
 8001866:	edd7 4a08 	vldr	s9, [r7, #32]
 800186a:	ed97 5a07 	vldr	s10, [r7, #28]
 800186e:	4b81      	ldr	r3, [pc, #516]	; (8001a74 <_Z12Kalmanfilterv+0x364>)
 8001870:	ed9a 9a02 	vldr	s18, [sl, #8]
 8001874:	edd3 0a00 	vldr	s1, [r3]
 8001878:	edda 9a01 	vldr	s19, [sl, #4]
    m_xpr.coeffRef(0,0) = s;
 800187c:	4b7e      	ldr	r3, [pc, #504]	; (8001a78 <_Z12Kalmanfilterv+0x368>)
 800187e:	ed9a aa00 	vldr	s20, [sl]
 8001882:	4a7e      	ldr	r2, [pc, #504]	; (8001a7c <_Z12Kalmanfilterv+0x36c>)
		 KalP = X(0,0);
 8001884:	497e      	ldr	r1, [pc, #504]	; (8001a80 <_Z12Kalmanfilterv+0x370>)
  EIGEN_DEVICE_FUNC EIGEN_STRONG_INLINE result_type operator() (const LhsScalar& a, const RhsScalar& b) const { return a * b; }
 8001886:	ee21 6a21 	vmul.f32	s12, s2, s3
 800188a:	ee61 7a07 	vmul.f32	s15, s2, s14
 800188e:	eef0 6a46 	vmov.f32	s13, s12
 8001892:	eee3 6aa2 	vfma.f32	s13, s7, s5
 8001896:	eee8 7aa3 	vfma.f32	s15, s17, s7
  EIGEN_DEVICE_FUNC EIGEN_STRONG_INLINE result_type operator() (const LhsScalar& a, const RhsScalar& b) const { return a + b; }
 800189a:	eee2 6a04 	vfma.f32	s13, s4, s8
 800189e:	eee2 7a08 	vfma.f32	s15, s4, s16
  EIGEN_DEVICE_FUNC EIGEN_STRONG_INLINE result_type operator() (const LhsScalar& a, const RhsScalar& b) const { return a * b; }
 80018a2:	ee61 6a26 	vmul.f32	s13, s2, s13
  EIGEN_DEVICE_FUNC
  static inline void run(const MatrixType& matrix, ResultType& result)
  {
    typedef typename MatrixType::Scalar Scalar;
    internal::evaluator<MatrixType> matrixEval(matrix);
    result.coeffRef(0,0) = Scalar(1) / matrixEval.coeff(0,0);
 80018a6:	eef7 5a00 	vmov.f32	s11, #112	; 0x3f800000  1.0
 80018aa:	eee3 6aa7 	vfma.f32	s13, s7, s15
 80018ae:	ee63 7a83 	vmul.f32	s15, s7, s6
  EIGEN_DEVICE_FUNC EIGEN_STRONG_INLINE result_type operator() (const LhsScalar& a, const RhsScalar& b) const { return a + b; }
 80018b2:	ee76 6aa0 	vadd.f32	s13, s13, s1
 80018b6:	eee2 7a24 	vfma.f32	s15, s4, s9
  EIGEN_DEVICE_FUNC EIGEN_STRONG_INLINE result_type operator() (const LhsScalar& a, const RhsScalar& b) const { return a * b; }
 80018ba:	ee22 ca81 	vmul.f32	s24, s5, s2
  EIGEN_DEVICE_FUNC EIGEN_STRONG_INLINE result_type operator() (const LhsScalar& a, const RhsScalar& b) const { return a + b; }
 80018be:	eee1 7a05 	vfma.f32	s15, s2, s10
 80018c2:	eea3 6a87 	vfma.f32	s12, s7, s14
 80018c6:	eee2 6a27 	vfma.f32	s13, s4, s15
 80018ca:	eea8 caa3 	vfma.f32	s24, s17, s7
 80018ce:	eec5 0aa6 	vdiv.f32	s1, s11, s13
  EIGEN_DEVICE_FUNC EIGEN_STRONG_INLINE result_type operator() (const LhsScalar& a, const RhsScalar& b) const { return a * b; }
 80018d2:	ee61 5a04 	vmul.f32	s11, s2, s8
  EIGEN_DEVICE_FUNC EIGEN_STRONG_INLINE result_type operator() (const LhsScalar& a, const RhsScalar& b) const { return a + b; }
 80018d6:	eea2 6a05 	vfma.f32	s12, s4, s10
 80018da:	eee3 5a88 	vfma.f32	s11, s7, s16
 80018de:	eea3 ca02 	vfma.f32	s24, s6, s4
 80018e2:	eee2 5a24 	vfma.f32	s11, s4, s9
  EIGEN_DEVICE_FUNC EIGEN_STRONG_INLINE result_type operator() (const LhsScalar& a, const RhsScalar& b) const { return a * b; }
 80018e6:	ee69 6a02 	vmul.f32	s13, s18, s4
 80018ea:	ee60 7a86 	vmul.f32	s15, s1, s12
 80018ee:	eee9 6a81 	vfma.f32	s13, s19, s2
 80018f2:	ee20 ca8c 	vmul.f32	s24, s1, s24
 80018f6:	ee60 5aa5 	vmul.f32	s11, s1, s11
 80018fa:	edd3 0a00 	vldr	s1, [r3]
 80018fe:	ed82 ca00 	vstr	s24, [r2]
    dst.coeffRef(0,0) += (lhs.transpose().cwiseProduct(rhs)).sum();
  }

  template<typename Dst>
  static EIGEN_DEVICE_FUNC EIGEN_STRONG_INLINE void subTo(Dst& dst, const Lhs& lhs, const Rhs& rhs)
  { dst.coeffRef(0,0) -= (lhs.transpose().cwiseProduct(rhs)).sum(); }
 8001902:	ee70 6ae6 	vsub.f32	s13, s1, s13
  *
  */
template<typename DstScalar,typename SrcScalar> struct add_assign_op {

  EIGEN_EMPTY_STRUCT_CTOR(add_assign_op)
  EIGEN_DEVICE_FUNC EIGEN_STRONG_INLINE void assignCoeff(DstScalar& a, const SrcScalar& b) const { a += b; }
 8001906:	eeb0 6a4a 	vmov.f32	s12, s20
 800190a:	eeea 6a63 	vfms.f32	s13, s20, s7
  EIGEN_DEVICE_FUNC EIGEN_STRONG_INLINE void assignCoeff(DstScalar& a, const SrcScalar& b) const { a = b; }
 800190e:	4b5d      	ldr	r3, [pc, #372]	; (8001a84 <_Z12Kalmanfilterv+0x374>)
 8001910:	edc2 5a02 	vstr	s11, [r2, #8]
  EIGEN_DEVICE_FUNC EIGEN_STRONG_INLINE void assignCoeff(DstScalar& a, const SrcScalar& b) const { a += b; }
 8001914:	eeac 6a26 	vfma.f32	s12, s24, s13
  EIGEN_DEVICE_FUNC EIGEN_STRONG_INLINE void assignCoeff(DstScalar& a, const SrcScalar& b) const { a = b; }
 8001918:	edc2 7a01 	vstr	s15, [r2, #4]
 800191c:	ed89 6a00 	vstr	s12, [r9]
  EIGEN_DEVICE_FUNC EIGEN_STRONG_INLINE void assignCoeff(DstScalar& a, const SrcScalar& b) const { a += b; }
 8001920:	eeb0 6a69 	vmov.f32	s12, s19
 8001924:	eea7 6aa6 	vfma.f32	s12, s15, s13
 8001928:	4a57      	ldr	r2, [pc, #348]	; (8001a88 <_Z12Kalmanfilterv+0x378>)
  EIGEN_DEVICE_FUNC EIGEN_STRONG_INLINE void assignCoeff(DstScalar& a, const SrcScalar& b) const { a = b; }
 800192a:	edd3 ba05 	vldr	s23, [r3, #20]
 800192e:	ed89 6a01 	vstr	s12, [r9, #4]
  EIGEN_DEVICE_FUNC EIGEN_STRONG_INLINE void assignCoeff(DstScalar& a, const SrcScalar& b) const { a += b; }
 8001932:	eeb0 6a49 	vmov.f32	s12, s18
 8001936:	eea5 6aa6 	vfma.f32	s12, s11, s13
  EIGEN_DEVICE_FUNC EIGEN_STRONG_INLINE void assignCoeff(DstScalar& a, const SrcScalar& b) const { a = b; }
 800193a:	ed93 ba01 	vldr	s22, [r3, #4]
 800193e:	edd3 6a03 	vldr	s13, [r3, #12]
 8001942:	ed89 6a02 	vstr	s12, [r9, #8]
 8001946:	edc2 0a00 	vstr	s1, [r2]
 800194a:	ed93 6a04 	vldr	s12, [r3, #16]
 800194e:	edd3 0a07 	vldr	s1, [r3, #28]
 8001952:	edd3 aa02 	vldr	s21, [r3, #8]
 8001956:	ed93 0a06 	vldr	s0, [r3, #24]
  *
  */
template<typename DstScalar,typename SrcScalar> struct sub_assign_op {

  EIGEN_EMPTY_STRUCT_CTOR(sub_assign_op)
  EIGEN_DEVICE_FUNC EIGEN_STRONG_INLINE void assignCoeff(DstScalar& a, const SrcScalar& b) const { a -= b; }
 800195a:	eee1 ba65 	vfms.f32	s23, s2, s11
 800195e:	eea3 bae7 	vfms.f32	s22, s7, s15
 8001962:	eee1 6a4c 	vfms.f32	s13, s2, s24
 8001966:	eea1 6a67 	vfms.f32	s12, s2, s15
 800196a:	eee2 0a67 	vfms.f32	s1, s4, s15
  EIGEN_DEVICE_FUNC EIGEN_STRONG_INLINE void assignCoeff(DstScalar& a, const SrcScalar& b) const { a = b; }
 800196e:	ed93 1a08 	vldr	s2, [r3, #32]
  EIGEN_DEVICE_FUNC EIGEN_STRONG_INLINE void assignCoeff(DstScalar& a, const SrcScalar& b) const { a -= b; }
 8001972:	edd3 7a00 	vldr	s15, [r3]
{return _micros + htim11.Instance->CNT;}
 8001976:	6833      	ldr	r3, [r6, #0]
		 runtime = micros()-TimeStampKalman;
 8001978:	682a      	ldr	r2, [r5, #0]
{return _micros + htim11.Instance->CNT;}
 800197a:	6a5b      	ldr	r3, [r3, #36]	; 0x24
		 KalP = X(0,0);
 800197c:	ed81 aa00 	vstr	s20, [r1]
 8001980:	eee3 7acc 	vfms.f32	s15, s7, s24
		 runtime = micros()-TimeStampKalman;
 8001984:	1a9a      	subs	r2, r3, r2
 8001986:	e9d4 3000 	ldrd	r3, r0, [r4]
 800198a:	eee3 aae5 	vfms.f32	s21, s7, s11
 800198e:	eb61 0101 	sbc.w	r1, r1, r1
 8001992:	189b      	adds	r3, r3, r2
 8001994:	eea2 1a65 	vfms.f32	s2, s4, s11
 8001998:	eb41 0000 	adc.w	r0, r1, r0
 800199c:	493b      	ldr	r1, [pc, #236]	; (8001a8c <_Z12Kalmanfilterv+0x37c>)
		 KalV = X(1,0);
 800199e:	4c3c      	ldr	r4, [pc, #240]	; (8001a90 <_Z12Kalmanfilterv+0x380>)
		 runtime = micros()-TimeStampKalman;
 80019a0:	600b      	str	r3, [r1, #0]
 80019a2:	ee67 5a26 	vmul.f32	s11, s14, s13
 80019a6:	eea2 0a4c 	vfms.f32	s0, s4, s24
		 KalA = X(2,0);
 80019aa:	4b3a      	ldr	r3, [pc, #232]	; (8001a94 <_Z12Kalmanfilterv+0x384>)
		 runtime = micros()-TimeStampKalman;
 80019ac:	6048      	str	r0, [r1, #4]
 80019ae:	eee8 5aa7 	vfma.f32	s11, s17, s15
 80019b2:	ee61 3aa6 	vmul.f32	s7, s3, s13
  EIGEN_DEVICE_FUNC EIGEN_STRONG_INLINE result_type operator() (const LhsScalar& a, const RhsScalar& b) const { return a + b; }
 80019b6:	eee8 5a00 	vfma.f32	s11, s16, s0
  EIGEN_DEVICE_FUNC EIGEN_STRONG_INLINE result_type operator() (const LhsScalar& a, const RhsScalar& b) const { return a * b; }
 80019ba:	ee65 6a26 	vmul.f32	s13, s10, s13
  EIGEN_DEVICE_FUNC EIGEN_STRONG_INLINE void assignCoeff(DstScalar& a, const SrcScalar& b) const { a = b; }
 80019be:	edc8 5a00 	vstr	s11, [r8]
 80019c2:	ee67 5a06 	vmul.f32	s11, s14, s12
 80019c6:	ee27 7a2b 	vmul.f32	s14, s14, s23
 80019ca:	eee8 5a8b 	vfma.f32	s11, s17, s22
  EIGEN_DEVICE_FUNC EIGEN_STRONG_INLINE result_type operator() (const LhsScalar& a, const RhsScalar& b) const { return a + b; }
 80019ce:	eea8 7aaa 	vfma.f32	s14, s17, s21
 80019d2:	eee8 5a20 	vfma.f32	s11, s16, s1
 80019d6:	eea8 7a01 	vfma.f32	s14, s16, s2
  EIGEN_DEVICE_FUNC EIGEN_STRONG_INLINE result_type operator() (const LhsScalar& a, const RhsScalar& b) const { return a * b; }
 80019da:	eee2 3aa7 	vfma.f32	s7, s5, s15
  EIGEN_DEVICE_FUNC EIGEN_STRONG_INLINE result_type operator() (const LhsScalar& a, const RhsScalar& b) const { return a + b; }
 80019de:	eee3 6a27 	vfma.f32	s13, s6, s15
 80019e2:	edc8 5a01 	vstr	s11, [r8, #4]
  EIGEN_DEVICE_FUNC EIGEN_STRONG_INLINE result_type operator() (const LhsScalar& a, const RhsScalar& b) const { return a * b; }
 80019e6:	ee65 7a2b 	vmul.f32	s15, s10, s23
 80019ea:	ee65 5a06 	vmul.f32	s11, s10, s12
 80019ee:	ed88 7a02 	vstr	s14, [r8, #8]
 80019f2:	ee21 6a86 	vmul.f32	s12, s3, s12
 80019f6:	ee21 7aab 	vmul.f32	s14, s3, s23
 80019fa:	eea2 6a8b 	vfma.f32	s12, s5, s22
 80019fe:	eea2 7aaa 	vfma.f32	s14, s5, s21
 8001a02:	eee3 5a0b 	vfma.f32	s11, s6, s22
 8001a06:	eee3 7a2a 	vfma.f32	s15, s6, s21
  EIGEN_DEVICE_FUNC EIGEN_STRONG_INLINE result_type operator() (const LhsScalar& a, const RhsScalar& b) const { return a + b; }
 8001a0a:	eeb0 5a63 	vmov.f32	s10, s7
 8001a0e:	eea4 5a00 	vfma.f32	s10, s8, s0
 8001a12:	eea4 6a20 	vfma.f32	s12, s8, s1
 8001a16:	eea4 7a01 	vfma.f32	s14, s8, s2
 8001a1a:	eee4 6a80 	vfma.f32	s13, s9, s0
 8001a1e:	eee4 5aa0 	vfma.f32	s11, s9, s1
 8001a22:	eee4 7a81 	vfma.f32	s15, s9, s2
		 KalV = X(1,0);
 8001a26:	edc4 9a00 	vstr	s19, [r4]
		 KalA = X(2,0);
 8001a2a:	ed83 9a00 	vstr	s18, [r3]
 8001a2e:	ed88 5a03 	vstr	s10, [r8, #12]
 8001a32:	ed88 6a04 	vstr	s12, [r8, #16]
 8001a36:	ed88 7a05 	vstr	s14, [r8, #20]
 8001a3a:	edc8 6a06 	vstr	s13, [r8, #24]
 8001a3e:	edc8 5a07 	vstr	s11, [r8, #28]
 8001a42:	edc8 7a08 	vstr	s15, [r8, #32]
}
 8001a46:	b006      	add	sp, #24
 8001a48:	ecbd 8b0a 	vpop	{d8-d12}
 8001a4c:	e8bd 87f0 	ldmia.w	sp!, {r4, r5, r6, r7, r8, r9, sl, pc}
 8001a50:	20000408 	.word	0x20000408
 8001a54:	200002c4 	.word	0x200002c4
 8001a58:	20000300 	.word	0x20000300
 8001a5c:	200001a8 	.word	0x200001a8
 8001a60:	2000027c 	.word	0x2000027c
 8001a64:	2000023c 	.word	0x2000023c
 8001a68:	20000018 	.word	0x20000018
 8001a6c:	200000cc 	.word	0x200000cc
 8001a70:	20000100 	.word	0x20000100
 8001a74:	200002a0 	.word	0x200002a0
 8001a78:	20000234 	.word	0x20000234
 8001a7c:	200001e0 	.word	0x200001e0
 8001a80:	200001fc 	.word	0x200001fc
 8001a84:	200001b8 	.word	0x200001b8
 8001a88:	200002f8 	.word	0x200002f8
 8001a8c:	20000530 	.word	0x20000530
 8001a90:	20000200 	.word	0x20000200
 8001a94:	200001f8 	.word	0x200001f8
 8001a98:	200002ec 	.word	0x200002ec
 8001a9c:	20000208 	.word	0x20000208
 8001aa0:	200002e0 	.word	0x200002e0

08001aa4 <_Z13GrandStatumixv>:
void GrandStatumix(){
 8001aa4:	b570      	push	{r4, r5, r6, lr}
	if (grandState != Ready){
 8001aa6:	4c69      	ldr	r4, [pc, #420]	; (8001c4c <_Z13GrandStatumixv+0x1a8>)
 8001aa8:	7823      	ldrb	r3, [r4, #0]
void GrandStatumix(){
 8001aaa:	b084      	sub	sp, #16
	if (grandState != Ready){
 8001aac:	b9d3      	cbnz	r3, 8001ae4 <_Z13GrandStatumixv+0x40>
			HAL_GPIO_WritePin(PLamp_Blue_GPIO_Port, PLamp_Blue_Pin, GPIO_PIN_RESET);
 8001aae:	4868      	ldr	r0, [pc, #416]	; (8001c50 <_Z13GrandStatumixv+0x1ac>)
 8001ab0:	2200      	movs	r2, #0
 8001ab2:	f44f 4180 	mov.w	r1, #16384	; 0x4000
 8001ab6:	f001 fb95 	bl	80031e4 <HAL_GPIO_WritePin>
				HAL_GPIO_WritePin(PLamp_Yellow_GPIO_Port, PLamp_Yellow_Pin, GPIO_PIN_RESET);
 8001aba:	4865      	ldr	r0, [pc, #404]	; (8001c50 <_Z13GrandStatumixv+0x1ac>)
	stop_sense = HAL_GPIO_ReadPin(Stop_Sense_GPIO_Port, Stop_Sense_Pin);
 8001abc:	4d65      	ldr	r5, [pc, #404]	; (8001c54 <_Z13GrandStatumixv+0x1b0>)
				HAL_GPIO_WritePin(PLamp_Yellow_GPIO_Port, PLamp_Yellow_Pin, GPIO_PIN_RESET);
 8001abe:	2200      	movs	r2, #0
 8001ac0:	f44f 4100 	mov.w	r1, #32768	; 0x8000
 8001ac4:	f001 fb8e 	bl	80031e4 <HAL_GPIO_WritePin>
	stop_sense = HAL_GPIO_ReadPin(Stop_Sense_GPIO_Port, Stop_Sense_Pin);
 8001ac8:	4863      	ldr	r0, [pc, #396]	; (8001c58 <_Z13GrandStatumixv+0x1b4>)
 8001aca:	f44f 5180 	mov.w	r1, #4096	; 0x1000
 8001ace:	f001 fb83 	bl	80031d8 <HAL_GPIO_ReadPin>
	switch(grandState){
 8001ad2:	7823      	ldrb	r3, [r4, #0]
	stop_sense = HAL_GPIO_ReadPin(Stop_Sense_GPIO_Port, Stop_Sense_Pin);
 8001ad4:	7028      	strb	r0, [r5, #0]
	switch(grandState){
 8001ad6:	3b01      	subs	r3, #1
 8001ad8:	2b03      	cmp	r3, #3
 8001ada:	d865      	bhi.n	8001ba8 <_Z13GrandStatumixv+0x104>
 8001adc:	e8df f003 	tbb	[pc, r3]
 8001ae0:	0c1e4c36 	.word	0x0c1e4c36
		HAL_GPIO_WritePin(PLamp_Green_GPIO_Port, PLamp_Green_Pin, GPIO_PIN_RESET);
 8001ae4:	485a      	ldr	r0, [pc, #360]	; (8001c50 <_Z13GrandStatumixv+0x1ac>)
 8001ae6:	2200      	movs	r2, #0
 8001ae8:	f44f 5100 	mov.w	r1, #8192	; 0x2000
 8001aec:	f001 fb7a 	bl	80031e4 <HAL_GPIO_WritePin>
	if (grandState != work){
 8001af0:	7823      	ldrb	r3, [r4, #0]
 8001af2:	2b01      	cmp	r3, #1
 8001af4:	d0e1      	beq.n	8001aba <_Z13GrandStatumixv+0x16>
 8001af6:	e7da      	b.n	8001aae <_Z13GrandStatumixv+0xa>
			HAL_GPIO_WritePin(PLamp_Yellow_GPIO_Port, PLamp_Yellow_Pin, GPIO_PIN_SET);
 8001af8:	4855      	ldr	r0, [pc, #340]	; (8001c50 <_Z13GrandStatumixv+0x1ac>)
 8001afa:	2201      	movs	r2, #1
 8001afc:	f44f 4100 	mov.w	r1, #32768	; 0x8000
 8001b00:	f001 fb70 	bl	80031e4 <HAL_GPIO_WritePin>
			if (stop_sense == 1){
 8001b04:	782b      	ldrb	r3, [r5, #0]
			PWMOut = 0;
 8001b06:	4855      	ldr	r0, [pc, #340]	; (8001c5c <_Z13GrandStatumixv+0x1b8>)
			Integral = 0;
 8001b08:	4a55      	ldr	r2, [pc, #340]	; (8001c60 <_Z13GrandStatumixv+0x1bc>)
 8001b0a:	2100      	movs	r1, #0
			PWMOut = 0;
 8001b0c:	2500      	movs	r5, #0
			if (stop_sense == 1){
 8001b0e:	2b01      	cmp	r3, #1
			PWMOut = 0;
 8001b10:	8005      	strh	r5, [r0, #0]
			Integral = 0;
 8001b12:	6011      	str	r1, [r2, #0]
			if (stop_sense == 1){
 8001b14:	f000 8090 	beq.w	8001c38 <_Z13GrandStatumixv+0x194>
}
 8001b18:	b004      	add	sp, #16
 8001b1a:	bd70      	pop	{r4, r5, r6, pc}
		if (pwr_sense == 0){
 8001b1c:	4a51      	ldr	r2, [pc, #324]	; (8001c64 <_Z13GrandStatumixv+0x1c0>)
		PWMOut = 0;
 8001b1e:	4b4f      	ldr	r3, [pc, #316]	; (8001c5c <_Z13GrandStatumixv+0x1b8>)
		if (pwr_sense == 0){
 8001b20:	7815      	ldrb	r5, [r2, #0]
		PWMOut = 0;
 8001b22:	2200      	movs	r2, #0
 8001b24:	801a      	strh	r2, [r3, #0]
		if (pwr_sense == 0){
 8001b26:	2d00      	cmp	r5, #0
 8001b28:	d1f6      	bne.n	8001b18 <_Z13GrandStatumixv+0x74>
			HAL_Delay(100);
 8001b2a:	2064      	movs	r0, #100	; 0x64
			grandState = Ready;
 8001b2c:	7025      	strb	r5, [r4, #0]
			HAL_Delay(100);
 8001b2e:	f000 fff9 	bl	8002b24 <HAL_Delay>
	HAL_I2C_Mem_Write(&hi2c1, ADDR_IOXT, 0x00, I2C_MEMADD_SIZE_8BIT, Setting,
 8001b32:	4b4d      	ldr	r3, [pc, #308]	; (8001c68 <_Z13GrandStatumixv+0x1c4>)
 8001b34:	9300      	str	r3, [sp, #0]
 8001b36:	2164      	movs	r1, #100	; 0x64
 8001b38:	2216      	movs	r2, #22
 8001b3a:	e9cd 2101 	strd	r2, r1, [sp, #4]
 8001b3e:	2301      	movs	r3, #1
 8001b40:	462a      	mov	r2, r5
 8001b42:	2140      	movs	r1, #64	; 0x40
 8001b44:	4849      	ldr	r0, [pc, #292]	; (8001c6c <_Z13GrandStatumixv+0x1c8>)
 8001b46:	f001 fe79 	bl	800383c <HAL_I2C_Mem_Write>
}
 8001b4a:	e7e5      	b.n	8001b18 <_Z13GrandStatumixv+0x74>
		HAL_GPIO_WritePin(PLamp_Blue_GPIO_Port, PLamp_Blue_Pin, GPIO_PIN_SET);
 8001b4c:	4840      	ldr	r0, [pc, #256]	; (8001c50 <_Z13GrandStatumixv+0x1ac>)
 8001b4e:	2201      	movs	r2, #1
 8001b50:	f44f 4180 	mov.w	r1, #16384	; 0x4000
 8001b54:	f001 fb46 	bl	80031e4 <HAL_GPIO_WritePin>
		if (pwr_sense == 1){
 8001b58:	4b42      	ldr	r3, [pc, #264]	; (8001c64 <_Z13GrandStatumixv+0x1c0>)
 8001b5a:	781b      	ldrb	r3, [r3, #0]
 8001b5c:	2b01      	cmp	r3, #1
 8001b5e:	d06f      	beq.n	8001c40 <_Z13GrandStatumixv+0x19c>
		if (stop_sense == 0){
 8001b60:	782b      	ldrb	r3, [r5, #0]
 8001b62:	2b00      	cmp	r3, #0
 8001b64:	d1d8      	bne.n	8001b18 <_Z13GrandStatumixv+0x74>
			PWMOut = 0;
 8001b66:	483d      	ldr	r0, [pc, #244]	; (8001c5c <_Z13GrandStatumixv+0x1b8>)
			u_contr = 0;}
 8001b68:	4a41      	ldr	r2, [pc, #260]	; (8001c70 <_Z13GrandStatumixv+0x1cc>)
			PWMOut = 0;
 8001b6a:	8003      	strh	r3, [r0, #0]
			u_contr = 0;}
 8001b6c:	2100      	movs	r1, #0
			grandState = stopnd;
 8001b6e:	2504      	movs	r5, #4
 8001b70:	7025      	strb	r5, [r4, #0]
			u_contr = 0;}
 8001b72:	6011      	str	r1, [r2, #0]
}
 8001b74:	b004      	add	sp, #16
 8001b76:	bd70      	pop	{r4, r5, r6, pc}
		HAL_GPIO_WritePin(PLamp_Yellow_GPIO_Port, PLamp_Yellow_Pin, GPIO_PIN_SET);
 8001b78:	4835      	ldr	r0, [pc, #212]	; (8001c50 <_Z13GrandStatumixv+0x1ac>)
 8001b7a:	2201      	movs	r2, #1
 8001b7c:	f44f 4100 	mov.w	r1, #32768	; 0x8000
 8001b80:	f001 fb30 	bl	80031e4 <HAL_GPIO_WritePin>
		PWMOut = 0;
 8001b84:	4835      	ldr	r0, [pc, #212]	; (8001c5c <_Z13GrandStatumixv+0x1b8>)
		if (stop_sense == 1){
 8001b86:	7829      	ldrb	r1, [r5, #0]
		PWMOut = 0;
 8001b88:	2200      	movs	r2, #0
 8001b8a:	8002      	strh	r2, [r0, #0]
		X(1,0)=0;
 8001b8c:	4839      	ldr	r0, [pc, #228]	; (8001c74 <_Z13GrandStatumixv+0x1d0>)
 8001b8e:	2300      	movs	r3, #0
 8001b90:	6043      	str	r3, [r0, #4]
	    KalV = X(1,0);
 8001b92:	4839      	ldr	r0, [pc, #228]	; (8001c78 <_Z13GrandStatumixv+0x1d4>)
		if (stop_sense == 1){
 8001b94:	2901      	cmp	r1, #1
	    KalV = X(1,0);
 8001b96:	6003      	str	r3, [r0, #0]
		if (stop_sense == 1){
 8001b98:	d1be      	bne.n	8001b18 <_Z13GrandStatumixv+0x74>
			mot_dirctn%=2;
 8001b9a:	4938      	ldr	r1, [pc, #224]	; (8001c7c <_Z13GrandStatumixv+0x1d8>)
			grandState = Ready;
 8001b9c:	7022      	strb	r2, [r4, #0]
			mot_dirctn%=2;
 8001b9e:	780b      	ldrb	r3, [r1, #0]
 8001ba0:	f003 0301 	and.w	r3, r3, #1
 8001ba4:	700b      	strb	r3, [r1, #0]
 8001ba6:	e7b7      	b.n	8001b18 <_Z13GrandStatumixv+0x74>
		HAL_GPIO_WritePin(PLamp_Green_GPIO_Port, PLamp_Green_Pin, GPIO_PIN_SET);
 8001ba8:	4829      	ldr	r0, [pc, #164]	; (8001c50 <_Z13GrandStatumixv+0x1ac>)
 8001baa:	2201      	movs	r2, #1
 8001bac:	f44f 5100 	mov.w	r1, #8192	; 0x2000
 8001bb0:	f001 fb18 	bl	80031e4 <HAL_GPIO_WritePin>
		Unwrapping();
 8001bb4:	f7ff fa04 	bl	8000fc0 <_Z10Unwrappingv>
{return _micros + htim11.Instance->CNT;}
 8001bb8:	4b31      	ldr	r3, [pc, #196]	; (8001c80 <_Z13GrandStatumixv+0x1dc>)
	if(micros() - TimeStampdiff>= 1000){
 8001bba:	4832      	ldr	r0, [pc, #200]	; (8001c84 <_Z13GrandStatumixv+0x1e0>)
{return _micros + htim11.Instance->CNT;}
 8001bbc:	681e      	ldr	r6, [r3, #0]
	Pos1=OutUnwrap;
 8001bbe:	4b32      	ldr	r3, [pc, #200]	; (8001c88 <_Z13GrandStatumixv+0x1e4>)
	if(micros() - TimeStampdiff>= 1000){
 8001bc0:	6802      	ldr	r2, [r0, #0]
	Pos1=OutUnwrap;
 8001bc2:	ed93 7a00 	vldr	s14, [r3]
 8001bc6:	4b31      	ldr	r3, [pc, #196]	; (8001c8c <_Z13GrandStatumixv+0x1e8>)
{return _micros + htim11.Instance->CNT;}
 8001bc8:	4931      	ldr	r1, [pc, #196]	; (8001c90 <_Z13GrandStatumixv+0x1ec>)
	Pos1=OutUnwrap;
 8001bca:	ed83 7a00 	vstr	s14, [r3]
{return _micros + htim11.Instance->CNT;}
 8001bce:	6a73      	ldr	r3, [r6, #36]	; 0x24
	if(micros() - TimeStampdiff>= 1000){
 8001bd0:	1a9b      	subs	r3, r3, r2
{return _micros + htim11.Instance->CNT;}
 8001bd2:	e9d1 2100 	ldrd	r2, r1, [r1]
	if(micros() - TimeStampdiff>= 1000){
 8001bd6:	eb6e 0e0e 	sbc.w	lr, lr, lr
 8001bda:	189b      	adds	r3, r3, r2
 8001bdc:	eb41 010e 	adc.w	r1, r1, lr
 8001be0:	f5b3 7f7a 	cmp.w	r3, #1000	; 0x3e8
 8001be4:	f171 0300 	sbcs.w	r3, r1, #0
 8001be8:	d315      	bcc.n	8001c16 <_Z13GrandStatumixv+0x172>
{return _micros + htim11.Instance->CNT;}
 8001bea:	6a73      	ldr	r3, [r6, #36]	; 0x24
 8001bec:	189b      	adds	r3, r3, r2
		if(Pos1!=Pos2){
 8001bee:	4a29      	ldr	r2, [pc, #164]	; (8001c94 <_Z13GrandStatumixv+0x1f0>)
		TimeStampdiff = micros();
 8001bf0:	6003      	str	r3, [r0, #0]
		if(Pos1!=Pos2){
 8001bf2:	edd2 7a00 	vldr	s15, [r2]
 8001bf6:	eeb4 7a67 	vcmp.f32	s14, s15
 8001bfa:	eef1 fa10 	vmrs	APSR_nzcv, fpscr
 8001bfe:	d008      	beq.n	8001c12 <_Z13GrandStatumixv+0x16e>
			DiffVelo=(Pos1-Pos2)/Dt;
 8001c00:	ee77 7a67 	vsub.f32	s15, s14, s15
 8001c04:	eddf 6a24 	vldr	s13, [pc, #144]	; 8001c98 <_Z13GrandStatumixv+0x1f4>
 8001c08:	4b24      	ldr	r3, [pc, #144]	; (8001c9c <_Z13GrandStatumixv+0x1f8>)
 8001c0a:	ee67 7aa6 	vmul.f32	s15, s15, s13
 8001c0e:	edc3 7a00 	vstr	s15, [r3]
		Pos2=Pos1;
 8001c12:	ed82 7a00 	vstr	s14, [r2]
		Kalmanfilter();
 8001c16:	f7ff fd7b 	bl	8001710 <_Z12Kalmanfilterv>
		if (pwr_sense == 1){grandState = emer;}
 8001c1a:	4b12      	ldr	r3, [pc, #72]	; (8001c64 <_Z13GrandStatumixv+0x1c0>)
 8001c1c:	781b      	ldrb	r3, [r3, #0]
 8001c1e:	2b01      	cmp	r3, #1
 8001c20:	bf04      	itt	eq
 8001c22:	2303      	moveq	r3, #3
 8001c24:	7023      	strbeq	r3, [r4, #0]
		if (stop_sense == 0){grandState = stop;}
 8001c26:	782b      	ldrb	r3, [r5, #0]
 8001c28:	b90b      	cbnz	r3, 8001c2e <_Z13GrandStatumixv+0x18a>
 8001c2a:	2302      	movs	r3, #2
 8001c2c:	7023      	strb	r3, [r4, #0]
		if (bluecounter != 0){grandState = work;} // can go work from ready only
 8001c2e:	4b1c      	ldr	r3, [pc, #112]	; (8001ca0 <_Z13GrandStatumixv+0x1fc>)
 8001c30:	781b      	ldrb	r3, [r3, #0]
 8001c32:	2b00      	cmp	r3, #0
 8001c34:	f43f af70 	beq.w	8001b18 <_Z13GrandStatumixv+0x74>
 8001c38:	2301      	movs	r3, #1
 8001c3a:	7023      	strb	r3, [r4, #0]
}
 8001c3c:	b004      	add	sp, #16
 8001c3e:	bd70      	pop	{r4, r5, r6, pc}
			u_contr = 0;}
 8001c40:	4b0b      	ldr	r3, [pc, #44]	; (8001c70 <_Z13GrandStatumixv+0x1cc>)
 8001c42:	2200      	movs	r2, #0
			grandState = emer;
 8001c44:	2103      	movs	r1, #3
 8001c46:	7021      	strb	r1, [r4, #0]
			u_contr = 0;}
 8001c48:	601a      	str	r2, [r3, #0]
 8001c4a:	e789      	b.n	8001b60 <_Z13GrandStatumixv+0xbc>
 8001c4c:	200002fc 	.word	0x200002fc
 8001c50:	40020400 	.word	0x40020400
 8001c54:	20000578 	.word	0x20000578
 8001c58:	40020800 	.word	0x40020800
 8001c5c:	20000010 	.word	0x20000010
 8001c60:	200001dc 	.word	0x200001dc
 8001c64:	2000052e 	.word	0x2000052e
 8001c68:	20000024 	.word	0x20000024
 8001c6c:	200003b4 	.word	0x200003b4
 8001c70:	20000598 	.word	0x20000598
 8001c74:	200002e0 	.word	0x200002e0
 8001c78:	20000200 	.word	0x20000200
 8001c7c:	20000524 	.word	0x20000524
 8001c80:	20000408 	.word	0x20000408
 8001c84:	200002d4 	.word	0x200002d4
 8001c88:	20000234 	.word	0x20000234
 8001c8c:	20000270 	.word	0x20000270
 8001c90:	20000300 	.word	0x20000300
 8001c94:	20000274 	.word	0x20000274
 8001c98:	447a0000 	.word	0x447a0000
 8001c9c:	20000190 	.word	0x20000190
 8001ca0:	20000308 	.word	0x20000308

08001ca4 <main>:
{
 8001ca4:	e92d 4880 	stmdb	sp!, {r7, fp, lr}
    : m_xpr(xpr), m_row(0), m_col(1), m_currentBlockRows(1)
 8001ca8:	4ba9      	ldr	r3, [pc, #676]	; (8001f50 <main+0x2ac>)
	A << 1 ,   Dt    ,   (Dt*Dt)/2 ,
 8001caa:	f8df 82dc 	ldr.w	r8, [pc, #732]	; 8001f88 <main+0x2e4>
 8001cae:	f8df 92dc 	ldr.w	r9, [pc, #732]	; 8001f8c <main+0x2e8>
{
 8001cb2:	b09d      	sub	sp, #116	; 0x74
    m_xpr.coeffRef(0,0) = s;
 8001cb4:	f04f 577e 	mov.w	r7, #1065353216	; 0x3f800000
    : m_xpr(xpr), m_row(0), m_col(1), m_currentBlockRows(1)
 8001cb8:	2601      	movs	r6, #1
    m_xpr.coeffRef(0,0) = s;
 8001cba:	601f      	str	r7, [r3, #0]
    : m_xpr(xpr), m_row(0), m_col(1), m_currentBlockRows(1)
 8001cbc:	2500      	movs	r5, #0
	A << 1 ,   Dt    ,   (Dt*Dt)/2 ,
 8001cbe:	a908      	add	r1, sp, #32
 8001cc0:	a814      	add	r0, sp, #80	; 0x50
 8001cc2:	e9cd 3514 	strd	r3, r5, [sp, #80]	; 0x50
 8001cc6:	e9cd 6616 	strd	r6, r6, [sp, #88]	; 0x58
 8001cca:	f8cd 8020 	str.w	r8, [sp, #32]
 8001cce:	f7ff fb7f 	bl	80013d0 <_ZN5Eigen16CommaInitializerINS_6MatrixIfLi3ELi3ELi0ELi3ELi3EEEEcmERKf>
 8001cd2:	a909      	add	r1, sp, #36	; 0x24
	     0 ,    1    ,      Dt    ,
 8001cd4:	2400      	movs	r4, #0
	A << 1 ,   Dt    ,   (Dt*Dt)/2 ,
 8001cd6:	f8cd 9024 	str.w	r9, [sp, #36]	; 0x24
 8001cda:	f7ff fb79 	bl	80013d0 <_ZN5Eigen16CommaInitializerINS_6MatrixIfLi3ELi3ELi0ELi3ELi3EEEEcmERKf>
	     0 ,    1    ,      Dt    ,
 8001cde:	a90a      	add	r1, sp, #40	; 0x28
 8001ce0:	940a      	str	r4, [sp, #40]	; 0x28
 8001ce2:	f7ff fb75 	bl	80013d0 <_ZN5Eigen16CommaInitializerINS_6MatrixIfLi3ELi3ELi0ELi3ELi3EEEEcmERKf>
 8001ce6:	a90b      	add	r1, sp, #44	; 0x2c
 8001ce8:	970b      	str	r7, [sp, #44]	; 0x2c
 8001cea:	f7ff fb71 	bl	80013d0 <_ZN5Eigen16CommaInitializerINS_6MatrixIfLi3ELi3ELi0ELi3ELi3EEEEcmERKf>
 8001cee:	a90c      	add	r1, sp, #48	; 0x30
 8001cf0:	f8cd 8030 	str.w	r8, [sp, #48]	; 0x30
 8001cf4:	f7ff fb6c 	bl	80013d0 <_ZN5Eigen16CommaInitializerINS_6MatrixIfLi3ELi3ELi0ELi3ELi3EEEEcmERKf>
		 0 ,    0    ,      1     ;
 8001cf8:	a90d      	add	r1, sp, #52	; 0x34
 8001cfa:	940d      	str	r4, [sp, #52]	; 0x34
 8001cfc:	f7ff fb68 	bl	80013d0 <_ZN5Eigen16CommaInitializerINS_6MatrixIfLi3ELi3ELi0ELi3ELi3EEEEcmERKf>
 8001d00:	a90e      	add	r1, sp, #56	; 0x38
 8001d02:	940e      	str	r4, [sp, #56]	; 0x38
 8001d04:	f7ff fb64 	bl	80013d0 <_ZN5Eigen16CommaInitializerINS_6MatrixIfLi3ELi3ELi0ELi3ELi3EEEEcmERKf>
 8001d08:	a910      	add	r1, sp, #64	; 0x40
 8001d0a:	9710      	str	r7, [sp, #64]	; 0x40
 8001d0c:	f7ff fb60 	bl	80013d0 <_ZN5Eigen16CommaInitializerINS_6MatrixIfLi3ELi3ELi0ELi3ELi3EEEEcmERKf>
    finished();
 8001d10:	a814      	add	r0, sp, #80	; 0x50
 8001d12:	f7fe ff83 	bl	8000c1c <_ZN5Eigen16CommaInitializerINS_6MatrixIfLi3ELi3ELi0ELi3ELi3EEEE8finishedEv.isra.0>
    : m_xpr(xpr), m_row(0), m_col(1), m_currentBlockRows(1)
 8001d16:	4b8f      	ldr	r3, [pc, #572]	; (8001f54 <main+0x2b0>)
 8001d18:	9314      	str	r3, [sp, #80]	; 0x50
    m_xpr.coeffRef(0,0) = s;
 8001d1a:	601c      	str	r4, [r3, #0]
	X << 0 ,    0    ,      0     ;
 8001d1c:	a90e      	add	r1, sp, #56	; 0x38
 8001d1e:	a814      	add	r0, sp, #80	; 0x50
    : m_xpr(xpr), m_row(0), m_col(1), m_currentBlockRows(1)
 8001d20:	e9cd 5615 	strd	r5, r6, [sp, #84]	; 0x54
 8001d24:	9617      	str	r6, [sp, #92]	; 0x5c
 8001d26:	940e      	str	r4, [sp, #56]	; 0x38
 8001d28:	f7ff fb90 	bl	800144c <_ZN5Eigen16CommaInitializerINS_6MatrixIfLi3ELi1ELi0ELi3ELi1EEEEcmERKf>
 8001d2c:	a910      	add	r1, sp, #64	; 0x40
 8001d2e:	9410      	str	r4, [sp, #64]	; 0x40
 8001d30:	f7ff fb8c 	bl	800144c <_ZN5Eigen16CommaInitializerINS_6MatrixIfLi3ELi1ELi0ELi3ELi1EEEEcmERKf>
    finished();
 8001d34:	a814      	add	r0, sp, #80	; 0x50
 8001d36:	f7fe ff5b 	bl	8000bf0 <_ZN5Eigen16CommaInitializerINS_6MatrixIfLi3ELi1ELi0ELi3ELi1EEEE8finishedEv.isra.0>
    : m_xpr(xpr), m_row(0), m_col(1), m_currentBlockRows(1)
 8001d3a:	4b87      	ldr	r3, [pc, #540]	; (8001f58 <main+0x2b4>)
 8001d3c:	9314      	str	r3, [sp, #80]	; 0x50
    m_xpr.coeffRef(0,0) = s;
 8001d3e:	601c      	str	r4, [r3, #0]
	X1 << 0 ,    0    ,      0     ;
 8001d40:	a90e      	add	r1, sp, #56	; 0x38
 8001d42:	a814      	add	r0, sp, #80	; 0x50
    : m_xpr(xpr), m_row(0), m_col(1), m_currentBlockRows(1)
 8001d44:	e9cd 5615 	strd	r5, r6, [sp, #84]	; 0x54
 8001d48:	9617      	str	r6, [sp, #92]	; 0x5c
 8001d4a:	940e      	str	r4, [sp, #56]	; 0x38
 8001d4c:	f7ff fb7e 	bl	800144c <_ZN5Eigen16CommaInitializerINS_6MatrixIfLi3ELi1ELi0ELi3ELi1EEEEcmERKf>
 8001d50:	a910      	add	r1, sp, #64	; 0x40
 8001d52:	9410      	str	r4, [sp, #64]	; 0x40
 8001d54:	f7ff fb7a 	bl	800144c <_ZN5Eigen16CommaInitializerINS_6MatrixIfLi3ELi1ELi0ELi3ELi1EEEEcmERKf>
    finished();
 8001d58:	a814      	add	r0, sp, #80	; 0x50
 8001d5a:	f7fe ff49 	bl	8000bf0 <_ZN5Eigen16CommaInitializerINS_6MatrixIfLi3ELi1ELi0ELi3ELi1EEEE8finishedEv.isra.0>
    : m_xpr(xpr), m_row(0), m_col(1), m_currentBlockRows(1)
 8001d5e:	4b7f      	ldr	r3, [pc, #508]	; (8001f5c <main+0x2b8>)
 8001d60:	9314      	str	r3, [sp, #80]	; 0x50
    m_xpr.coeffRef(0,0) = s;
 8001d62:	601c      	str	r4, [r3, #0]
	P << 0 , 	0 	 , 		0     ,
 8001d64:	a908      	add	r1, sp, #32
 8001d66:	a814      	add	r0, sp, #80	; 0x50
    : m_xpr(xpr), m_row(0), m_col(1), m_currentBlockRows(1)
 8001d68:	e9cd 5615 	strd	r5, r6, [sp, #84]	; 0x54
 8001d6c:	9617      	str	r6, [sp, #92]	; 0x5c
 8001d6e:	9408      	str	r4, [sp, #32]
 8001d70:	f7ff fb2e 	bl	80013d0 <_ZN5Eigen16CommaInitializerINS_6MatrixIfLi3ELi3ELi0ELi3ELi3EEEEcmERKf>
 8001d74:	a909      	add	r1, sp, #36	; 0x24
 8001d76:	9409      	str	r4, [sp, #36]	; 0x24
 8001d78:	f7ff fb2a 	bl	80013d0 <_ZN5Eigen16CommaInitializerINS_6MatrixIfLi3ELi3ELi0ELi3ELi3EEEEcmERKf>
	     0 ,    0    ,  	0     ,
 8001d7c:	a90a      	add	r1, sp, #40	; 0x28
 8001d7e:	940a      	str	r4, [sp, #40]	; 0x28
 8001d80:	f7ff fb26 	bl	80013d0 <_ZN5Eigen16CommaInitializerINS_6MatrixIfLi3ELi3ELi0ELi3ELi3EEEEcmERKf>
 8001d84:	a90b      	add	r1, sp, #44	; 0x2c
 8001d86:	940b      	str	r4, [sp, #44]	; 0x2c
 8001d88:	f7ff fb22 	bl	80013d0 <_ZN5Eigen16CommaInitializerINS_6MatrixIfLi3ELi3ELi0ELi3ELi3EEEEcmERKf>
 8001d8c:	a90c      	add	r1, sp, #48	; 0x30
 8001d8e:	940c      	str	r4, [sp, #48]	; 0x30
 8001d90:	f7ff fb1e 	bl	80013d0 <_ZN5Eigen16CommaInitializerINS_6MatrixIfLi3ELi3ELi0ELi3ELi3EEEEcmERKf>
		 0 ,    0    ,      0     ;
 8001d94:	a90d      	add	r1, sp, #52	; 0x34
 8001d96:	940d      	str	r4, [sp, #52]	; 0x34
 8001d98:	f7ff fb1a 	bl	80013d0 <_ZN5Eigen16CommaInitializerINS_6MatrixIfLi3ELi3ELi0ELi3ELi3EEEEcmERKf>
 8001d9c:	a90e      	add	r1, sp, #56	; 0x38
 8001d9e:	940e      	str	r4, [sp, #56]	; 0x38
 8001da0:	f7ff fb16 	bl	80013d0 <_ZN5Eigen16CommaInitializerINS_6MatrixIfLi3ELi3ELi0ELi3ELi3EEEEcmERKf>
 8001da4:	a910      	add	r1, sp, #64	; 0x40
 8001da6:	9410      	str	r4, [sp, #64]	; 0x40
 8001da8:	f7ff fb12 	bl	80013d0 <_ZN5Eigen16CommaInitializerINS_6MatrixIfLi3ELi3ELi0ELi3ELi3EEEEcmERKf>
    finished();
 8001dac:	a814      	add	r0, sp, #80	; 0x50
 8001dae:	f7fe ff35 	bl	8000c1c <_ZN5Eigen16CommaInitializerINS_6MatrixIfLi3ELi3ELi0ELi3ELi3EEEE8finishedEv.isra.0>
    : m_xpr(xpr), m_row(0), m_col(1), m_currentBlockRows(1)
 8001db2:	4b6b      	ldr	r3, [pc, #428]	; (8001f60 <main+0x2bc>)
 8001db4:	9314      	str	r3, [sp, #80]	; 0x50
    m_xpr.coeffRef(0,0) = s;
 8001db6:	601c      	str	r4, [r3, #0]
	O << 0 , 	0 	 , 		0     ,
 8001db8:	a908      	add	r1, sp, #32
 8001dba:	a814      	add	r0, sp, #80	; 0x50
    : m_xpr(xpr), m_row(0), m_col(1), m_currentBlockRows(1)
 8001dbc:	e9cd 5615 	strd	r5, r6, [sp, #84]	; 0x54
 8001dc0:	9617      	str	r6, [sp, #92]	; 0x5c
 8001dc2:	9408      	str	r4, [sp, #32]
 8001dc4:	f7ff fb04 	bl	80013d0 <_ZN5Eigen16CommaInitializerINS_6MatrixIfLi3ELi3ELi0ELi3ELi3EEEEcmERKf>
 8001dc8:	a909      	add	r1, sp, #36	; 0x24
 8001dca:	9409      	str	r4, [sp, #36]	; 0x24
 8001dcc:	f7ff fb00 	bl	80013d0 <_ZN5Eigen16CommaInitializerINS_6MatrixIfLi3ELi3ELi0ELi3ELi3EEEEcmERKf>
	     0 ,    0    ,  	0     ,
 8001dd0:	a90a      	add	r1, sp, #40	; 0x28
 8001dd2:	940a      	str	r4, [sp, #40]	; 0x28
 8001dd4:	f7ff fafc 	bl	80013d0 <_ZN5Eigen16CommaInitializerINS_6MatrixIfLi3ELi3ELi0ELi3ELi3EEEEcmERKf>
 8001dd8:	a90b      	add	r1, sp, #44	; 0x2c
 8001dda:	940b      	str	r4, [sp, #44]	; 0x2c
 8001ddc:	f7ff faf8 	bl	80013d0 <_ZN5Eigen16CommaInitializerINS_6MatrixIfLi3ELi3ELi0ELi3ELi3EEEEcmERKf>
 8001de0:	a90c      	add	r1, sp, #48	; 0x30
 8001de2:	940c      	str	r4, [sp, #48]	; 0x30
 8001de4:	f7ff faf4 	bl	80013d0 <_ZN5Eigen16CommaInitializerINS_6MatrixIfLi3ELi3ELi0ELi3ELi3EEEEcmERKf>
		 0 ,    0    ,      0     ;
 8001de8:	a90d      	add	r1, sp, #52	; 0x34
 8001dea:	940d      	str	r4, [sp, #52]	; 0x34
 8001dec:	f7ff faf0 	bl	80013d0 <_ZN5Eigen16CommaInitializerINS_6MatrixIfLi3ELi3ELi0ELi3ELi3EEEEcmERKf>
 8001df0:	a90e      	add	r1, sp, #56	; 0x38
 8001df2:	940e      	str	r4, [sp, #56]	; 0x38
 8001df4:	f7ff faec 	bl	80013d0 <_ZN5Eigen16CommaInitializerINS_6MatrixIfLi3ELi3ELi0ELi3ELi3EEEEcmERKf>
 8001df8:	a910      	add	r1, sp, #64	; 0x40
 8001dfa:	9410      	str	r4, [sp, #64]	; 0x40
 8001dfc:	f7ff fae8 	bl	80013d0 <_ZN5Eigen16CommaInitializerINS_6MatrixIfLi3ELi3ELi0ELi3ELi3EEEEcmERKf>
    finished();
 8001e00:	a814      	add	r0, sp, #80	; 0x50
 8001e02:	f7fe ff0b 	bl	8000c1c <_ZN5Eigen16CommaInitializerINS_6MatrixIfLi3ELi3ELi0ELi3ELi3EEEE8finishedEv.isra.0>
    : m_xpr(xpr), m_row(0), m_col(1), m_currentBlockRows(1)
 8001e06:	4b57      	ldr	r3, [pc, #348]	; (8001f64 <main+0x2c0>)
 8001e08:	9314      	str	r3, [sp, #80]	; 0x50
    m_xpr.coeffRef(0,0) = s;
 8001e0a:	601f      	str	r7, [r3, #0]
	I << 1 , 0 , 0 ,
 8001e0c:	a908      	add	r1, sp, #32
 8001e0e:	a814      	add	r0, sp, #80	; 0x50
    : m_xpr(xpr), m_row(0), m_col(1), m_currentBlockRows(1)
 8001e10:	e9cd 5615 	strd	r5, r6, [sp, #84]	; 0x54
 8001e14:	9617      	str	r6, [sp, #92]	; 0x5c
 8001e16:	9408      	str	r4, [sp, #32]
 8001e18:	f7ff fada 	bl	80013d0 <_ZN5Eigen16CommaInitializerINS_6MatrixIfLi3ELi3ELi0ELi3ELi3EEEEcmERKf>
 8001e1c:	a909      	add	r1, sp, #36	; 0x24
 8001e1e:	9409      	str	r4, [sp, #36]	; 0x24
 8001e20:	f7ff fad6 	bl	80013d0 <_ZN5Eigen16CommaInitializerINS_6MatrixIfLi3ELi3ELi0ELi3ELi3EEEEcmERKf>
		 0 , 1 , 0 ,
 8001e24:	a90a      	add	r1, sp, #40	; 0x28
 8001e26:	940a      	str	r4, [sp, #40]	; 0x28
 8001e28:	f7ff fad2 	bl	80013d0 <_ZN5Eigen16CommaInitializerINS_6MatrixIfLi3ELi3ELi0ELi3ELi3EEEEcmERKf>
 8001e2c:	a90b      	add	r1, sp, #44	; 0x2c
 8001e2e:	970b      	str	r7, [sp, #44]	; 0x2c
 8001e30:	f7ff face 	bl	80013d0 <_ZN5Eigen16CommaInitializerINS_6MatrixIfLi3ELi3ELi0ELi3ELi3EEEEcmERKf>
 8001e34:	a90c      	add	r1, sp, #48	; 0x30
 8001e36:	940c      	str	r4, [sp, #48]	; 0x30
 8001e38:	f7ff faca 	bl	80013d0 <_ZN5Eigen16CommaInitializerINS_6MatrixIfLi3ELi3ELi0ELi3ELi3EEEEcmERKf>
		 0 , 0 , 1 ;
 8001e3c:	a90d      	add	r1, sp, #52	; 0x34
 8001e3e:	940d      	str	r4, [sp, #52]	; 0x34
 8001e40:	f7ff fac6 	bl	80013d0 <_ZN5Eigen16CommaInitializerINS_6MatrixIfLi3ELi3ELi0ELi3ELi3EEEEcmERKf>
 8001e44:	a90e      	add	r1, sp, #56	; 0x38
 8001e46:	940e      	str	r4, [sp, #56]	; 0x38
 8001e48:	f7ff fac2 	bl	80013d0 <_ZN5Eigen16CommaInitializerINS_6MatrixIfLi3ELi3ELi0ELi3ELi3EEEEcmERKf>
 8001e4c:	a910      	add	r1, sp, #64	; 0x40
 8001e4e:	9710      	str	r7, [sp, #64]	; 0x40
 8001e50:	f7ff fabe 	bl	80013d0 <_ZN5Eigen16CommaInitializerINS_6MatrixIfLi3ELi3ELi0ELi3ELi3EEEEcmERKf>
    finished();
 8001e54:	a814      	add	r0, sp, #80	; 0x50
 8001e56:	f7fe fee1 	bl	8000c1c <_ZN5Eigen16CommaInitializerINS_6MatrixIfLi3ELi3ELi0ELi3ELi3EEEE8finishedEv.isra.0>
    : m_xpr(xpr), m_row(0), m_col(1), m_currentBlockRows(1)
 8001e5a:	4b43      	ldr	r3, [pc, #268]	; (8001f68 <main+0x2c4>)
    m_xpr.coeffRef(0,0) = s;
 8001e5c:	4a43      	ldr	r2, [pc, #268]	; (8001f6c <main+0x2c8>)
 8001e5e:	601c      	str	r4, [r3, #0]
    : m_xpr(xpr), m_row(0), m_col(1), m_currentBlockRows(1)
 8001e60:	9314      	str	r3, [sp, #80]	; 0x50
    m_xpr.coeffRef(0,0) = s;
 8001e62:	4b43      	ldr	r3, [pc, #268]	; (8001f70 <main+0x2cc>)
 8001e64:	6014      	str	r4, [r2, #0]
 8001e66:	4a43      	ldr	r2, [pc, #268]	; (8001f74 <main+0x2d0>)
 8001e68:	601a      	str	r2, [r3, #0]
	B << 0 , 0 , 0 ;
 8001e6a:	a90e      	add	r1, sp, #56	; 0x38
 8001e6c:	a814      	add	r0, sp, #80	; 0x50
    : m_xpr(xpr), m_row(0), m_col(1), m_currentBlockRows(1)
 8001e6e:	e9cd 5615 	strd	r5, r6, [sp, #84]	; 0x54
 8001e72:	9617      	str	r6, [sp, #92]	; 0x5c
 8001e74:	940e      	str	r4, [sp, #56]	; 0x38
 8001e76:	f7ff fae9 	bl	800144c <_ZN5Eigen16CommaInitializerINS_6MatrixIfLi3ELi1ELi0ELi3ELi1EEEEcmERKf>
 8001e7a:	a910      	add	r1, sp, #64	; 0x40
 8001e7c:	9410      	str	r4, [sp, #64]	; 0x40
 8001e7e:	f7ff fae5 	bl	800144c <_ZN5Eigen16CommaInitializerINS_6MatrixIfLi3ELi1ELi0ELi3ELi1EEEEcmERKf>
    finished();
 8001e82:	a814      	add	r0, sp, #80	; 0x50
 8001e84:	f7fe feb4 	bl	8000bf0 <_ZN5Eigen16CommaInitializerINS_6MatrixIfLi3ELi1ELi0ELi3ELi1EEEE8finishedEv.isra.0>
    : m_xpr(xpr), m_row(0), m_col(1), m_currentBlockRows(1)
 8001e88:	4b3b      	ldr	r3, [pc, #236]	; (8001f78 <main+0x2d4>)
 8001e8a:	9314      	str	r3, [sp, #80]	; 0x50
    m_xpr.coeffRef(0,0) = s;
 8001e8c:	601f      	str	r7, [r3, #0]
	C << 1 , 0 , 0 ;
 8001e8e:	a90e      	add	r1, sp, #56	; 0x38
 8001e90:	a814      	add	r0, sp, #80	; 0x50
    : m_xpr(xpr), m_row(0), m_col(1), m_currentBlockRows(1)
 8001e92:	e9cd 5615 	strd	r5, r6, [sp, #84]	; 0x54
 8001e96:	9617      	str	r6, [sp, #92]	; 0x5c
 8001e98:	940e      	str	r4, [sp, #56]	; 0x38
 8001e9a:	f7ff fb13 	bl	80014c4 <_ZN5Eigen16CommaInitializerINS_6MatrixIfLi1ELi3ELi1ELi1ELi3EEEEcmERKf>
 8001e9e:	a910      	add	r1, sp, #64	; 0x40
 8001ea0:	9410      	str	r4, [sp, #64]	; 0x40
 8001ea2:	f7ff fb0f 	bl	80014c4 <_ZN5Eigen16CommaInitializerINS_6MatrixIfLi1ELi3ELi1ELi1ELi3EEEEcmERKf>
      eigen_assert(((m_row+m_currentBlockRows) == m_xpr.rows() || m_xpr.cols() == 0)
 8001ea6:	9b15      	ldr	r3, [sp, #84]	; 0x54
 8001ea8:	9a17      	ldr	r2, [sp, #92]	; 0x5c
 8001eaa:	4413      	add	r3, r2
 8001eac:	42b3      	cmp	r3, r6
 8001eae:	f040 81a7 	bne.w	8002200 <main+0x55c>
 8001eb2:	9a16      	ldr	r2, [sp, #88]	; 0x58
 8001eb4:	2a03      	cmp	r2, #3
 8001eb6:	f040 81a3 	bne.w	8002200 <main+0x55c>
    : m_xpr(xpr), m_row(0), m_col(1), m_currentBlockRows(1)
 8001eba:	e9cd 5315 	strd	r5, r3, [sp, #84]	; 0x54
 8001ebe:	9317      	str	r3, [sp, #92]	; 0x5c
 8001ec0:	4b2e      	ldr	r3, [pc, #184]	; (8001f7c <main+0x2d8>)
 8001ec2:	9314      	str	r3, [sp, #80]	; 0x50
    m_xpr.coeffRef(0,0) = s;
 8001ec4:	f8c3 9000 	str.w	r9, [r3]
	G << (Dt*Dt)/2 , Dt , 1 ;
 8001ec8:	a90e      	add	r1, sp, #56	; 0x38
 8001eca:	a814      	add	r0, sp, #80	; 0x50
 8001ecc:	f8cd 8038 	str.w	r8, [sp, #56]	; 0x38
 8001ed0:	f7ff fabc 	bl	800144c <_ZN5Eigen16CommaInitializerINS_6MatrixIfLi3ELi1ELi0ELi3ELi1EEEEcmERKf>
 8001ed4:	a910      	add	r1, sp, #64	; 0x40
 8001ed6:	9710      	str	r7, [sp, #64]	; 0x40
 8001ed8:	f7ff fab8 	bl	800144c <_ZN5Eigen16CommaInitializerINS_6MatrixIfLi3ELi1ELi0ELi3ELi1EEEEcmERKf>
    finished();
 8001edc:	a814      	add	r0, sp, #80	; 0x50
 8001ede:	f7fe fe87 	bl	8000bf0 <_ZN5Eigen16CommaInitializerINS_6MatrixIfLi3ELi1ELi0ELi3ELi1EEEE8finishedEv.isra.0>
  HAL_Init();
 8001ee2:	f000 fdf3 	bl	8002acc <HAL_Init>
  SystemClock_Config();
 8001ee6:	f7fe feaf 	bl	8000c48 <_Z18SystemClock_Configv>
  GPIO_InitTypeDef GPIO_InitStruct = {0};
 8001eea:	e9cd 5514 	strd	r5, r5, [sp, #80]	; 0x50
 8001eee:	e9cd 5516 	strd	r5, r5, [sp, #88]	; 0x58
  __HAL_RCC_GPIOC_CLK_ENABLE();
 8001ef2:	4c23      	ldr	r4, [pc, #140]	; (8001f80 <main+0x2dc>)
 8001ef4:	9509      	str	r5, [sp, #36]	; 0x24
  GPIO_InitTypeDef GPIO_InitStruct = {0};
 8001ef6:	9518      	str	r5, [sp, #96]	; 0x60
  __HAL_RCC_GPIOC_CLK_ENABLE();
 8001ef8:	6b23      	ldr	r3, [r4, #48]	; 0x30
  HAL_GPIO_WritePin(LD2_GPIO_Port, LD2_Pin, GPIO_PIN_RESET);
 8001efa:	4822      	ldr	r0, [pc, #136]	; (8001f84 <main+0x2e0>)
  __HAL_RCC_GPIOC_CLK_ENABLE();
 8001efc:	f043 0304 	orr.w	r3, r3, #4
 8001f00:	6323      	str	r3, [r4, #48]	; 0x30
 8001f02:	6b23      	ldr	r3, [r4, #48]	; 0x30
 8001f04:	f003 0304 	and.w	r3, r3, #4
 8001f08:	9309      	str	r3, [sp, #36]	; 0x24
 8001f0a:	9b09      	ldr	r3, [sp, #36]	; 0x24
  __HAL_RCC_GPIOH_CLK_ENABLE();
 8001f0c:	950a      	str	r5, [sp, #40]	; 0x28
 8001f0e:	6b23      	ldr	r3, [r4, #48]	; 0x30
 8001f10:	f043 0380 	orr.w	r3, r3, #128	; 0x80
 8001f14:	6323      	str	r3, [r4, #48]	; 0x30
 8001f16:	6b23      	ldr	r3, [r4, #48]	; 0x30
 8001f18:	f003 0380 	and.w	r3, r3, #128	; 0x80
 8001f1c:	930a      	str	r3, [sp, #40]	; 0x28
 8001f1e:	9b0a      	ldr	r3, [sp, #40]	; 0x28
  __HAL_RCC_GPIOA_CLK_ENABLE();
 8001f20:	950b      	str	r5, [sp, #44]	; 0x2c
 8001f22:	6b23      	ldr	r3, [r4, #48]	; 0x30
 8001f24:	f043 0301 	orr.w	r3, r3, #1
 8001f28:	6323      	str	r3, [r4, #48]	; 0x30
 8001f2a:	6b23      	ldr	r3, [r4, #48]	; 0x30
 8001f2c:	f003 0301 	and.w	r3, r3, #1
 8001f30:	930b      	str	r3, [sp, #44]	; 0x2c
 8001f32:	9b0b      	ldr	r3, [sp, #44]	; 0x2c
  __HAL_RCC_GPIOB_CLK_ENABLE();
 8001f34:	950c      	str	r5, [sp, #48]	; 0x30
 8001f36:	6b23      	ldr	r3, [r4, #48]	; 0x30
 8001f38:	f043 0302 	orr.w	r3, r3, #2
 8001f3c:	6323      	str	r3, [r4, #48]	; 0x30
 8001f3e:	6b23      	ldr	r3, [r4, #48]	; 0x30
 8001f40:	f003 0302 	and.w	r3, r3, #2
 8001f44:	930c      	str	r3, [sp, #48]	; 0x30
 8001f46:	9b0c      	ldr	r3, [sp, #48]	; 0x30
  __HAL_RCC_GPIOD_CLK_ENABLE();
 8001f48:	950d      	str	r5, [sp, #52]	; 0x34
 8001f4a:	6b23      	ldr	r3, [r4, #48]	; 0x30
 8001f4c:	e020      	b.n	8001f90 <main+0x2ec>
 8001f4e:	bf00      	nop
 8001f50:	200000cc 	.word	0x200000cc
 8001f54:	200002e0 	.word	0x200002e0
 8001f58:	200002ec 	.word	0x200002ec
 8001f5c:	2000023c 	.word	0x2000023c
 8001f60:	20000208 	.word	0x20000208
 8001f64:	200001b8 	.word	0x200001b8
 8001f68:	200000f0 	.word	0x200000f0
 8001f6c:	20000110 	.word	0x20000110
 8001f70:	200002a0 	.word	0x200002a0
 8001f74:	41200000 	.word	0x41200000
 8001f78:	20000100 	.word	0x20000100
 8001f7c:	200001a8 	.word	0x200001a8
 8001f80:	40023800 	.word	0x40023800
 8001f84:	40020000 	.word	0x40020000
 8001f88:	3a83126f 	.word	0x3a83126f
 8001f8c:	350637bd 	.word	0x350637bd
 8001f90:	f043 0308 	orr.w	r3, r3, #8
 8001f94:	6323      	str	r3, [r4, #48]	; 0x30
 8001f96:	6b23      	ldr	r3, [r4, #48]	; 0x30
 8001f98:	f003 0308 	and.w	r3, r3, #8
  HAL_GPIO_WritePin(LD2_GPIO_Port, LD2_Pin, GPIO_PIN_RESET);
 8001f9c:	462a      	mov	r2, r5
  __HAL_RCC_GPIOD_CLK_ENABLE();
 8001f9e:	930d      	str	r3, [sp, #52]	; 0x34
  HAL_GPIO_WritePin(LD2_GPIO_Port, LD2_Pin, GPIO_PIN_RESET);
 8001fa0:	2120      	movs	r1, #32
  __HAL_RCC_GPIOD_CLK_ENABLE();
 8001fa2:	9b0d      	ldr	r3, [sp, #52]	; 0x34
  HAL_GPIO_WritePin(LD2_GPIO_Port, LD2_Pin, GPIO_PIN_RESET);
 8001fa4:	f001 f91e 	bl	80031e4 <HAL_GPIO_WritePin>
  HAL_GPIO_WritePin(GPIOB, Mot_dir_Pin|PLamp_Green_Pin|PLamp_Blue_Pin|PLamp_Yellow_Pin, GPIO_PIN_RESET);
 8001fa8:	462a      	mov	r2, r5
 8001faa:	48a0      	ldr	r0, [pc, #640]	; (800222c <main+0x588>)
 8001fac:	f24e 0104 	movw	r1, #57348	; 0xe004
 8001fb0:	f001 f918 	bl	80031e4 <HAL_GPIO_WritePin>
  GPIO_InitStruct.Pin = B1_Pin|EXTI11_Stop_Pin;
 8001fb4:	f44f 5220 	mov.w	r2, #10240	; 0x2800
 8001fb8:	f44f 1304 	mov.w	r3, #2162688	; 0x210000
  HAL_GPIO_Init(GPIOC, &GPIO_InitStruct);
 8001fbc:	489c      	ldr	r0, [pc, #624]	; (8002230 <main+0x58c>)
  GPIO_InitStruct.Pull = GPIO_NOPULL;
 8001fbe:	9516      	str	r5, [sp, #88]	; 0x58
  HAL_GPIO_Init(GPIOC, &GPIO_InitStruct);
 8001fc0:	a914      	add	r1, sp, #80	; 0x50
  GPIO_InitStruct.Pin = B1_Pin|EXTI11_Stop_Pin;
 8001fc2:	e9cd 2314 	strd	r2, r3, [sp, #80]	; 0x50
  GPIO_InitStruct.Pin = LD2_Pin;
 8001fc6:	f04f 0800 	mov.w	r8, #0
  HAL_GPIO_Init(GPIOC, &GPIO_InitStruct);
 8001fca:	f001 f813 	bl	8002ff4 <HAL_GPIO_Init>
  GPIO_InitStruct.Pin = LD2_Pin;
 8001fce:	f04f 0900 	mov.w	r9, #0
 8001fd2:	2220      	movs	r2, #32
 8001fd4:	2301      	movs	r3, #1
  HAL_GPIO_Init(LD2_GPIO_Port, &GPIO_InitStruct);
 8001fd6:	4897      	ldr	r0, [pc, #604]	; (8002234 <main+0x590>)
 8001fd8:	a914      	add	r1, sp, #80	; 0x50
  GPIO_InitStruct.Pin = LD2_Pin;
 8001fda:	e9cd 2314 	strd	r2, r3, [sp, #80]	; 0x50
 8001fde:	e9cd 8916 	strd	r8, r9, [sp, #88]	; 0x58
  HAL_GPIO_Init(LD2_GPIO_Port, &GPIO_InitStruct);
 8001fe2:	f001 f807 	bl	8002ff4 <HAL_GPIO_Init>
  GPIO_InitStruct.Pin = Pwr_Sense_Pin;
 8001fe6:	2202      	movs	r2, #2
 8001fe8:	2300      	movs	r3, #0
  HAL_GPIO_Init(Pwr_Sense_GPIO_Port, &GPIO_InitStruct);
 8001fea:	4890      	ldr	r0, [pc, #576]	; (800222c <main+0x588>)
  GPIO_InitStruct.Pull = GPIO_NOPULL;
 8001fec:	9516      	str	r5, [sp, #88]	; 0x58
  HAL_GPIO_Init(Pwr_Sense_GPIO_Port, &GPIO_InitStruct);
 8001fee:	a914      	add	r1, sp, #80	; 0x50
  GPIO_InitStruct.Pin = Pwr_Sense_Pin;
 8001ff0:	e9cd 2314 	strd	r2, r3, [sp, #80]	; 0x50
  HAL_GPIO_Init(Pwr_Sense_GPIO_Port, &GPIO_InitStruct);
 8001ff4:	f000 fffe 	bl	8002ff4 <HAL_GPIO_Init>
  GPIO_InitStruct.Pin = Mot_dir_Pin|PLamp_Green_Pin|PLamp_Blue_Pin|PLamp_Yellow_Pin;
 8001ff8:	f24e 0204 	movw	r2, #57348	; 0xe004
 8001ffc:	2301      	movs	r3, #1
  HAL_GPIO_Init(GPIOB, &GPIO_InitStruct);
 8001ffe:	488b      	ldr	r0, [pc, #556]	; (800222c <main+0x588>)
 8002000:	a914      	add	r1, sp, #80	; 0x50
  GPIO_InitStruct.Pin = Mot_dir_Pin|PLamp_Green_Pin|PLamp_Blue_Pin|PLamp_Yellow_Pin;
 8002002:	e9cd 2314 	strd	r2, r3, [sp, #80]	; 0x50
 8002006:	e9cd 8916 	strd	r8, r9, [sp, #88]	; 0x58
  HAL_GPIO_Init(GPIOB, &GPIO_InitStruct);
 800200a:	f000 fff3 	bl	8002ff4 <HAL_GPIO_Init>
  GPIO_InitStruct.Pin = EXTI10_Emer_Pin;
 800200e:	f44f 6280 	mov.w	r2, #1024	; 0x400
 8002012:	f44f 1388 	mov.w	r3, #1114112	; 0x110000
  HAL_GPIO_Init(EXTI10_Emer_GPIO_Port, &GPIO_InitStruct);
 8002016:	4886      	ldr	r0, [pc, #536]	; (8002230 <main+0x58c>)
  GPIO_InitStruct.Pull = GPIO_NOPULL;
 8002018:	9516      	str	r5, [sp, #88]	; 0x58
  HAL_GPIO_Init(EXTI10_Emer_GPIO_Port, &GPIO_InitStruct);
 800201a:	a914      	add	r1, sp, #80	; 0x50
  GPIO_InitStruct.Pin = EXTI10_Emer_Pin;
 800201c:	e9cd 2314 	strd	r2, r3, [sp, #80]	; 0x50
  HAL_GPIO_Init(EXTI10_Emer_GPIO_Port, &GPIO_InitStruct);
 8002020:	f000 ffe8 	bl	8002ff4 <HAL_GPIO_Init>
  GPIO_InitStruct.Pin = Stop_Sense_Pin;
 8002024:	f44f 5280 	mov.w	r2, #4096	; 0x1000
 8002028:	2300      	movs	r3, #0
  HAL_GPIO_Init(Stop_Sense_GPIO_Port, &GPIO_InitStruct);
 800202a:	4881      	ldr	r0, [pc, #516]	; (8002230 <main+0x58c>)
  GPIO_InitStruct.Pull = GPIO_NOPULL;
 800202c:	9516      	str	r5, [sp, #88]	; 0x58
  HAL_GPIO_Init(Stop_Sense_GPIO_Port, &GPIO_InitStruct);
 800202e:	a914      	add	r1, sp, #80	; 0x50
  GPIO_InitStruct.Pin = Stop_Sense_Pin;
 8002030:	e9cd 2314 	strd	r2, r3, [sp, #80]	; 0x50
  HAL_GPIO_Init(Stop_Sense_GPIO_Port, &GPIO_InitStruct);
 8002034:	f000 ffde 	bl	8002ff4 <HAL_GPIO_Init>
  GPIO_InitStruct.Pin = EXTI2_SetZero_Pin;
 8002038:	f44f 1388 	mov.w	r3, #1114112	; 0x110000
 800203c:	2204      	movs	r2, #4
  HAL_GPIO_Init(EXTI2_SetZero_GPIO_Port, &GPIO_InitStruct);
 800203e:	487e      	ldr	r0, [pc, #504]	; (8002238 <main+0x594>)
  GPIO_InitStruct.Pull = GPIO_NOPULL;
 8002040:	9516      	str	r5, [sp, #88]	; 0x58
  HAL_GPIO_Init(EXTI2_SetZero_GPIO_Port, &GPIO_InitStruct);
 8002042:	a914      	add	r1, sp, #80	; 0x50
  GPIO_InitStruct.Pin = EXTI2_SetZero_Pin;
 8002044:	e9cd 2314 	strd	r2, r3, [sp, #80]	; 0x50
  HAL_GPIO_Init(EXTI2_SetZero_GPIO_Port, &GPIO_InitStruct);
 8002048:	f000 ffd4 	bl	8002ff4 <HAL_GPIO_Init>
  HAL_NVIC_SetPriority(EXTI2_IRQn, 0, 0);
 800204c:	462a      	mov	r2, r5
 800204e:	4629      	mov	r1, r5
 8002050:	2008      	movs	r0, #8
 8002052:	f000 fd8b 	bl	8002b6c <HAL_NVIC_SetPriority>
  HAL_NVIC_EnableIRQ(EXTI2_IRQn);
 8002056:	2008      	movs	r0, #8
 8002058:	f000 fdc6 	bl	8002be8 <HAL_NVIC_EnableIRQ>
  HAL_NVIC_SetPriority(EXTI15_10_IRQn, 0, 0);
 800205c:	462a      	mov	r2, r5
 800205e:	4629      	mov	r1, r5
 8002060:	2028      	movs	r0, #40	; 0x28
 8002062:	f000 fd83 	bl	8002b6c <HAL_NVIC_SetPriority>
  HAL_NVIC_EnableIRQ(EXTI15_10_IRQn);
 8002066:	2028      	movs	r0, #40	; 0x28
 8002068:	f000 fdbe 	bl	8002be8 <HAL_NVIC_EnableIRQ>
  huart2.Instance = USART2;
 800206c:	4873      	ldr	r0, [pc, #460]	; (800223c <main+0x598>)
  huart2.Init.BaudRate = 115200;
 800206e:	f8df e1f8 	ldr.w	lr, [pc, #504]	; 8002268 <main+0x5c4>
  huart2.Init.Parity = UART_PARITY_NONE;
 8002072:	6105      	str	r5, [r0, #16]
  huart2.Init.BaudRate = 115200;
 8002074:	f44f 33e1 	mov.w	r3, #115200	; 0x1c200
 8002078:	e9c0 e300 	strd	lr, r3, [r0]
  huart2.Init.Mode = UART_MODE_TX_RX;
 800207c:	230c      	movs	r3, #12
  huart2.Init.StopBits = UART_STOPBITS_1;
 800207e:	e9c0 5502 	strd	r5, r5, [r0, #8]
  huart2.Init.OverSampling = UART_OVERSAMPLING_16;
 8002082:	e9c0 5506 	strd	r5, r5, [r0, #24]
  huart2.Init.Mode = UART_MODE_TX_RX;
 8002086:	6143      	str	r3, [r0, #20]
  if (HAL_UART_Init(&huart2) != HAL_OK)
 8002088:	f003 ffe6 	bl	8006058 <HAL_UART_Init>
 800208c:	4605      	mov	r5, r0
 800208e:	bb30      	cbnz	r0, 80020de <main+0x43a>
  __HAL_RCC_DMA1_CLK_ENABLE();
 8002090:	9008      	str	r0, [sp, #32]
 8002092:	6b23      	ldr	r3, [r4, #48]	; 0x30
 8002094:	f443 1300 	orr.w	r3, r3, #2097152	; 0x200000
 8002098:	6323      	str	r3, [r4, #48]	; 0x30
 800209a:	6b23      	ldr	r3, [r4, #48]	; 0x30
  hi2c1.Instance = I2C1;
 800209c:	4c68      	ldr	r4, [pc, #416]	; (8002240 <main+0x59c>)
  __HAL_RCC_DMA1_CLK_ENABLE();
 800209e:	f403 1300 	and.w	r3, r3, #2097152	; 0x200000
  HAL_NVIC_SetPriority(DMA1_Stream5_IRQn, 0, 0);
 80020a2:	4602      	mov	r2, r0
 80020a4:	4601      	mov	r1, r0
  __HAL_RCC_DMA1_CLK_ENABLE();
 80020a6:	9308      	str	r3, [sp, #32]
  HAL_NVIC_SetPriority(DMA1_Stream5_IRQn, 0, 0);
 80020a8:	2010      	movs	r0, #16
  __HAL_RCC_DMA1_CLK_ENABLE();
 80020aa:	9b08      	ldr	r3, [sp, #32]
  HAL_NVIC_SetPriority(DMA1_Stream5_IRQn, 0, 0);
 80020ac:	f000 fd5e 	bl	8002b6c <HAL_NVIC_SetPriority>
  HAL_NVIC_EnableIRQ(DMA1_Stream5_IRQn);
 80020b0:	2010      	movs	r0, #16
 80020b2:	f000 fd99 	bl	8002be8 <HAL_NVIC_EnableIRQ>
  hi2c1.Init.ClockSpeed = 400000;
 80020b6:	4b63      	ldr	r3, [pc, #396]	; (8002244 <main+0x5a0>)
 80020b8:	f8df c1b0 	ldr.w	ip, [pc, #432]	; 800226c <main+0x5c8>
  if (HAL_I2C_Init(&hi2c1) != HAL_OK)
 80020bc:	4620      	mov	r0, r4
  hi2c1.Init.ClockSpeed = 400000;
 80020be:	e9c4 c300 	strd	ip, r3, [r4]
  hi2c1.Init.AddressingMode = I2C_ADDRESSINGMODE_7BIT;
 80020c2:	f44f 4380 	mov.w	r3, #16384	; 0x4000
  hi2c1.Init.OwnAddress1 = 0;
 80020c6:	e9c4 5502 	strd	r5, r5, [r4, #8]
  hi2c1.Init.OwnAddress2 = 0;
 80020ca:	e9c4 5505 	strd	r5, r5, [r4, #20]
  hi2c1.Init.NoStretchMode = I2C_NOSTRETCH_DISABLE;
 80020ce:	e9c4 5507 	strd	r5, r5, [r4, #28]
  hi2c1.Init.AddressingMode = I2C_ADDRESSINGMODE_7BIT;
 80020d2:	6123      	str	r3, [r4, #16]
  if (HAL_I2C_Init(&hi2c1) != HAL_OK)
 80020d4:	f001 faea 	bl	80036ac <HAL_I2C_Init>
 80020d8:	b118      	cbz	r0, 80020e2 <main+0x43e>
 80020da:	b672      	cpsid	i
  while (1)
 80020dc:	e7fe      	b.n	80020dc <main+0x438>
 80020de:	b672      	cpsid	i
 80020e0:	e7fe      	b.n	80020e0 <main+0x43c>
  htim11.Instance = TIM11;
 80020e2:	4d59      	ldr	r5, [pc, #356]	; (8002248 <main+0x5a4>)
  htim11.Init.Prescaler = 99;
 80020e4:	4b59      	ldr	r3, [pc, #356]	; (800224c <main+0x5a8>)
  htim11.Init.CounterMode = TIM_COUNTERMODE_UP;
 80020e6:	60a8      	str	r0, [r5, #8]
  htim11.Init.Prescaler = 99;
 80020e8:	2763      	movs	r7, #99	; 0x63
 80020ea:	e9c5 3700 	strd	r3, r7, [r5]
  htim11.Init.ClockDivision = TIM_CLOCKDIVISION_DIV1;
 80020ee:	6128      	str	r0, [r5, #16]
  htim11.Init.AutoReloadPreload = TIM_AUTORELOAD_PRELOAD_DISABLE;
 80020f0:	61a8      	str	r0, [r5, #24]
  htim11.Init.Period = 65535;
 80020f2:	f64f 73ff 	movw	r3, #65535	; 0xffff
  if (HAL_TIM_Base_Init(&htim11) != HAL_OK)
 80020f6:	4628      	mov	r0, r5
  htim11.Init.Period = 65535;
 80020f8:	60eb      	str	r3, [r5, #12]
  if (HAL_TIM_Base_Init(&htim11) != HAL_OK)
 80020fa:	f003 f837 	bl	800516c <HAL_TIM_Base_Init>
 80020fe:	b9d0      	cbnz	r0, 8002136 <main+0x492>
  htim2.Instance = TIM2;
 8002100:	4e53      	ldr	r6, [pc, #332]	; (8002250 <main+0x5ac>)
 8002102:	f04f 4380 	mov.w	r3, #1073741824	; 0x40000000
  TIM_ClockConfigTypeDef sClockSourceConfig = {0};
 8002106:	e9cd 0014 	strd	r0, r0, [sp, #80]	; 0x50
 800210a:	e9cd 0016 	strd	r0, r0, [sp, #88]	; 0x58
  TIM_MasterConfigTypeDef sMasterConfig = {0};
 800210e:	e9cd 000e 	strd	r0, r0, [sp, #56]	; 0x38
  TIM_IC_InitTypeDef sConfigIC = {0};
 8002112:	e9cd 0010 	strd	r0, r0, [sp, #64]	; 0x40
 8002116:	e9cd 0012 	strd	r0, r0, [sp, #72]	; 0x48
  htim2.Init.CounterMode = TIM_COUNTERMODE_UP;
 800211a:	e9c6 7001 	strd	r7, r0, [r6, #4]
  htim2.Init.ClockDivision = TIM_CLOCKDIVISION_DIV1;
 800211e:	6130      	str	r0, [r6, #16]
  htim2.Init.AutoReloadPreload = TIM_AUTORELOAD_PRELOAD_DISABLE;
 8002120:	61b0      	str	r0, [r6, #24]
  htim2.Instance = TIM2;
 8002122:	6033      	str	r3, [r6, #0]
  if (HAL_TIM_Base_Init(&htim2) != HAL_OK)
 8002124:	4630      	mov	r0, r6
  htim2.Init.Period = 4294967295;
 8002126:	f04f 33ff 	mov.w	r3, #4294967295
 800212a:	60f3      	str	r3, [r6, #12]
  if (HAL_TIM_Base_Init(&htim2) != HAL_OK)
 800212c:	f003 f81e 	bl	800516c <HAL_TIM_Base_Init>
 8002130:	b118      	cbz	r0, 800213a <main+0x496>
 8002132:	b672      	cpsid	i
  while (1)
 8002134:	e7fe      	b.n	8002134 <main+0x490>
 8002136:	b672      	cpsid	i
 8002138:	e7fe      	b.n	8002138 <main+0x494>
  sClockSourceConfig.ClockSource = TIM_CLOCKSOURCE_INTERNAL;
 800213a:	f44f 5380 	mov.w	r3, #4096	; 0x1000
  if (HAL_TIM_ConfigClockSource(&htim2, &sClockSourceConfig) != HAL_OK)
 800213e:	a914      	add	r1, sp, #80	; 0x50
 8002140:	4630      	mov	r0, r6
  sClockSourceConfig.ClockSource = TIM_CLOCKSOURCE_INTERNAL;
 8002142:	9314      	str	r3, [sp, #80]	; 0x50
  if (HAL_TIM_ConfigClockSource(&htim2, &sClockSourceConfig) != HAL_OK)
 8002144:	f003 fd2c 	bl	8005ba0 <HAL_TIM_ConfigClockSource>
 8002148:	b108      	cbz	r0, 800214e <main+0x4aa>
 800214a:	b672      	cpsid	i
  while (1)
 800214c:	e7fe      	b.n	800214c <main+0x4a8>
  if (HAL_TIM_IC_Init(&htim2) != HAL_OK)
 800214e:	4630      	mov	r0, r6
 8002150:	f003 f9d2 	bl	80054f8 <HAL_TIM_IC_Init>
 8002154:	b108      	cbz	r0, 800215a <main+0x4b6>
 8002156:	b672      	cpsid	i
  while (1)
 8002158:	e7fe      	b.n	8002158 <main+0x4b4>
  if (HAL_TIMEx_MasterConfigSynchronization(&htim2, &sMasterConfig) != HAL_OK)
 800215a:	a90e      	add	r1, sp, #56	; 0x38
 800215c:	4630      	mov	r0, r6
  sMasterConfig.MasterOutputTrigger = TIM_TRGO_RESET;
 800215e:	e9cd 890e 	strd	r8, r9, [sp, #56]	; 0x38
  if (HAL_TIMEx_MasterConfigSynchronization(&htim2, &sMasterConfig) != HAL_OK)
 8002162:	f003 ff3d 	bl	8005fe0 <HAL_TIMEx_MasterConfigSynchronization>
 8002166:	4602      	mov	r2, r0
 8002168:	b108      	cbz	r0, 800216e <main+0x4ca>
 800216a:	b672      	cpsid	i
  while (1)
 800216c:	e7fe      	b.n	800216c <main+0x4c8>
  sConfigIC.ICPolarity = TIM_INPUTCHANNELPOLARITY_RISING;
 800216e:	e9cd 8912 	strd	r8, r9, [sp, #72]	; 0x48
  if (HAL_TIM_IC_ConfigChannel(&htim2, &sConfigIC, TIM_CHANNEL_1) != HAL_OK)
 8002172:	a910      	add	r1, sp, #64	; 0x40
  sConfigIC.ICPolarity = TIM_INPUTCHANNELPOLARITY_RISING;
 8002174:	f04f 0800 	mov.w	r8, #0
 8002178:	f04f 0901 	mov.w	r9, #1
  if (HAL_TIM_IC_ConfigChannel(&htim2, &sConfigIC, TIM_CHANNEL_1) != HAL_OK)
 800217c:	4630      	mov	r0, r6
  sConfigIC.ICPolarity = TIM_INPUTCHANNELPOLARITY_RISING;
 800217e:	e9cd 8910 	strd	r8, r9, [sp, #64]	; 0x40
  if (HAL_TIM_IC_ConfigChannel(&htim2, &sConfigIC, TIM_CHANNEL_1) != HAL_OK)
 8002182:	f003 fb31 	bl	80057e8 <HAL_TIM_IC_ConfigChannel>
 8002186:	b108      	cbz	r0, 800218c <main+0x4e8>
 8002188:	b672      	cpsid	i
  while (1)
 800218a:	e7fe      	b.n	800218a <main+0x4e6>
  htim4.Instance = TIM4;
 800218c:	4f31      	ldr	r7, [pc, #196]	; (8002254 <main+0x5b0>)
  TIM_ClockConfigTypeDef sClockSourceConfig = {0};
 800218e:	2300      	movs	r3, #0
 8002190:	e9cd 3310 	strd	r3, r3, [sp, #64]	; 0x40
 8002194:	e9cd 3312 	strd	r3, r3, [sp, #72]	; 0x48
  TIM_MasterConfigTypeDef sMasterConfig = {0};
 8002198:	e9cd 330e 	strd	r3, r3, [sp, #56]	; 0x38
  TIM_OC_InitTypeDef sConfigOC = {0};
 800219c:	e9cd 3314 	strd	r3, r3, [sp, #80]	; 0x50
 80021a0:	e9cd 3316 	strd	r3, r3, [sp, #88]	; 0x58
 80021a4:	e9cd 3318 	strd	r3, r3, [sp, #96]	; 0x60
  htim4.Init.CounterMode = TIM_COUNTERMODE_UP;
 80021a8:	e9c7 3301 	strd	r3, r3, [r7, #4]
  TIM_OC_InitTypeDef sConfigOC = {0};
 80021ac:	931a      	str	r3, [sp, #104]	; 0x68
  htim4.Init.ClockDivision = TIM_CLOCKDIVISION_DIV1;
 80021ae:	613b      	str	r3, [r7, #16]
  htim4.Init.AutoReloadPreload = TIM_AUTORELOAD_PRELOAD_DISABLE;
 80021b0:	61bb      	str	r3, [r7, #24]
  htim4.Instance = TIM4;
 80021b2:	4b29      	ldr	r3, [pc, #164]	; (8002258 <main+0x5b4>)
 80021b4:	603b      	str	r3, [r7, #0]
  if (HAL_TIM_Base_Init(&htim4) != HAL_OK)
 80021b6:	4638      	mov	r0, r7
  htim4.Init.Period = 9999;
 80021b8:	f242 730f 	movw	r3, #9999	; 0x270f
 80021bc:	60fb      	str	r3, [r7, #12]
  if (HAL_TIM_Base_Init(&htim4) != HAL_OK)
 80021be:	f002 ffd5 	bl	800516c <HAL_TIM_Base_Init>
 80021c2:	b108      	cbz	r0, 80021c8 <main+0x524>
 80021c4:	b672      	cpsid	i
  while (1)
 80021c6:	e7fe      	b.n	80021c6 <main+0x522>
  sClockSourceConfig.ClockSource = TIM_CLOCKSOURCE_INTERNAL;
 80021c8:	f44f 5380 	mov.w	r3, #4096	; 0x1000
  if (HAL_TIM_ConfigClockSource(&htim4, &sClockSourceConfig) != HAL_OK)
 80021cc:	a910      	add	r1, sp, #64	; 0x40
 80021ce:	4638      	mov	r0, r7
  sClockSourceConfig.ClockSource = TIM_CLOCKSOURCE_INTERNAL;
 80021d0:	9310      	str	r3, [sp, #64]	; 0x40
  if (HAL_TIM_ConfigClockSource(&htim4, &sClockSourceConfig) != HAL_OK)
 80021d2:	f003 fce5 	bl	8005ba0 <HAL_TIM_ConfigClockSource>
 80021d6:	b108      	cbz	r0, 80021dc <main+0x538>
 80021d8:	b672      	cpsid	i
  while (1)
 80021da:	e7fe      	b.n	80021da <main+0x536>
  if (HAL_TIM_PWM_Init(&htim4) != HAL_OK)
 80021dc:	4638      	mov	r0, r7
 80021de:	f003 f8a9 	bl	8005334 <HAL_TIM_PWM_Init>
 80021e2:	b108      	cbz	r0, 80021e8 <main+0x544>
 80021e4:	b672      	cpsid	i
  while (1)
 80021e6:	e7fe      	b.n	80021e6 <main+0x542>
  sMasterConfig.MasterOutputTrigger = TIM_TRGO_RESET;
 80021e8:	2200      	movs	r2, #0
 80021ea:	2300      	movs	r3, #0
  if (HAL_TIMEx_MasterConfigSynchronization(&htim4, &sMasterConfig) != HAL_OK)
 80021ec:	a90e      	add	r1, sp, #56	; 0x38
 80021ee:	4638      	mov	r0, r7
  sMasterConfig.MasterOutputTrigger = TIM_TRGO_RESET;
 80021f0:	e9cd 230e 	strd	r2, r3, [sp, #56]	; 0x38
  if (HAL_TIMEx_MasterConfigSynchronization(&htim4, &sMasterConfig) != HAL_OK)
 80021f4:	f003 fef4 	bl	8005fe0 <HAL_TIMEx_MasterConfigSynchronization>
 80021f8:	4602      	mov	r2, r0
 80021fa:	b138      	cbz	r0, 800220c <main+0x568>
 80021fc:	b672      	cpsid	i
  while (1)
 80021fe:	e7fe      	b.n	80021fe <main+0x55a>
      eigen_assert(((m_row+m_currentBlockRows) == m_xpr.rows() || m_xpr.cols() == 0)
 8002200:	4b16      	ldr	r3, [pc, #88]	; (800225c <main+0x5b8>)
 8002202:	4a17      	ldr	r2, [pc, #92]	; (8002260 <main+0x5bc>)
 8002204:	4817      	ldr	r0, [pc, #92]	; (8002264 <main+0x5c0>)
 8002206:	217a      	movs	r1, #122	; 0x7a
 8002208:	f003 ffc0 	bl	800618c <__assert_func>
  sConfigOC.OCPolarity = TIM_OCPOLARITY_HIGH;
 800220c:	9016      	str	r0, [sp, #88]	; 0x58
  sConfigOC.OCFastMode = TIM_OCFAST_DISABLE;
 800220e:	9018      	str	r0, [sp, #96]	; 0x60
  sConfigOC.OCMode = TIM_OCMODE_PWM1;
 8002210:	f04f 0860 	mov.w	r8, #96	; 0x60
  if (HAL_TIM_PWM_ConfigChannel(&htim4, &sConfigOC, TIM_CHANNEL_1) != HAL_OK)
 8002214:	a914      	add	r1, sp, #80	; 0x50
 8002216:	4638      	mov	r0, r7
  sConfigOC.OCMode = TIM_OCMODE_PWM1;
 8002218:	f04f 0900 	mov.w	r9, #0
 800221c:	e9cd 8914 	strd	r8, r9, [sp, #80]	; 0x50
  if (HAL_TIM_PWM_ConfigChannel(&htim4, &sConfigOC, TIM_CHANNEL_1) != HAL_OK)
 8002220:	f003 fbb8 	bl	8005994 <HAL_TIM_PWM_ConfigChannel>
 8002224:	4680      	mov	r8, r0
 8002226:	b318      	cbz	r0, 8002270 <main+0x5cc>
 8002228:	b672      	cpsid	i
  while (1)
 800222a:	e7fe      	b.n	800222a <main+0x586>
 800222c:	40020400 	.word	0x40020400
 8002230:	40020800 	.word	0x40020800
 8002234:	40020000 	.word	0x40020000
 8002238:	40020c00 	.word	0x40020c00
 800223c:	200004e0 	.word	0x200004e0
 8002240:	200003b4 	.word	0x200003b4
 8002244:	00061a80 	.word	0x00061a80
 8002248:	20000408 	.word	0x20000408
 800224c:	40014800 	.word	0x40014800
 8002250:	20000450 	.word	0x20000450
 8002254:	20000498 	.word	0x20000498
 8002258:	40000800 	.word	0x40000800
 800225c:	08007220 	.word	0x08007220
 8002260:	080076e4 	.word	0x080076e4
 8002264:	08007328 	.word	0x08007328
 8002268:	40004400 	.word	0x40004400
 800226c:	40005400 	.word	0x40005400
  HAL_TIM_MspPostInit(&htim4);
 8002270:	4638      	mov	r0, r7
 8002272:	f000 facd 	bl	8002810 <HAL_TIM_MspPostInit>
  	HAL_TIM_Base_Start_IT(&htim11); // micro timer
 8002276:	48c2      	ldr	r0, [pc, #776]	; (8002580 <main+0x8dc>)
	MeanTime =sum / (float)(CAPTURENUM-3);
 8002278:	eddf 8ac2 	vldr	s17, [pc, #776]	; 8002584 <main+0x8e0>
 800227c:	f8df b380 	ldr.w	fp, [pc, #896]	; 8002600 <main+0x95c>
	  	  pwr_sense = HAL_GPIO_ReadPin(Pwr_Sense_GPIO_Port, Pwr_Sense_Pin);
 8002280:	f8df a380 	ldr.w	sl, [pc, #896]	; 8002604 <main+0x960>
  	HAL_TIM_Base_Start_IT(&htim11); // micro timer
 8002284:	f003 f820 	bl	80052c8 <HAL_TIM_Base_Start_IT>
    HAL_TIM_Base_Start(&htim2); // Speed
 8002288:	48bf      	ldr	r0, [pc, #764]	; (8002588 <main+0x8e4>)
 800228a:	f002 ffed 	bl	8005268 <HAL_TIM_Base_Start>
    HAL_TIM_IC_Start_DMA(&htim2, TIM_CHANNEL_1, (uint32_t*) &capturedata,
 800228e:	4abf      	ldr	r2, [pc, #764]	; (800258c <main+0x8e8>)
 8002290:	48bd      	ldr	r0, [pc, #756]	; (8002588 <main+0x8e4>)
 8002292:	2310      	movs	r3, #16
 8002294:	4641      	mov	r1, r8
 8002296:	f003 f9ad 	bl	80055f4 <HAL_TIM_IC_Start_DMA>
    HAL_TIM_Base_Start(&htim4);
 800229a:	4638      	mov	r0, r7
 800229c:	f002 ffe4 	bl	8005268 <HAL_TIM_Base_Start>
    HAL_TIM_PWM_Start(&htim4, TIM_CHANNEL_1);
 80022a0:	4641      	mov	r1, r8
 80022a2:	4638      	mov	r0, r7
 80022a4:	f003 f8c4 	bl	8005430 <HAL_TIM_PWM_Start>
    HAL_Delay(100);
 80022a8:	2064      	movs	r0, #100	; 0x64
 80022aa:	f000 fc3b 	bl	8002b24 <HAL_Delay>
	HAL_I2C_Mem_Write(&hi2c1, ADDR_IOXT, 0x00, I2C_MEMADD_SIZE_8BIT, Setting,
 80022ae:	4bb8      	ldr	r3, [pc, #736]	; (8002590 <main+0x8ec>)
 80022b0:	9300      	str	r3, [sp, #0]
 80022b2:	2164      	movs	r1, #100	; 0x64
 80022b4:	2316      	movs	r3, #22
 80022b6:	e9cd 3101 	strd	r3, r1, [sp, #4]
 80022ba:	4642      	mov	r2, r8
 80022bc:	2301      	movs	r3, #1
 80022be:	48b5      	ldr	r0, [pc, #724]	; (8002594 <main+0x8f0>)
 80022c0:	f8df 8344 	ldr.w	r8, [pc, #836]	; 8002608 <main+0x964>
 80022c4:	2140      	movs	r1, #64	; 0x40
 80022c6:	f001 fab9 	bl	800383c <HAL_I2C_Mem_Write>
 80022ca:	4bb3      	ldr	r3, [pc, #716]	; (8002598 <main+0x8f4>)
 80022cc:	9306      	str	r3, [sp, #24]
	  	  if(micros() - TimeStampGrand >= 1000){
 80022ce:	4bb3      	ldr	r3, [pc, #716]	; (800259c <main+0x8f8>)
{return _micros + htim11.Instance->CNT;}
 80022d0:	6828      	ldr	r0, [r5, #0]
	  	  if(micros() - TimeStampGrand >= 1000){
 80022d2:	681a      	ldr	r2, [r3, #0]
{return _micros + htim11.Instance->CNT;}
 80022d4:	6a43      	ldr	r3, [r0, #36]	; 0x24
	  	  if(micros() - TimeStampGrand >= 1000){
 80022d6:	1a9b      	subs	r3, r3, r2
{return _micros + htim11.Instance->CNT;}
 80022d8:	e9d8 2100 	ldrd	r2, r1, [r8]
	  	  if(micros() - TimeStampGrand >= 1000){
 80022dc:	eb6c 0c0c 	sbc.w	ip, ip, ip
 80022e0:	189b      	adds	r3, r3, r2
 80022e2:	eb41 010c 	adc.w	r1, r1, ip
 80022e6:	f5b3 7f7a 	cmp.w	r3, #1000	; 0x3e8
 80022ea:	f171 0300 	sbcs.w	r3, r1, #0
 80022ee:	f080 8139 	bcs.w	8002564 <main+0x8c0>
	  	  if (micros()-timeStampSR > 1000)      // don't use 1 millisec
 80022f2:	4bab      	ldr	r3, [pc, #684]	; (80025a0 <main+0x8fc>)
{return _micros + htim11.Instance->CNT;}
 80022f4:	6828      	ldr	r0, [r5, #0]
	  	  if (micros()-timeStampSR > 1000)      // don't use 1 millisec
 80022f6:	681a      	ldr	r2, [r3, #0]
{return _micros + htim11.Instance->CNT;}
 80022f8:	6a43      	ldr	r3, [r0, #36]	; 0x24
	  	  if (micros()-timeStampSR > 1000)      // don't use 1 millisec
 80022fa:	1a9b      	subs	r3, r3, r2
{return _micros + htim11.Instance->CNT;}
 80022fc:	e9d8 2100 	ldrd	r2, r1, [r8]
	  	  if (micros()-timeStampSR > 1000)      // don't use 1 millisec
 8002300:	eb6c 0c0c 	sbc.w	ip, ip, ip
 8002304:	189b      	adds	r3, r3, r2
 8002306:	eb41 010c 	adc.w	r1, r1, ip
 800230a:	f240 3ce9 	movw	ip, #1001	; 0x3e9
 800230e:	4563      	cmp	r3, ip
 8002310:	f171 0100 	sbcs.w	r1, r1, #0
 8002314:	f0c0 80e2 	bcc.w	80024dc <main+0x838>
{return _micros + htim11.Instance->CNT;}
 8002318:	6a43      	ldr	r3, [r0, #36]	; 0x24
	  	              flag_absenc = 1;
 800231a:	49a2      	ldr	r1, [pc, #648]	; (80025a4 <main+0x900>)
{return _micros + htim11.Instance->CNT;}
 800231c:	189b      	adds	r3, r3, r2
	  	              timeStampSR = micros();           //set new time stamp
 800231e:	4aa0      	ldr	r2, [pc, #640]	; (80025a0 <main+0x8fc>)
 8002320:	6013      	str	r3, [r2, #0]
	if(flag_absenc != 0 && hi2c1.State == HAL_I2C_STATE_READY){
 8002322:	f894 303d 	ldrb.w	r3, [r4, #61]	; 0x3d
	  	              flag_absenc = 1;
 8002326:	2201      	movs	r2, #1
	if(flag_absenc != 0 && hi2c1.State == HAL_I2C_STATE_READY){
 8002328:	2b20      	cmp	r3, #32
	  	              flag_absenc = 1;
 800232a:	700a      	strb	r2, [r1, #0]
	if(flag_absenc != 0 && hi2c1.State == HAL_I2C_STATE_READY){
 800232c:	f000 810a 	beq.w	8002544 <main+0x8a0>
	uint32_t CapPos =CAPTURENUM -  __HAL_DMA_GET_COUNTER(htim2.hdma[TIM_DMA_ID_CC1]);
 8002330:	6a73      	ldr	r3, [r6, #36]	; 0x24
 8002332:	489d      	ldr	r0, [pc, #628]	; (80025a8 <main+0x904>)
 8002334:	681b      	ldr	r3, [r3, #0]
 8002336:	6859      	ldr	r1, [r3, #4]
	uint32_t sum = 0 ;
 8002338:	2300      	movs	r3, #0
 800233a:	f1c1 0213 	rsb	r2, r1, #19
 800233e:	f1c1 0120 	rsb	r1, r1, #32
		DiffTime[i]  = capturedata[(CapPos+1+i)%CAPTURENUM]-capturedata[(CapPos+i)%CAPTURENUM];
 8002342:	469e      	mov	lr, r3
 8002344:	9105      	str	r1, [sp, #20]
 8002346:	f102 3cff 	add.w	ip, r2, #4294967295
 800234a:	4990      	ldr	r1, [pc, #576]	; (800258c <main+0x8e8>)
 800234c:	f8c0 e004 	str.w	lr, [r0, #4]
 8002350:	f00c 0c0f 	and.w	ip, ip, #15
 8002354:	3008      	adds	r0, #8
 8002356:	f851 902c 	ldr.w	r9, [r1, ip, lsl #2]
 800235a:	f002 0c0f 	and.w	ip, r2, #15
	for(register int i=2 ;i < CAPTURENUM-1;i++)
 800235e:	3201      	adds	r2, #1
		DiffTime[i]  = capturedata[(CapPos+1+i)%CAPTURENUM]-capturedata[(CapPos+i)%CAPTURENUM];
 8002360:	f851 c02c 	ldr.w	ip, [r1, ip, lsl #2]
	for(register int i=2 ;i < CAPTURENUM-1;i++)
 8002364:	9905      	ldr	r1, [sp, #20]
		DiffTime[i]  = capturedata[(CapPos+1+i)%CAPTURENUM]-capturedata[(CapPos+i)%CAPTURENUM];
 8002366:	ebac 0c09 	sub.w	ip, ip, r9
	for(register int i=2 ;i < CAPTURENUM-1;i++)
 800236a:	4291      	cmp	r1, r2
		DiffTime[i]  = capturedata[(CapPos+1+i)%CAPTURENUM]-capturedata[(CapPos+i)%CAPTURENUM];
 800236c:	f840 cc08 	str.w	ip, [r0, #-8]
		sum += DiffTime[i];
 8002370:	4463      	add	r3, ip
	for(register int i=2 ;i < CAPTURENUM-1;i++)
 8002372:	d1e8      	bne.n	8002346 <main+0x6a2>
	MeanTime =sum / (float)(CAPTURENUM-3);
 8002374:	ee07 3a90 	vmov	s15, r3
	RoundNum = (60000000.0 / MeanTime)/1024.0; // round per min detect by 1024 clk
 8002378:	ed9f 6a8c 	vldr	s12, [pc, #560]	; 80025ac <main+0x908>
	MeanTime =sum / (float)(CAPTURENUM-3);
 800237c:	4b8c      	ldr	r3, [pc, #560]	; (80025b0 <main+0x90c>)
 800237e:	eef8 7a67 	vcvt.f32.u32	s15, s15
	  	  pwr_sense = HAL_GPIO_ReadPin(Pwr_Sense_GPIO_Port, Pwr_Sense_Pin);
 8002382:	2102      	movs	r1, #2
	RoundNum = (60000000.0 / MeanTime)/1024.0; // round per min detect by 1024 clk
 8002384:	ee86 7a27 	vdiv.f32	s14, s12, s15
	  	  pwr_sense = HAL_GPIO_ReadPin(Pwr_Sense_GPIO_Port, Pwr_Sense_Pin);
 8002388:	4650      	mov	r0, sl
	MeanTime =sum / (float)(CAPTURENUM-3);
 800238a:	ee67 6aa8 	vmul.f32	s13, s15, s17
 800238e:	edc3 6a00 	vstr	s13, [r3]
	RoundNum = (60000000.0 / MeanTime)/1024.0; // round per min detect by 1024 clk
 8002392:	4b88      	ldr	r3, [pc, #544]	; (80025b4 <main+0x910>)
 8002394:	ed83 7a00 	vstr	s14, [r3]
	  	  pwr_sense = HAL_GPIO_ReadPin(Pwr_Sense_GPIO_Port, Pwr_Sense_Pin);
 8002398:	f000 ff1e 	bl	80031d8 <HAL_GPIO_ReadPin>
 800239c:	4b86      	ldr	r3, [pc, #536]	; (80025b8 <main+0x914>)
{return _micros + htim11.Instance->CNT;}
 800239e:	f8d8 1004 	ldr.w	r1, [r8, #4]
	  	if(micros() - timestampve >= 10000){
 80023a2:	f8db 2000 	ldr.w	r2, [fp]
	  	  pwr_sense = HAL_GPIO_ReadPin(Pwr_Sense_GPIO_Port, Pwr_Sense_Pin);
 80023a6:	7018      	strb	r0, [r3, #0]
{return _micros + htim11.Instance->CNT;}
 80023a8:	f8d8 9000 	ldr.w	r9, [r8]
 80023ac:	682b      	ldr	r3, [r5, #0]
 80023ae:	9105      	str	r1, [sp, #20]
	  	if(micros() - timestampve >= 10000){
 80023b0:	ebb9 0c02 	subs.w	ip, r9, r2
{return _micros + htim11.Instance->CNT;}
 80023b4:	6a58      	ldr	r0, [r3, #36]	; 0x24
 80023b6:	460a      	mov	r2, r1
	  	if(micros() - timestampve >= 10000){
 80023b8:	f8db 1004 	ldr.w	r1, [fp, #4]
 80023bc:	eb62 0101 	sbc.w	r1, r2, r1
 80023c0:	eb1c 0200 	adds.w	r2, ip, r0
 80023c4:	f242 7010 	movw	r0, #10000	; 0x2710
 80023c8:	f141 0100 	adc.w	r1, r1, #0
 80023cc:	4282      	cmp	r2, r0
 80023ce:	f171 0200 	sbcs.w	r2, r1, #0
 80023d2:	d233      	bcs.n	800243c <main+0x798>
	  	 if(micros() - timestampPWM >= 500){
 80023d4:	4879      	ldr	r0, [pc, #484]	; (80025bc <main+0x918>)
{return _micros + htim11.Instance->CNT;}
 80023d6:	6a5a      	ldr	r2, [r3, #36]	; 0x24
	  	 if(micros() - timestampPWM >= 500){
 80023d8:	6801      	ldr	r1, [r0, #0]
 80023da:	1a52      	subs	r2, r2, r1
 80023dc:	eb61 0101 	sbc.w	r1, r1, r1
 80023e0:	eb12 0c09 	adds.w	ip, r2, r9
 80023e4:	9a05      	ldr	r2, [sp, #20]
 80023e6:	eb42 0101 	adc.w	r1, r2, r1
 80023ea:	f5bc 7ffa 	cmp.w	ip, #500	; 0x1f4
 80023ee:	f171 0200 	sbcs.w	r2, r1, #0
 80023f2:	d311      	bcc.n	8002418 <main+0x774>
{return _micros + htim11.Instance->CNT;}
 80023f4:	6a5b      	ldr	r3, [r3, #36]	; 0x24
	  	  		  __HAL_TIM_SET_COMPARE(&htim4, TIM_CHANNEL_1, PWMOut);
 80023f6:	4972      	ldr	r1, [pc, #456]	; (80025c0 <main+0x91c>)
 80023f8:	683a      	ldr	r2, [r7, #0]
 80023fa:	8809      	ldrh	r1, [r1, #0]
 80023fc:	6351      	str	r1, [r2, #52]	; 0x34
{return _micros + htim11.Instance->CNT;}
 80023fe:	eb13 0309 	adds.w	r3, r3, r9
	  		  	  timestampPWM = micros(); // stamp
 8002402:	6003      	str	r3, [r0, #0]
	  	  		if (mot_dirctn == 0){
 8002404:	4b6f      	ldr	r3, [pc, #444]	; (80025c4 <main+0x920>)
 8002406:	781b      	ldrb	r3, [r3, #0]
 8002408:	2b00      	cmp	r3, #0
 800240a:	f040 80b2 	bne.w	8002572 <main+0x8ce>
						HAL_GPIO_WritePin(Mot_dir_GPIO_Port, Mot_dir_Pin, GPIO_PIN_SET);
 800240e:	2201      	movs	r2, #1
 8002410:	2104      	movs	r1, #4
 8002412:	4650      	mov	r0, sl
 8002414:	f000 fee6 	bl	80031e4 <HAL_GPIO_WritePin>
	  	 if (grandState ==  work){
 8002418:	4b6b      	ldr	r3, [pc, #428]	; (80025c8 <main+0x924>)
 800241a:	781b      	ldrb	r3, [r3, #0]
 800241c:	2b01      	cmp	r3, #1
 800241e:	f47f af56 	bne.w	80022ce <main+0x62a>
	  		 Unwrapping();
 8002422:	f7fe fdcd 	bl	8000fc0 <_Z10Unwrappingv>
	  		 Trajectory();
 8002426:	f7fe fc6b 	bl	8000d00 <_Z10Trajectoryv>
	  		 Kalmanfilter();
 800242a:	f7ff f971 	bl	8001710 <_Z12Kalmanfilterv>
	  		 PIDPosition();
 800242e:	f7fe fe47 	bl	80010c0 <_Z11PIDPositionv>
	  		 PIDVelocity();
 8002432:	f7fe feb1 	bl	8001198 <_Z11PIDVelocityv>
	  		 MotDrvCytron();
 8002436:	f7fe ff0f 	bl	8001258 <_Z12MotDrvCytronv>
 800243a:	e748      	b.n	80022ce <main+0x62a>
	  			  posSpeedlog[1] = posSpeedlog[0];
 800243c:	4863      	ldr	r0, [pc, #396]	; (80025cc <main+0x928>)
	  			  posSpeedlog[0] = BinPosXI;
 800243e:	4964      	ldr	r1, [pc, #400]	; (80025d0 <main+0x92c>)
	  			  posSpeedlog[1] = posSpeedlog[0];
 8002440:	8802      	ldrh	r2, [r0, #0]
	  			  posSpeedlog[0] = BinPosXI;
 8002442:	8809      	ldrh	r1, [r1, #0]
	  			  posSpeedlog[1] = posSpeedlog[0];
 8002444:	8042      	strh	r2, [r0, #2]
	  			  deltaar = (fabsf(posSpeedlog[1]-posSpeedlog[0])) / 1024.0;
 8002446:	1a52      	subs	r2, r2, r1
 8002448:	ee07 2a90 	vmov	s15, r2
 800244c:	eef8 7ae7 	vcvt.f32.s32	s15, s15
 8002450:	ed9f 7a60 	vldr	s14, [pc, #384]	; 80025d4 <main+0x930>
 8002454:	4a60      	ldr	r2, [pc, #384]	; (80025d8 <main+0x934>)
	  			  RoundNumnd = deltaar*100.0*60.0;
 8002456:	ed9f 8a61 	vldr	s16, [pc, #388]	; 80025dc <main+0x938>
{return _micros + htim11.Instance->CNT;}
 800245a:	9307      	str	r3, [sp, #28]
	  			  deltaar = (fabsf(posSpeedlog[1]-posSpeedlog[0])) / 1024.0;
 800245c:	eef0 7ae7 	vabs.f32	s15, s15
 8002460:	ee67 7a87 	vmul.f32	s15, s15, s14
	  			  posSpeedlog[0] = BinPosXI;
 8002464:	8001      	strh	r1, [r0, #0]
	  			  RoundNumnd = deltaar*100.0*60.0;
 8002466:	ee27 8a88 	vmul.f32	s16, s15, s16
	  			  deltaar = (fabsf(posSpeedlog[1]-posSpeedlog[0])) / 1024.0;
 800246a:	edc2 7a00 	vstr	s15, [r2]
	  			  RoundNumnd = deltaar*100.0*60.0;
 800246e:	4a5c      	ldr	r2, [pc, #368]	; (80025e0 <main+0x93c>)
		speedsmoothlog[j] = speedsmoothlog[j-1];
 8002470:	4949      	ldr	r1, [pc, #292]	; (8002598 <main+0x8f4>)
	  			  RoundNumnd = deltaar*100.0*60.0;
 8002472:	ed82 8a00 	vstr	s16, [r2]
{return _micros + htim11.Instance->CNT;}
 8002476:	6a5a      	ldr	r2, [r3, #36]	; 0x24
 8002478:	9b05      	ldr	r3, [sp, #20]
 800247a:	eb12 0209 	adds.w	r2, r2, r9
	  			  timestampve = micros();
 800247e:	f8cb 2000 	str.w	r2, [fp]
{return _micros + htim11.Instance->CNT;}
 8002482:	f143 0200 	adc.w	r2, r3, #0
	  			  timestampve = micros();
 8002486:	f8cb 2004 	str.w	r2, [fp, #4]
		speedsmoothlog[j] = speedsmoothlog[j-1];
 800248a:	1d08      	adds	r0, r1, #4
 800248c:	223c      	movs	r2, #60	; 0x3c
 800248e:	f003 fed7 	bl	8006240 <memmove>
	speedsmoothlog[0] = inpdat;
 8002492:	9b06      	ldr	r3, [sp, #24]
	float summa = 0.0;
 8002494:	ed9f 7a53 	vldr	s14, [pc, #332]	; 80025e4 <main+0x940>
	speedsmoothlog[0] = inpdat;
 8002498:	ed83 8a00 	vstr	s16, [r3]
	for (int k = 0; k < CAPTURENUM;k++){
 800249c:	4b3e      	ldr	r3, [pc, #248]	; (8002598 <main+0x8f4>)
 800249e:	9306      	str	r3, [sp, #24]
 80024a0:	4618      	mov	r0, r3
		if (speedsmoothlog[k]>=500){errcut++;}
 80024a2:	eddf 6a51 	vldr	s13, [pc, #324]	; 80025e8 <main+0x944>
	int errcut = 0;
 80024a6:	9b07      	ldr	r3, [sp, #28]
	speedsmoothlog[0] = inpdat;
 80024a8:	2110      	movs	r1, #16
	int errcut = 0;
 80024aa:	2200      	movs	r2, #0
		if (speedsmoothlog[k]>=500){errcut++;}
 80024ac:	ecf0 7a01 	vldmia	r0!, {s15}
 80024b0:	eef4 7ae6 	vcmpe.f32	s15, s13
 80024b4:	eef1 fa10 	vmrs	APSR_nzcv, fpscr
		else{summa+= speedsmoothlog[k];}
 80024b8:	bfb4      	ite	lt
 80024ba:	ee37 7a27 	vaddlt.f32	s14, s14, s15
		if (speedsmoothlog[k]>=500){errcut++;}
 80024be:	3201      	addge	r2, #1
	for (int k = 0; k < CAPTURENUM;k++){
 80024c0:	3901      	subs	r1, #1
 80024c2:	d1f3      	bne.n	80024ac <main+0x808>
	RoundNumnd_sm =  summa / (CAPTURENUM-errcut);
 80024c4:	f1c2 0210 	rsb	r2, r2, #16
 80024c8:	ee07 2a90 	vmov	s15, r2
 80024cc:	eef8 7ae7 	vcvt.f32.s32	s15, s15
 80024d0:	4a46      	ldr	r2, [pc, #280]	; (80025ec <main+0x948>)
 80024d2:	eec7 6a27 	vdiv.f32	s13, s14, s15
 80024d6:	edc2 6a00 	vstr	s13, [r2]
}
 80024da:	e77b      	b.n	80023d4 <main+0x730>
	if(flag_absenc != 0 && hi2c1.State == HAL_I2C_STATE_READY){
 80024dc:	4b31      	ldr	r3, [pc, #196]	; (80025a4 <main+0x900>)
 80024de:	781b      	ldrb	r3, [r3, #0]
 80024e0:	2b00      	cmp	r3, #0
 80024e2:	f43f af25 	beq.w	8002330 <main+0x68c>
 80024e6:	f894 203d 	ldrb.w	r2, [r4, #61]	; 0x3d
 80024ea:	2a20      	cmp	r2, #32
 80024ec:	f47f af20 	bne.w	8002330 <main+0x68c>
		switch(flag_absenc){
 80024f0:	2b02      	cmp	r3, #2
 80024f2:	f000 808b 	beq.w	800260c <main+0x968>
 80024f6:	2b03      	cmp	r3, #3
 80024f8:	d121      	bne.n	800253e <main+0x89a>
			GrayCBitx = (RawEnBitB << 8) | RawEnBitA;
 80024fa:	4b3d      	ldr	r3, [pc, #244]	; (80025f0 <main+0x94c>)
 80024fc:	781a      	ldrb	r2, [r3, #0]
 80024fe:	4b3d      	ldr	r3, [pc, #244]	; (80025f4 <main+0x950>)
 8002500:	781b      	ldrb	r3, [r3, #0]
 8002502:	ea43 2302 	orr.w	r3, r3, r2, lsl #8
 8002506:	4a3c      	ldr	r2, [pc, #240]	; (80025f8 <main+0x954>)
 8002508:	8013      	strh	r3, [r2, #0]
			GrayCBitXI = ~GrayCBitx & 0b0000001111111111;
 800250a:	43db      	mvns	r3, r3
 800250c:	f3c3 0209 	ubfx	r2, r3, #0, #10
 8002510:	4b3a      	ldr	r3, [pc, #232]	; (80025fc <main+0x958>)
    binaryout = (grayx >> (numbit-1))&0x01;
 8002512:	2108      	movs	r1, #8
			GrayCBitXI = ~GrayCBitx & 0b0000001111111111;
 8002514:	801a      	strh	r2, [r3, #0]
    binaryout = (grayx >> (numbit-1))&0x01;
 8002516:	0a53      	lsrs	r3, r2, #9
        int cp2 = grayx >> (numbit-(i+1))&0x01; //
 8002518:	fa42 f001 	asr.w	r0, r2, r1
        int cp1 = binaryout&0x01 ;//>> (numbit-i)
 800251c:	f003 0c01 	and.w	ip, r3, #1
        int cp2 = grayx >> (numbit-(i+1))&0x01; //
 8002520:	f000 0001 	and.w	r0, r0, #1
            {binaryout = (binaryout << 1) + 0; } //qd = 0;
 8002524:	005b      	lsls	r3, r3, #1
        if (cp1 == cp2)
 8002526:	4560      	cmp	r0, ip
            {binaryout = (binaryout << 1) + 1; } //qd = 1;
 8002528:	bf18      	it	ne
 800252a:	3301      	addne	r3, #1
    for (int i = 1; i < numbit ;i++){
 800252c:	3901      	subs	r1, #1
            {binaryout = (binaryout << 1) + 1; } //qd = 1;
 800252e:	b29b      	uxth	r3, r3
    for (int i = 1; i < numbit ;i++){
 8002530:	d2f2      	bcs.n	8002518 <main+0x874>
			BinPosXI = GraytoBinario(GrayCBitXI, 10);
 8002532:	4a27      	ldr	r2, [pc, #156]	; (80025d0 <main+0x92c>)
 8002534:	8013      	strh	r3, [r2, #0]
			flag_absenc = 0;
 8002536:	4a1b      	ldr	r2, [pc, #108]	; (80025a4 <main+0x900>)
 8002538:	2300      	movs	r3, #0
 800253a:	7013      	strb	r3, [r2, #0]
}
 800253c:	e6f8      	b.n	8002330 <main+0x68c>
		switch(flag_absenc){
 800253e:	2b01      	cmp	r3, #1
 8002540:	f47f aef6 	bne.w	8002330 <main+0x68c>
			HAL_I2C_Mem_Read(&hi2c1, ADDR_IOXT, 0x12, I2C_MEMADD_SIZE_8BIT,
 8002544:	4b2b      	ldr	r3, [pc, #172]	; (80025f4 <main+0x950>)
 8002546:	9300      	str	r3, [sp, #0]
 8002548:	2264      	movs	r2, #100	; 0x64
 800254a:	2301      	movs	r3, #1
 800254c:	e9cd 3201 	strd	r3, r2, [sp, #4]
 8002550:	4810      	ldr	r0, [pc, #64]	; (8002594 <main+0x8f0>)
 8002552:	2212      	movs	r2, #18
 8002554:	2140      	movs	r1, #64	; 0x40
 8002556:	f001 fa65 	bl	8003a24 <HAL_I2C_Mem_Read>
			flag_absenc = 2;
 800255a:	4b12      	ldr	r3, [pc, #72]	; (80025a4 <main+0x900>)
 800255c:	f04f 0202 	mov.w	r2, #2
 8002560:	701a      	strb	r2, [r3, #0]
		break;
 8002562:	e6e5      	b.n	8002330 <main+0x68c>
{return _micros + htim11.Instance->CNT;}
 8002564:	6a43      	ldr	r3, [r0, #36]	; 0x24
 8002566:	189b      	adds	r3, r3, r2
	  		TimeStampGrand = micros();
 8002568:	4a0c      	ldr	r2, [pc, #48]	; (800259c <main+0x8f8>)
 800256a:	6013      	str	r3, [r2, #0]
	  		GrandStatumix();
 800256c:	f7ff fa9a 	bl	8001aa4 <_Z13GrandStatumixv>
 8002570:	e6bf      	b.n	80022f2 <main+0x64e>
						HAL_GPIO_WritePin(Mot_dir_GPIO_Port, Mot_dir_Pin, GPIO_PIN_RESET);
 8002572:	2200      	movs	r2, #0
 8002574:	2104      	movs	r1, #4
 8002576:	4650      	mov	r0, sl
 8002578:	f000 fe34 	bl	80031e4 <HAL_GPIO_WritePin>
 800257c:	e74c      	b.n	8002418 <main+0x774>
 800257e:	bf00      	nop
 8002580:	20000408 	.word	0x20000408
 8002584:	3d9d89d9 	.word	0x3d9d89d9
 8002588:	20000450 	.word	0x20000450
 800258c:	2000030c 	.word	0x2000030c
 8002590:	20000024 	.word	0x20000024
 8002594:	200003b4 	.word	0x200003b4
 8002598:	20000538 	.word	0x20000538
 800259c:	200002c0 	.word	0x200002c0
 80025a0:	20000584 	.word	0x20000584
 80025a4:	200002fd 	.word	0x200002fd
 80025a8:	20000128 	.word	0x20000128
 80025ac:	4939f76b 	.word	0x4939f76b
 80025b0:	20000204 	.word	0x20000204
 80025b4:	200002a8 	.word	0x200002a8
 80025b8:	2000052e 	.word	0x2000052e
 80025bc:	20000588 	.word	0x20000588
 80025c0:	20000010 	.word	0x20000010
 80025c4:	20000524 	.word	0x20000524
 80025c8:	200002fc 	.word	0x200002fc
 80025cc:	20000528 	.word	0x20000528
 80025d0:	200000fc 	.word	0x200000fc
 80025d4:	3a800000 	.word	0x3a800000
 80025d8:	20000350 	.word	0x20000350
 80025dc:	45bb8000 	.word	0x45bb8000
 80025e0:	200002ac 	.word	0x200002ac
 80025e4:	00000000 	.word	0x00000000
 80025e8:	43fa0000 	.word	0x43fa0000
 80025ec:	200002b0 	.word	0x200002b0
 80025f0:	200002a5 	.word	0x200002a5
 80025f4:	200002a4 	.word	0x200002a4
 80025f8:	200001b6 	.word	0x200001b6
 80025fc:	200001b4 	.word	0x200001b4
 8002600:	20000590 	.word	0x20000590
 8002604:	40020400 	.word	0x40020400
 8002608:	20000300 	.word	0x20000300
			HAL_I2C_Mem_Read(&hi2c1, ADDR_IOXT, 0x13, I2C_MEMADD_SIZE_8BIT,
 800260c:	4b07      	ldr	r3, [pc, #28]	; (800262c <main+0x988>)
 800260e:	9300      	str	r3, [sp, #0]
 8002610:	2264      	movs	r2, #100	; 0x64
 8002612:	2301      	movs	r3, #1
 8002614:	e9cd 3201 	strd	r3, r2, [sp, #4]
 8002618:	4805      	ldr	r0, [pc, #20]	; (8002630 <main+0x98c>)
 800261a:	2213      	movs	r2, #19
 800261c:	2140      	movs	r1, #64	; 0x40
 800261e:	f001 fa01 	bl	8003a24 <HAL_I2C_Mem_Read>
			flag_absenc = 3;
 8002622:	4a04      	ldr	r2, [pc, #16]	; (8002634 <main+0x990>)
 8002624:	2303      	movs	r3, #3
 8002626:	7013      	strb	r3, [r2, #0]
		break;
 8002628:	e682      	b.n	8002330 <main+0x68c>
 800262a:	bf00      	nop
 800262c:	200002a5 	.word	0x200002a5
 8002630:	200003b4 	.word	0x200003b4
 8002634:	200002fd 	.word	0x200002fd

08002638 <HAL_MspInit>:
void HAL_TIM_MspPostInit(TIM_HandleTypeDef *htim);
                    /**
  * Initializes the Global MSP.
  */
void HAL_MspInit(void)
{
 8002638:	b082      	sub	sp, #8
  /* USER CODE BEGIN MspInit 0 */

  /* USER CODE END MspInit 0 */

  __HAL_RCC_SYSCFG_CLK_ENABLE();
 800263a:	4b0d      	ldr	r3, [pc, #52]	; (8002670 <HAL_MspInit+0x38>)
 800263c:	2100      	movs	r1, #0
 800263e:	9100      	str	r1, [sp, #0]
 8002640:	6c5a      	ldr	r2, [r3, #68]	; 0x44
 8002642:	f442 4280 	orr.w	r2, r2, #16384	; 0x4000
 8002646:	645a      	str	r2, [r3, #68]	; 0x44
 8002648:	6c5a      	ldr	r2, [r3, #68]	; 0x44
 800264a:	f402 4280 	and.w	r2, r2, #16384	; 0x4000
 800264e:	9200      	str	r2, [sp, #0]
 8002650:	9a00      	ldr	r2, [sp, #0]
  __HAL_RCC_PWR_CLK_ENABLE();
 8002652:	9101      	str	r1, [sp, #4]
 8002654:	6c1a      	ldr	r2, [r3, #64]	; 0x40
 8002656:	f042 5280 	orr.w	r2, r2, #268435456	; 0x10000000
 800265a:	641a      	str	r2, [r3, #64]	; 0x40
 800265c:	6c1b      	ldr	r3, [r3, #64]	; 0x40
 800265e:	f003 5380 	and.w	r3, r3, #268435456	; 0x10000000
 8002662:	9301      	str	r3, [sp, #4]
 8002664:	9b01      	ldr	r3, [sp, #4]

  HAL_NVIC_SetPriorityGrouping(NVIC_PRIORITYGROUP_0);
 8002666:	2007      	movs	r0, #7
  /* System interrupt init*/

  /* USER CODE BEGIN MspInit 1 */

  /* USER CODE END MspInit 1 */
}
 8002668:	b002      	add	sp, #8
  HAL_NVIC_SetPriorityGrouping(NVIC_PRIORITYGROUP_0);
 800266a:	f000 ba6d 	b.w	8002b48 <HAL_NVIC_SetPriorityGrouping>
 800266e:	bf00      	nop
 8002670:	40023800 	.word	0x40023800

08002674 <HAL_I2C_MspInit>:
* This function configures the hardware resources used in this example
* @param hi2c: I2C handle pointer
* @retval None
*/
void HAL_I2C_MspInit(I2C_HandleTypeDef* hi2c)
{
 8002674:	b530      	push	{r4, r5, lr}
  GPIO_InitTypeDef GPIO_InitStruct = {0};
  if(hi2c->Instance==I2C1)
 8002676:	4b20      	ldr	r3, [pc, #128]	; (80026f8 <HAL_I2C_MspInit+0x84>)
 8002678:	6802      	ldr	r2, [r0, #0]
{
 800267a:	b089      	sub	sp, #36	; 0x24
  GPIO_InitTypeDef GPIO_InitStruct = {0};
 800267c:	2400      	movs	r4, #0
  if(hi2c->Instance==I2C1)
 800267e:	429a      	cmp	r2, r3
  GPIO_InitTypeDef GPIO_InitStruct = {0};
 8002680:	e9cd 4402 	strd	r4, r4, [sp, #8]
 8002684:	e9cd 4404 	strd	r4, r4, [sp, #16]
 8002688:	9406      	str	r4, [sp, #24]
  if(hi2c->Instance==I2C1)
 800268a:	d001      	beq.n	8002690 <HAL_I2C_MspInit+0x1c>
  /* USER CODE BEGIN I2C1_MspInit 1 */

  /* USER CODE END I2C1_MspInit 1 */
  }

}
 800268c:	b009      	add	sp, #36	; 0x24
 800268e:	bd30      	pop	{r4, r5, pc}
    __HAL_RCC_GPIOB_CLK_ENABLE();
 8002690:	4d1a      	ldr	r5, [pc, #104]	; (80026fc <HAL_I2C_MspInit+0x88>)
 8002692:	9400      	str	r4, [sp, #0]
 8002694:	6b2b      	ldr	r3, [r5, #48]	; 0x30
    HAL_GPIO_Init(GPIOB, &GPIO_InitStruct);
 8002696:	481a      	ldr	r0, [pc, #104]	; (8002700 <HAL_I2C_MspInit+0x8c>)
    __HAL_RCC_GPIOB_CLK_ENABLE();
 8002698:	f043 0302 	orr.w	r3, r3, #2
 800269c:	632b      	str	r3, [r5, #48]	; 0x30
 800269e:	6b2b      	ldr	r3, [r5, #48]	; 0x30
 80026a0:	f003 0302 	and.w	r3, r3, #2
 80026a4:	9300      	str	r3, [sp, #0]
    GPIO_InitStruct.Pin = GPIO_PIN_8|GPIO_PIN_9;
 80026a6:	f44f 7240 	mov.w	r2, #768	; 0x300
 80026aa:	2312      	movs	r3, #18
 80026ac:	e9cd 2302 	strd	r2, r3, [sp, #8]
    GPIO_InitStruct.Speed = GPIO_SPEED_FREQ_VERY_HIGH;
 80026b0:	2303      	movs	r3, #3
    HAL_GPIO_Init(GPIOB, &GPIO_InitStruct);
 80026b2:	a902      	add	r1, sp, #8
    GPIO_InitStruct.Speed = GPIO_SPEED_FREQ_VERY_HIGH;
 80026b4:	9305      	str	r3, [sp, #20]
    GPIO_InitStruct.Alternate = GPIO_AF4_I2C1;
 80026b6:	2304      	movs	r3, #4
    __HAL_RCC_GPIOB_CLK_ENABLE();
 80026b8:	9a00      	ldr	r2, [sp, #0]
    GPIO_InitStruct.Alternate = GPIO_AF4_I2C1;
 80026ba:	9306      	str	r3, [sp, #24]
    HAL_GPIO_Init(GPIOB, &GPIO_InitStruct);
 80026bc:	f000 fc9a 	bl	8002ff4 <HAL_GPIO_Init>
    __HAL_RCC_I2C1_CLK_ENABLE();
 80026c0:	9401      	str	r4, [sp, #4]
 80026c2:	6c2b      	ldr	r3, [r5, #64]	; 0x40
 80026c4:	f443 1300 	orr.w	r3, r3, #2097152	; 0x200000
 80026c8:	642b      	str	r3, [r5, #64]	; 0x40
 80026ca:	6c2b      	ldr	r3, [r5, #64]	; 0x40
 80026cc:	f403 1300 	and.w	r3, r3, #2097152	; 0x200000
    HAL_NVIC_SetPriority(I2C1_EV_IRQn, 0, 0);
 80026d0:	4622      	mov	r2, r4
 80026d2:	4621      	mov	r1, r4
    __HAL_RCC_I2C1_CLK_ENABLE();
 80026d4:	9301      	str	r3, [sp, #4]
    HAL_NVIC_SetPriority(I2C1_EV_IRQn, 0, 0);
 80026d6:	201f      	movs	r0, #31
    __HAL_RCC_I2C1_CLK_ENABLE();
 80026d8:	9b01      	ldr	r3, [sp, #4]
    HAL_NVIC_SetPriority(I2C1_EV_IRQn, 0, 0);
 80026da:	f000 fa47 	bl	8002b6c <HAL_NVIC_SetPriority>
    HAL_NVIC_EnableIRQ(I2C1_EV_IRQn);
 80026de:	201f      	movs	r0, #31
 80026e0:	f000 fa82 	bl	8002be8 <HAL_NVIC_EnableIRQ>
    HAL_NVIC_SetPriority(I2C1_ER_IRQn, 0, 0);
 80026e4:	4622      	mov	r2, r4
 80026e6:	4621      	mov	r1, r4
 80026e8:	2020      	movs	r0, #32
 80026ea:	f000 fa3f 	bl	8002b6c <HAL_NVIC_SetPriority>
    HAL_NVIC_EnableIRQ(I2C1_ER_IRQn);
 80026ee:	2020      	movs	r0, #32
 80026f0:	f000 fa7a 	bl	8002be8 <HAL_NVIC_EnableIRQ>
}
 80026f4:	b009      	add	sp, #36	; 0x24
 80026f6:	bd30      	pop	{r4, r5, pc}
 80026f8:	40005400 	.word	0x40005400
 80026fc:	40023800 	.word	0x40023800
 8002700:	40020400 	.word	0x40020400

08002704 <HAL_TIM_Base_MspInit>:
* This function configures the hardware resources used in this example
* @param htim_base: TIM_Base handle pointer
* @retval None
*/
void HAL_TIM_Base_MspInit(TIM_HandleTypeDef* htim_base)
{
 8002704:	b570      	push	{r4, r5, r6, lr}
  GPIO_InitTypeDef GPIO_InitStruct = {0};
  if(htim_base->Instance==TIM2)
 8002706:	6803      	ldr	r3, [r0, #0]
{
 8002708:	b08a      	sub	sp, #40	; 0x28
  GPIO_InitTypeDef GPIO_InitStruct = {0};
 800270a:	2400      	movs	r4, #0
  if(htim_base->Instance==TIM2)
 800270c:	f1b3 4f80 	cmp.w	r3, #1073741824	; 0x40000000
  GPIO_InitTypeDef GPIO_InitStruct = {0};
 8002710:	e9cd 4404 	strd	r4, r4, [sp, #16]
 8002714:	e9cd 4406 	strd	r4, r4, [sp, #24]
 8002718:	9408      	str	r4, [sp, #32]
  if(htim_base->Instance==TIM2)
 800271a:	d029      	beq.n	8002770 <HAL_TIM_Base_MspInit+0x6c>

  /* USER CODE BEGIN TIM2_MspInit 1 */

  /* USER CODE END TIM2_MspInit 1 */
  }
  else if(htim_base->Instance==TIM4)
 800271c:	4a36      	ldr	r2, [pc, #216]	; (80027f8 <HAL_TIM_Base_MspInit+0xf4>)
 800271e:	4293      	cmp	r3, r2
 8002720:	d004      	beq.n	800272c <HAL_TIM_Base_MspInit+0x28>
    __HAL_RCC_TIM4_CLK_ENABLE();
  /* USER CODE BEGIN TIM4_MspInit 1 */

  /* USER CODE END TIM4_MspInit 1 */
  }
  else if(htim_base->Instance==TIM11)
 8002722:	4a36      	ldr	r2, [pc, #216]	; (80027fc <HAL_TIM_Base_MspInit+0xf8>)
 8002724:	4293      	cmp	r3, r2
 8002726:	d00e      	beq.n	8002746 <HAL_TIM_Base_MspInit+0x42>
  /* USER CODE BEGIN TIM11_MspInit 1 */

  /* USER CODE END TIM11_MspInit 1 */
  }

}
 8002728:	b00a      	add	sp, #40	; 0x28
 800272a:	bd70      	pop	{r4, r5, r6, pc}
    __HAL_RCC_TIM4_CLK_ENABLE();
 800272c:	4b34      	ldr	r3, [pc, #208]	; (8002800 <HAL_TIM_Base_MspInit+0xfc>)
 800272e:	9402      	str	r4, [sp, #8]
 8002730:	6c1a      	ldr	r2, [r3, #64]	; 0x40
 8002732:	f042 0204 	orr.w	r2, r2, #4
 8002736:	641a      	str	r2, [r3, #64]	; 0x40
 8002738:	6c1b      	ldr	r3, [r3, #64]	; 0x40
 800273a:	f003 0304 	and.w	r3, r3, #4
 800273e:	9302      	str	r3, [sp, #8]
 8002740:	9b02      	ldr	r3, [sp, #8]
}
 8002742:	b00a      	add	sp, #40	; 0x28
 8002744:	bd70      	pop	{r4, r5, r6, pc}
    __HAL_RCC_TIM11_CLK_ENABLE();
 8002746:	4b2e      	ldr	r3, [pc, #184]	; (8002800 <HAL_TIM_Base_MspInit+0xfc>)
 8002748:	9403      	str	r4, [sp, #12]
 800274a:	6c5a      	ldr	r2, [r3, #68]	; 0x44
 800274c:	f442 2280 	orr.w	r2, r2, #262144	; 0x40000
 8002750:	645a      	str	r2, [r3, #68]	; 0x44
 8002752:	6c5b      	ldr	r3, [r3, #68]	; 0x44
 8002754:	f403 2380 	and.w	r3, r3, #262144	; 0x40000
    HAL_NVIC_SetPriority(TIM1_TRG_COM_TIM11_IRQn, 0, 0);
 8002758:	4622      	mov	r2, r4
    __HAL_RCC_TIM11_CLK_ENABLE();
 800275a:	9303      	str	r3, [sp, #12]
    HAL_NVIC_SetPriority(TIM1_TRG_COM_TIM11_IRQn, 0, 0);
 800275c:	4621      	mov	r1, r4
 800275e:	201a      	movs	r0, #26
    __HAL_RCC_TIM11_CLK_ENABLE();
 8002760:	9b03      	ldr	r3, [sp, #12]
    HAL_NVIC_SetPriority(TIM1_TRG_COM_TIM11_IRQn, 0, 0);
 8002762:	f000 fa03 	bl	8002b6c <HAL_NVIC_SetPriority>
    HAL_NVIC_EnableIRQ(TIM1_TRG_COM_TIM11_IRQn);
 8002766:	201a      	movs	r0, #26
 8002768:	f000 fa3e 	bl	8002be8 <HAL_NVIC_EnableIRQ>
}
 800276c:	b00a      	add	sp, #40	; 0x28
 800276e:	bd70      	pop	{r4, r5, r6, pc}
    __HAL_RCC_TIM2_CLK_ENABLE();
 8002770:	f503 330e 	add.w	r3, r3, #145408	; 0x23800
 8002774:	9400      	str	r4, [sp, #0]
 8002776:	6c1a      	ldr	r2, [r3, #64]	; 0x40
    hdma_tim2_ch1.Instance = DMA1_Stream5;
 8002778:	4e22      	ldr	r6, [pc, #136]	; (8002804 <HAL_TIM_Base_MspInit+0x100>)
    __HAL_RCC_TIM2_CLK_ENABLE();
 800277a:	f042 0201 	orr.w	r2, r2, #1
 800277e:	641a      	str	r2, [r3, #64]	; 0x40
 8002780:	6c1a      	ldr	r2, [r3, #64]	; 0x40
 8002782:	f002 0201 	and.w	r2, r2, #1
 8002786:	9200      	str	r2, [sp, #0]
 8002788:	9a00      	ldr	r2, [sp, #0]
    __HAL_RCC_GPIOA_CLK_ENABLE();
 800278a:	9401      	str	r4, [sp, #4]
 800278c:	6b1a      	ldr	r2, [r3, #48]	; 0x30
 800278e:	f042 0201 	orr.w	r2, r2, #1
 8002792:	631a      	str	r2, [r3, #48]	; 0x30
 8002794:	6b1b      	ldr	r3, [r3, #48]	; 0x30
 8002796:	f003 0301 	and.w	r3, r3, #1
 800279a:	9301      	str	r3, [sp, #4]
    GPIO_InitStruct.Pin = TIM2_CH1_VINCp_Pin;
 800279c:	f44f 4200 	mov.w	r2, #32768	; 0x8000
 80027a0:	2302      	movs	r3, #2
 80027a2:	e9cd 2304 	strd	r2, r3, [sp, #16]
 80027a6:	4605      	mov	r5, r0
    GPIO_InitStruct.Alternate = GPIO_AF1_TIM2;
 80027a8:	2301      	movs	r3, #1
    HAL_GPIO_Init(TIM2_CH1_VINCp_GPIO_Port, &GPIO_InitStruct);
 80027aa:	4817      	ldr	r0, [pc, #92]	; (8002808 <HAL_TIM_Base_MspInit+0x104>)
    GPIO_InitStruct.Alternate = GPIO_AF1_TIM2;
 80027ac:	9308      	str	r3, [sp, #32]
    HAL_GPIO_Init(TIM2_CH1_VINCp_GPIO_Port, &GPIO_InitStruct);
 80027ae:	a904      	add	r1, sp, #16
    __HAL_RCC_GPIOA_CLK_ENABLE();
 80027b0:	9b01      	ldr	r3, [sp, #4]
    HAL_GPIO_Init(TIM2_CH1_VINCp_GPIO_Port, &GPIO_InitStruct);
 80027b2:	f000 fc1f 	bl	8002ff4 <HAL_GPIO_Init>
    hdma_tim2_ch1.Init.Channel = DMA_CHANNEL_3;
 80027b6:	4a15      	ldr	r2, [pc, #84]	; (800280c <HAL_TIM_Base_MspInit+0x108>)
 80027b8:	f04f 63c0 	mov.w	r3, #100663296	; 0x6000000
 80027bc:	e9c6 2300 	strd	r2, r3, [r6]
    hdma_tim2_ch1.Init.MemInc = DMA_MINC_ENABLE;
 80027c0:	f44f 6280 	mov.w	r2, #1024	; 0x400
    hdma_tim2_ch1.Init.PeriphDataAlignment = DMA_PDATAALIGN_WORD;
 80027c4:	f44f 5380 	mov.w	r3, #4096	; 0x1000
 80027c8:	e9c6 2304 	strd	r2, r3, [r6, #16]
    if (HAL_DMA_Init(&hdma_tim2_ch1) != HAL_OK)
 80027cc:	4630      	mov	r0, r6
    hdma_tim2_ch1.Init.Mode = DMA_CIRCULAR;
 80027ce:	f44f 4280 	mov.w	r2, #16384	; 0x4000
 80027d2:	f44f 7380 	mov.w	r3, #256	; 0x100
    hdma_tim2_ch1.Init.PeriphInc = DMA_PINC_DISABLE;
 80027d6:	e9c6 4402 	strd	r4, r4, [r6, #8]
    hdma_tim2_ch1.Init.Mode = DMA_CIRCULAR;
 80027da:	e9c6 2306 	strd	r2, r3, [r6, #24]
    hdma_tim2_ch1.Init.FIFOMode = DMA_FIFOMODE_DISABLE;
 80027de:	e9c6 4408 	strd	r4, r4, [r6, #32]
    if (HAL_DMA_Init(&hdma_tim2_ch1) != HAL_OK)
 80027e2:	f000 fa29 	bl	8002c38 <HAL_DMA_Init>
 80027e6:	b918      	cbnz	r0, 80027f0 <HAL_TIM_Base_MspInit+0xec>
    __HAL_LINKDMA(htim_base,hdma[TIM_DMA_ID_CC1],hdma_tim2_ch1);
 80027e8:	626e      	str	r6, [r5, #36]	; 0x24
 80027ea:	63b5      	str	r5, [r6, #56]	; 0x38
}
 80027ec:	b00a      	add	sp, #40	; 0x28
 80027ee:	bd70      	pop	{r4, r5, r6, pc}
      Error_Handler();
 80027f0:	f7fe fdec 	bl	80013cc <Error_Handler>
 80027f4:	e7f8      	b.n	80027e8 <HAL_TIM_Base_MspInit+0xe4>
 80027f6:	bf00      	nop
 80027f8:	40000800 	.word	0x40000800
 80027fc:	40014800 	.word	0x40014800
 8002800:	40023800 	.word	0x40023800
 8002804:	20000354 	.word	0x20000354
 8002808:	40020000 	.word	0x40020000
 800280c:	40026088 	.word	0x40026088

08002810 <HAL_TIM_MspPostInit>:

void HAL_TIM_MspPostInit(TIM_HandleTypeDef* htim)
{
 8002810:	b500      	push	{lr}
  GPIO_InitTypeDef GPIO_InitStruct = {0};
  if(htim->Instance==TIM4)
 8002812:	4a15      	ldr	r2, [pc, #84]	; (8002868 <HAL_TIM_MspPostInit+0x58>)
 8002814:	6801      	ldr	r1, [r0, #0]
{
 8002816:	b089      	sub	sp, #36	; 0x24
  GPIO_InitTypeDef GPIO_InitStruct = {0};
 8002818:	2300      	movs	r3, #0
  if(htim->Instance==TIM4)
 800281a:	4291      	cmp	r1, r2
  GPIO_InitTypeDef GPIO_InitStruct = {0};
 800281c:	e9cd 3302 	strd	r3, r3, [sp, #8]
 8002820:	e9cd 3304 	strd	r3, r3, [sp, #16]
 8002824:	9306      	str	r3, [sp, #24]
  if(htim->Instance==TIM4)
 8002826:	d002      	beq.n	800282e <HAL_TIM_MspPostInit+0x1e>
  /* USER CODE BEGIN TIM4_MspPostInit 1 */

  /* USER CODE END TIM4_MspPostInit 1 */
  }

}
 8002828:	b009      	add	sp, #36	; 0x24
 800282a:	f85d fb04 	ldr.w	pc, [sp], #4
    __HAL_RCC_GPIOB_CLK_ENABLE();
 800282e:	f502 320c 	add.w	r2, r2, #143360	; 0x23000
 8002832:	9301      	str	r3, [sp, #4]
 8002834:	6b13      	ldr	r3, [r2, #48]	; 0x30
    HAL_GPIO_Init(TIM4_CH1_PWMMOT_GPIO_Port, &GPIO_InitStruct);
 8002836:	480d      	ldr	r0, [pc, #52]	; (800286c <HAL_TIM_MspPostInit+0x5c>)
    __HAL_RCC_GPIOB_CLK_ENABLE();
 8002838:	f043 0302 	orr.w	r3, r3, #2
 800283c:	6313      	str	r3, [r2, #48]	; 0x30
 800283e:	6b13      	ldr	r3, [r2, #48]	; 0x30
    GPIO_InitStruct.Pin = TIM4_CH1_PWMMOT_Pin;
 8002840:	ed9f 7b07 	vldr	d7, [pc, #28]	; 8002860 <HAL_TIM_MspPostInit+0x50>
    __HAL_RCC_GPIOB_CLK_ENABLE();
 8002844:	f003 0302 	and.w	r3, r3, #2
 8002848:	9301      	str	r3, [sp, #4]
    HAL_GPIO_Init(TIM4_CH1_PWMMOT_GPIO_Port, &GPIO_InitStruct);
 800284a:	a902      	add	r1, sp, #8
    GPIO_InitStruct.Alternate = GPIO_AF2_TIM4;
 800284c:	2302      	movs	r3, #2
    GPIO_InitStruct.Pin = TIM4_CH1_PWMMOT_Pin;
 800284e:	ed8d 7b02 	vstr	d7, [sp, #8]
    __HAL_RCC_GPIOB_CLK_ENABLE();
 8002852:	9a01      	ldr	r2, [sp, #4]
    GPIO_InitStruct.Alternate = GPIO_AF2_TIM4;
 8002854:	9306      	str	r3, [sp, #24]
    HAL_GPIO_Init(TIM4_CH1_PWMMOT_GPIO_Port, &GPIO_InitStruct);
 8002856:	f000 fbcd 	bl	8002ff4 <HAL_GPIO_Init>
}
 800285a:	b009      	add	sp, #36	; 0x24
 800285c:	f85d fb04 	ldr.w	pc, [sp], #4
 8002860:	00000040 	.word	0x00000040
 8002864:	00000002 	.word	0x00000002
 8002868:	40000800 	.word	0x40000800
 800286c:	40020400 	.word	0x40020400

08002870 <HAL_UART_MspInit>:
* This function configures the hardware resources used in this example
* @param huart: UART handle pointer
* @retval None
*/
void HAL_UART_MspInit(UART_HandleTypeDef* huart)
{
 8002870:	b510      	push	{r4, lr}
  GPIO_InitTypeDef GPIO_InitStruct = {0};
  if(huart->Instance==USART2)
 8002872:	4a1b      	ldr	r2, [pc, #108]	; (80028e0 <HAL_UART_MspInit+0x70>)
 8002874:	6801      	ldr	r1, [r0, #0]
{
 8002876:	b088      	sub	sp, #32
  GPIO_InitTypeDef GPIO_InitStruct = {0};
 8002878:	2300      	movs	r3, #0
  if(huart->Instance==USART2)
 800287a:	4291      	cmp	r1, r2
  GPIO_InitTypeDef GPIO_InitStruct = {0};
 800287c:	e9cd 3302 	strd	r3, r3, [sp, #8]
 8002880:	e9cd 3304 	strd	r3, r3, [sp, #16]
 8002884:	9306      	str	r3, [sp, #24]
  if(huart->Instance==USART2)
 8002886:	d001      	beq.n	800288c <HAL_UART_MspInit+0x1c>
  /* USER CODE BEGIN USART2_MspInit 1 */

  /* USER CODE END USART2_MspInit 1 */
  }

}
 8002888:	b008      	add	sp, #32
 800288a:	bd10      	pop	{r4, pc}
    __HAL_RCC_USART2_CLK_ENABLE();
 800288c:	f502 32fa 	add.w	r2, r2, #128000	; 0x1f400
 8002890:	9300      	str	r3, [sp, #0]
 8002892:	6c10      	ldr	r0, [r2, #64]	; 0x40
 8002894:	f440 3000 	orr.w	r0, r0, #131072	; 0x20000
 8002898:	6410      	str	r0, [r2, #64]	; 0x40
 800289a:	6c10      	ldr	r0, [r2, #64]	; 0x40
 800289c:	f400 3000 	and.w	r0, r0, #131072	; 0x20000
 80028a0:	9000      	str	r0, [sp, #0]
 80028a2:	9800      	ldr	r0, [sp, #0]
    __HAL_RCC_GPIOA_CLK_ENABLE();
 80028a4:	9301      	str	r3, [sp, #4]
 80028a6:	6b13      	ldr	r3, [r2, #48]	; 0x30
    HAL_GPIO_Init(GPIOA, &GPIO_InitStruct);
 80028a8:	480e      	ldr	r0, [pc, #56]	; (80028e4 <HAL_UART_MspInit+0x74>)
    __HAL_RCC_GPIOA_CLK_ENABLE();
 80028aa:	f043 0301 	orr.w	r3, r3, #1
 80028ae:	6313      	str	r3, [r2, #48]	; 0x30
 80028b0:	6b13      	ldr	r3, [r2, #48]	; 0x30
    GPIO_InitStruct.Pin = USART_TX_Pin|USART_RX_Pin;
 80028b2:	ed9f 7b09 	vldr	d7, [pc, #36]	; 80028d8 <HAL_UART_MspInit+0x68>
    __HAL_RCC_GPIOA_CLK_ENABLE();
 80028b6:	f003 0301 	and.w	r3, r3, #1
 80028ba:	9301      	str	r3, [sp, #4]
    GPIO_InitStruct.Speed = GPIO_SPEED_FREQ_VERY_HIGH;
 80028bc:	2203      	movs	r2, #3
    GPIO_InitStruct.Alternate = GPIO_AF7_USART2;
 80028be:	2307      	movs	r3, #7
    HAL_GPIO_Init(GPIOA, &GPIO_InitStruct);
 80028c0:	a902      	add	r1, sp, #8
    GPIO_InitStruct.Pin = USART_TX_Pin|USART_RX_Pin;
 80028c2:	ed8d 7b02 	vstr	d7, [sp, #8]
    GPIO_InitStruct.Alternate = GPIO_AF7_USART2;
 80028c6:	e9cd 2305 	strd	r2, r3, [sp, #20]
    __HAL_RCC_GPIOA_CLK_ENABLE();
 80028ca:	9c01      	ldr	r4, [sp, #4]
    HAL_GPIO_Init(GPIOA, &GPIO_InitStruct);
 80028cc:	f000 fb92 	bl	8002ff4 <HAL_GPIO_Init>
}
 80028d0:	b008      	add	sp, #32
 80028d2:	bd10      	pop	{r4, pc}
 80028d4:	f3af 8000 	nop.w
 80028d8:	0000000c 	.word	0x0000000c
 80028dc:	00000002 	.word	0x00000002
 80028e0:	40004400 	.word	0x40004400
 80028e4:	40020000 	.word	0x40020000

080028e8 <NMI_Handler>:
{
  /* USER CODE BEGIN NonMaskableInt_IRQn 0 */

  /* USER CODE END NonMaskableInt_IRQn 0 */
  /* USER CODE BEGIN NonMaskableInt_IRQn 1 */
  while (1)
 80028e8:	e7fe      	b.n	80028e8 <NMI_Handler>
 80028ea:	bf00      	nop

080028ec <HardFault_Handler>:
void HardFault_Handler(void)
{
  /* USER CODE BEGIN HardFault_IRQn 0 */

  /* USER CODE END HardFault_IRQn 0 */
  while (1)
 80028ec:	e7fe      	b.n	80028ec <HardFault_Handler>
 80028ee:	bf00      	nop

080028f0 <MemManage_Handler>:
void MemManage_Handler(void)
{
  /* USER CODE BEGIN MemoryManagement_IRQn 0 */

  /* USER CODE END MemoryManagement_IRQn 0 */
  while (1)
 80028f0:	e7fe      	b.n	80028f0 <MemManage_Handler>
 80028f2:	bf00      	nop

080028f4 <BusFault_Handler>:
void BusFault_Handler(void)
{
  /* USER CODE BEGIN BusFault_IRQn 0 */

  /* USER CODE END BusFault_IRQn 0 */
  while (1)
 80028f4:	e7fe      	b.n	80028f4 <BusFault_Handler>
 80028f6:	bf00      	nop

080028f8 <UsageFault_Handler>:
void UsageFault_Handler(void)
{
  /* USER CODE BEGIN UsageFault_IRQn 0 */

  /* USER CODE END UsageFault_IRQn 0 */
  while (1)
 80028f8:	e7fe      	b.n	80028f8 <UsageFault_Handler>
 80028fa:	bf00      	nop

080028fc <SVC_Handler>:

  /* USER CODE END SVCall_IRQn 0 */
  /* USER CODE BEGIN SVCall_IRQn 1 */

  /* USER CODE END SVCall_IRQn 1 */
}
 80028fc:	4770      	bx	lr
 80028fe:	bf00      	nop

08002900 <DebugMon_Handler>:
 8002900:	4770      	bx	lr
 8002902:	bf00      	nop

08002904 <PendSV_Handler>:
 8002904:	4770      	bx	lr
 8002906:	bf00      	nop

08002908 <SysTick_Handler>:
void SysTick_Handler(void)
{
  /* USER CODE BEGIN SysTick_IRQn 0 */

  /* USER CODE END SysTick_IRQn 0 */
  HAL_IncTick();
 8002908:	f000 b8fa 	b.w	8002b00 <HAL_IncTick>

0800290c <EXTI2_IRQHandler>:
void EXTI2_IRQHandler(void)
{
  /* USER CODE BEGIN EXTI2_IRQn 0 */

  /* USER CODE END EXTI2_IRQn 0 */
  HAL_GPIO_EXTI_IRQHandler(EXTI2_SetZero_Pin);
 800290c:	2004      	movs	r0, #4
 800290e:	f000 bc77 	b.w	8003200 <HAL_GPIO_EXTI_IRQHandler>
 8002912:	bf00      	nop

08002914 <DMA1_Stream5_IRQHandler>:
void DMA1_Stream5_IRQHandler(void)
{
  /* USER CODE BEGIN DMA1_Stream5_IRQn 0 */

  /* USER CODE END DMA1_Stream5_IRQn 0 */
  HAL_DMA_IRQHandler(&hdma_tim2_ch1);
 8002914:	4801      	ldr	r0, [pc, #4]	; (800291c <DMA1_Stream5_IRQHandler+0x8>)
 8002916:	f000 ba79 	b.w	8002e0c <HAL_DMA_IRQHandler>
 800291a:	bf00      	nop
 800291c:	20000354 	.word	0x20000354

08002920 <TIM1_TRG_COM_TIM11_IRQHandler>:
void TIM1_TRG_COM_TIM11_IRQHandler(void)
{
  /* USER CODE BEGIN TIM1_TRG_COM_TIM11_IRQn 0 */

  /* USER CODE END TIM1_TRG_COM_TIM11_IRQn 0 */
  HAL_TIM_IRQHandler(&htim11);
 8002920:	4801      	ldr	r0, [pc, #4]	; (8002928 <TIM1_TRG_COM_TIM11_IRQHandler+0x8>)
 8002922:	f003 ba6f 	b.w	8005e04 <HAL_TIM_IRQHandler>
 8002926:	bf00      	nop
 8002928:	20000408 	.word	0x20000408

0800292c <I2C1_EV_IRQHandler>:
void I2C1_EV_IRQHandler(void)
{
  /* USER CODE BEGIN I2C1_EV_IRQn 0 */

  /* USER CODE END I2C1_EV_IRQn 0 */
  HAL_I2C_EV_IRQHandler(&hi2c1);
 800292c:	4801      	ldr	r0, [pc, #4]	; (8002934 <I2C1_EV_IRQHandler+0x8>)
 800292e:	f001 bbc9 	b.w	80040c4 <HAL_I2C_EV_IRQHandler>
 8002932:	bf00      	nop
 8002934:	200003b4 	.word	0x200003b4

08002938 <I2C1_ER_IRQHandler>:
void I2C1_ER_IRQHandler(void)
{
  /* USER CODE BEGIN I2C1_ER_IRQn 0 */

  /* USER CODE END I2C1_ER_IRQn 0 */
  HAL_I2C_ER_IRQHandler(&hi2c1);
 8002938:	4801      	ldr	r0, [pc, #4]	; (8002940 <I2C1_ER_IRQHandler+0x8>)
 800293a:	f002 b879 	b.w	8004a30 <HAL_I2C_ER_IRQHandler>
 800293e:	bf00      	nop
 8002940:	200003b4 	.word	0x200003b4

08002944 <EXTI15_10_IRQHandler>:

/**
  * @brief This function handles EXTI line[15:10] interrupts.
  */
void EXTI15_10_IRQHandler(void)
{
 8002944:	b508      	push	{r3, lr}
  /* USER CODE BEGIN EXTI15_10_IRQn 0 */

  /* USER CODE END EXTI15_10_IRQn 0 */
  HAL_GPIO_EXTI_IRQHandler(EXTI10_Emer_Pin);
 8002946:	f44f 6080 	mov.w	r0, #1024	; 0x400
 800294a:	f000 fc59 	bl	8003200 <HAL_GPIO_EXTI_IRQHandler>
  HAL_GPIO_EXTI_IRQHandler(EXTI11_Stop_Pin);
 800294e:	f44f 6000 	mov.w	r0, #2048	; 0x800
 8002952:	f000 fc55 	bl	8003200 <HAL_GPIO_EXTI_IRQHandler>
  HAL_GPIO_EXTI_IRQHandler(B1_Pin);
  /* USER CODE BEGIN EXTI15_10_IRQn 1 */

  /* USER CODE END EXTI15_10_IRQn 1 */
}
 8002956:	e8bd 4008 	ldmia.w	sp!, {r3, lr}
  HAL_GPIO_EXTI_IRQHandler(B1_Pin);
 800295a:	f44f 5000 	mov.w	r0, #8192	; 0x2000
 800295e:	f000 bc4f 	b.w	8003200 <HAL_GPIO_EXTI_IRQHandler>
 8002962:	bf00      	nop

08002964 <_getpid>:
}

int _getpid(void)
{
	return 1;
}
 8002964:	2001      	movs	r0, #1
 8002966:	4770      	bx	lr

08002968 <_kill>:

int _kill(int pid, int sig)
{
 8002968:	b508      	push	{r3, lr}
	errno = EINVAL;
 800296a:	f003 fc2d 	bl	80061c8 <__errno>
 800296e:	2316      	movs	r3, #22
 8002970:	6003      	str	r3, [r0, #0]
	return -1;
}
 8002972:	f04f 30ff 	mov.w	r0, #4294967295
 8002976:	bd08      	pop	{r3, pc}

08002978 <_exit>:

void _exit (int status)
{
 8002978:	b508      	push	{r3, lr}
	errno = EINVAL;
 800297a:	f003 fc25 	bl	80061c8 <__errno>
 800297e:	2316      	movs	r3, #22
 8002980:	6003      	str	r3, [r0, #0]
	_kill(status, -1);
	while (1) {}		/* Make sure we hang here */
 8002982:	e7fe      	b.n	8002982 <_exit+0xa>

08002984 <_read>:
}

__attribute__((weak)) int _read(int file, char *ptr, int len)
{
 8002984:	b570      	push	{r4, r5, r6, lr}
	int DataIdx;

	for (DataIdx = 0; DataIdx < len; DataIdx++)
 8002986:	1e16      	subs	r6, r2, #0
 8002988:	dd07      	ble.n	800299a <_read+0x16>
 800298a:	460c      	mov	r4, r1
 800298c:	198d      	adds	r5, r1, r6
	{
		*ptr++ = __io_getchar();
 800298e:	f3af 8000 	nop.w
 8002992:	f804 0b01 	strb.w	r0, [r4], #1
	for (DataIdx = 0; DataIdx < len; DataIdx++)
 8002996:	42a5      	cmp	r5, r4
 8002998:	d1f9      	bne.n	800298e <_read+0xa>
	}

return len;
}
 800299a:	4630      	mov	r0, r6
 800299c:	bd70      	pop	{r4, r5, r6, pc}
 800299e:	bf00      	nop

080029a0 <_write>:

__attribute__((weak)) int _write(int file, char *ptr, int len)
{
 80029a0:	b570      	push	{r4, r5, r6, lr}
	int DataIdx;

	for (DataIdx = 0; DataIdx < len; DataIdx++)
 80029a2:	1e16      	subs	r6, r2, #0
 80029a4:	dd07      	ble.n	80029b6 <_write+0x16>
 80029a6:	460c      	mov	r4, r1
 80029a8:	198d      	adds	r5, r1, r6
	{
		__io_putchar(*ptr++);
 80029aa:	f814 0b01 	ldrb.w	r0, [r4], #1
 80029ae:	f3af 8000 	nop.w
	for (DataIdx = 0; DataIdx < len; DataIdx++)
 80029b2:	42ac      	cmp	r4, r5
 80029b4:	d1f9      	bne.n	80029aa <_write+0xa>
	}
	return len;
}
 80029b6:	4630      	mov	r0, r6
 80029b8:	bd70      	pop	{r4, r5, r6, pc}
 80029ba:	bf00      	nop

080029bc <_close>:

int _close(int file)
{
	return -1;
}
 80029bc:	f04f 30ff 	mov.w	r0, #4294967295
 80029c0:	4770      	bx	lr
 80029c2:	bf00      	nop

080029c4 <_fstat>:


int _fstat(int file, struct stat *st)
{
	st->st_mode = S_IFCHR;
 80029c4:	f44f 5300 	mov.w	r3, #8192	; 0x2000
 80029c8:	604b      	str	r3, [r1, #4]
	return 0;
}
 80029ca:	2000      	movs	r0, #0
 80029cc:	4770      	bx	lr
 80029ce:	bf00      	nop

080029d0 <_isatty>:

int _isatty(int file)
{
	return 1;
}
 80029d0:	2001      	movs	r0, #1
 80029d2:	4770      	bx	lr

080029d4 <_lseek>:

int _lseek(int file, int ptr, int dir)
{
	return 0;
}
 80029d4:	2000      	movs	r0, #0
 80029d6:	4770      	bx	lr

080029d8 <_sbrk>:
 *
 * @param incr Memory size
 * @return Pointer to allocated memory
 */
void *_sbrk(ptrdiff_t incr)
{
 80029d8:	b510      	push	{r4, lr}
  const uint32_t stack_limit = (uint32_t)&_estack - (uint32_t)&_Min_Stack_Size;
  const uint8_t *max_heap = (uint8_t *)stack_limit;
  uint8_t *prev_heap_end;

  /* Initialize heap end at first call */
  if (NULL == __sbrk_heap_end)
 80029da:	4c0c      	ldr	r4, [pc, #48]	; (8002a0c <_sbrk+0x34>)
  const uint32_t stack_limit = (uint32_t)&_estack - (uint32_t)&_Min_Stack_Size;
 80029dc:	4b0c      	ldr	r3, [pc, #48]	; (8002a10 <_sbrk+0x38>)
 80029de:	490d      	ldr	r1, [pc, #52]	; (8002a14 <_sbrk+0x3c>)
  if (NULL == __sbrk_heap_end)
 80029e0:	6822      	ldr	r2, [r4, #0]
  const uint32_t stack_limit = (uint32_t)&_estack - (uint32_t)&_Min_Stack_Size;
 80029e2:	1a59      	subs	r1, r3, r1
  if (NULL == __sbrk_heap_end)
 80029e4:	b12a      	cbz	r2, 80029f2 <_sbrk+0x1a>
  {
    __sbrk_heap_end = &_end;
  }

  /* Protect heap from growing into the reserved MSP stack */
  if (__sbrk_heap_end + incr > max_heap)
 80029e6:	4410      	add	r0, r2
 80029e8:	4288      	cmp	r0, r1
 80029ea:	d807      	bhi.n	80029fc <_sbrk+0x24>
    errno = ENOMEM;
    return (void *)-1;
  }

  prev_heap_end = __sbrk_heap_end;
  __sbrk_heap_end += incr;
 80029ec:	6020      	str	r0, [r4, #0]

  return (void *)prev_heap_end;
}
 80029ee:	4610      	mov	r0, r2
 80029f0:	bd10      	pop	{r4, pc}
    __sbrk_heap_end = &_end;
 80029f2:	4a09      	ldr	r2, [pc, #36]	; (8002a18 <_sbrk+0x40>)
 80029f4:	6022      	str	r2, [r4, #0]
  if (__sbrk_heap_end + incr > max_heap)
 80029f6:	4410      	add	r0, r2
 80029f8:	4288      	cmp	r0, r1
 80029fa:	d9f7      	bls.n	80029ec <_sbrk+0x14>
    errno = ENOMEM;
 80029fc:	f003 fbe4 	bl	80061c8 <__errno>
 8002a00:	230c      	movs	r3, #12
    return (void *)-1;
 8002a02:	f04f 32ff 	mov.w	r2, #4294967295
    errno = ENOMEM;
 8002a06:	6003      	str	r3, [r0, #0]
}
 8002a08:	4610      	mov	r0, r2
 8002a0a:	bd10      	pop	{r4, pc}
 8002a0c:	200005a0 	.word	0x200005a0
 8002a10:	20020000 	.word	0x20020000
 8002a14:	00000400 	.word	0x00000400
 8002a18:	200005b8 	.word	0x200005b8

08002a1c <SystemInit>:
  */
void SystemInit(void)
{
  /* FPU settings ------------------------------------------------------------*/
  #if (__FPU_PRESENT == 1) && (__FPU_USED == 1)
    SCB->CPACR |= ((3UL << 10*2)|(3UL << 11*2));  /* set CP10 and CP11 Full Access */
 8002a1c:	4a03      	ldr	r2, [pc, #12]	; (8002a2c <SystemInit+0x10>)
 8002a1e:	f8d2 3088 	ldr.w	r3, [r2, #136]	; 0x88
 8002a22:	f443 0370 	orr.w	r3, r3, #15728640	; 0xf00000
 8002a26:	f8c2 3088 	str.w	r3, [r2, #136]	; 0x88

  /* Configure the Vector Table location -------------------------------------*/
#if defined(USER_VECT_TAB_ADDRESS)
  SCB->VTOR = VECT_TAB_BASE_ADDRESS | VECT_TAB_OFFSET; /* Vector Table Relocation in Internal SRAM */
#endif /* USER_VECT_TAB_ADDRESS */
}
 8002a2a:	4770      	bx	lr
 8002a2c:	e000ed00 	.word	0xe000ed00

08002a30 <Reset_Handler>:

    .section  .text.Reset_Handler
  .weak  Reset_Handler
  .type  Reset_Handler, %function
Reset_Handler:  
  ldr   sp, =_estack    		 /* set stack pointer */
 8002a30:	f8df d034 	ldr.w	sp, [pc, #52]	; 8002a68 <LoopFillZerobss+0x12>

/* Copy the data segment initializers from flash to SRAM */  
  ldr r0, =_sdata
 8002a34:	480d      	ldr	r0, [pc, #52]	; (8002a6c <LoopFillZerobss+0x16>)
  ldr r1, =_edata
 8002a36:	490e      	ldr	r1, [pc, #56]	; (8002a70 <LoopFillZerobss+0x1a>)
  ldr r2, =_sidata
 8002a38:	4a0e      	ldr	r2, [pc, #56]	; (8002a74 <LoopFillZerobss+0x1e>)
  movs r3, #0
 8002a3a:	2300      	movs	r3, #0
  b LoopCopyDataInit
 8002a3c:	e002      	b.n	8002a44 <LoopCopyDataInit>

08002a3e <CopyDataInit>:

CopyDataInit:
  ldr r4, [r2, r3]
 8002a3e:	58d4      	ldr	r4, [r2, r3]
  str r4, [r0, r3]
 8002a40:	50c4      	str	r4, [r0, r3]
  adds r3, r3, #4
 8002a42:	3304      	adds	r3, #4

08002a44 <LoopCopyDataInit>:

LoopCopyDataInit:
  adds r4, r0, r3
 8002a44:	18c4      	adds	r4, r0, r3
  cmp r4, r1
 8002a46:	428c      	cmp	r4, r1
  bcc CopyDataInit
 8002a48:	d3f9      	bcc.n	8002a3e <CopyDataInit>
  
/* Zero fill the bss segment. */
  ldr r2, =_sbss
 8002a4a:	4a0b      	ldr	r2, [pc, #44]	; (8002a78 <LoopFillZerobss+0x22>)
  ldr r4, =_ebss
 8002a4c:	4c0b      	ldr	r4, [pc, #44]	; (8002a7c <LoopFillZerobss+0x26>)
  movs r3, #0
 8002a4e:	2300      	movs	r3, #0
  b LoopFillZerobss
 8002a50:	e001      	b.n	8002a56 <LoopFillZerobss>

08002a52 <FillZerobss>:

FillZerobss:
  str  r3, [r2]
 8002a52:	6013      	str	r3, [r2, #0]
  adds r2, r2, #4
 8002a54:	3204      	adds	r2, #4

08002a56 <LoopFillZerobss>:

LoopFillZerobss:
  cmp r2, r4
 8002a56:	42a2      	cmp	r2, r4
  bcc FillZerobss
 8002a58:	d3fb      	bcc.n	8002a52 <FillZerobss>

/* Call the clock system intitialization function.*/
  bl  SystemInit   
 8002a5a:	f7ff ffdf 	bl	8002a1c <SystemInit>
/* Call static constructors */
    bl __libc_init_array
 8002a5e:	f003 fbcb 	bl	80061f8 <__libc_init_array>
/* Call the application's entry point.*/
  bl  main
 8002a62:	f7ff f91f 	bl	8001ca4 <main>
  bx  lr    
 8002a66:	4770      	bx	lr
  ldr   sp, =_estack    		 /* set stack pointer */
 8002a68:	20020000 	.word	0x20020000
  ldr r0, =_sdata
 8002a6c:	20000000 	.word	0x20000000
  ldr r1, =_edata
 8002a70:	200000b0 	.word	0x200000b0
  ldr r2, =_sidata
 8002a74:	08007850 	.word	0x08007850
  ldr r2, =_sbss
 8002a78:	200000b0 	.word	0x200000b0
  ldr r4, =_ebss
 8002a7c:	200005b8 	.word	0x200005b8

08002a80 <ADC_IRQHandler>:
 * @retval None       
*/
    .section  .text.Default_Handler,"ax",%progbits
Default_Handler:
Infinite_Loop:
  b  Infinite_Loop
 8002a80:	e7fe      	b.n	8002a80 <ADC_IRQHandler>
	...

08002a84 <HAL_InitTick>:
  *       implementation  in user file.
  * @param TickPriority Tick interrupt priority.
  * @retval HAL status
  */
__weak HAL_StatusTypeDef HAL_InitTick(uint32_t TickPriority)
{
 8002a84:	b538      	push	{r3, r4, r5, lr}
  /* Configure the SysTick to have interrupt in 1ms time basis*/
  if (HAL_SYSTICK_Config(SystemCoreClock / (1000U / uwTickFreq)) > 0U)
 8002a86:	4a0e      	ldr	r2, [pc, #56]	; (8002ac0 <HAL_InitTick+0x3c>)
 8002a88:	4b0e      	ldr	r3, [pc, #56]	; (8002ac4 <HAL_InitTick+0x40>)
 8002a8a:	7812      	ldrb	r2, [r2, #0]
 8002a8c:	681b      	ldr	r3, [r3, #0]
{
 8002a8e:	4605      	mov	r5, r0
  if (HAL_SYSTICK_Config(SystemCoreClock / (1000U / uwTickFreq)) > 0U)
 8002a90:	f44f 707a 	mov.w	r0, #1000	; 0x3e8
 8002a94:	fbb0 f0f2 	udiv	r0, r0, r2
 8002a98:	fbb3 f0f0 	udiv	r0, r3, r0
 8002a9c:	f000 f8b2 	bl	8002c04 <HAL_SYSTICK_Config>
 8002aa0:	b908      	cbnz	r0, 8002aa6 <HAL_InitTick+0x22>
  {
    return HAL_ERROR;
  }

  /* Configure the SysTick IRQ priority */
  if (TickPriority < (1UL << __NVIC_PRIO_BITS))
 8002aa2:	2d0f      	cmp	r5, #15
 8002aa4:	d901      	bls.n	8002aaa <HAL_InitTick+0x26>
    return HAL_ERROR;
 8002aa6:	2001      	movs	r0, #1
    return HAL_ERROR;
  }

  /* Return function status */
  return HAL_OK;
}
 8002aa8:	bd38      	pop	{r3, r4, r5, pc}
 8002aaa:	4604      	mov	r4, r0
    HAL_NVIC_SetPriority(SysTick_IRQn, TickPriority, 0U);
 8002aac:	4602      	mov	r2, r0
 8002aae:	4629      	mov	r1, r5
 8002ab0:	f04f 30ff 	mov.w	r0, #4294967295
 8002ab4:	f000 f85a 	bl	8002b6c <HAL_NVIC_SetPriority>
    uwTickPrio = TickPriority;
 8002ab8:	4b03      	ldr	r3, [pc, #12]	; (8002ac8 <HAL_InitTick+0x44>)
 8002aba:	4620      	mov	r0, r4
 8002abc:	601d      	str	r5, [r3, #0]
}
 8002abe:	bd38      	pop	{r3, r4, r5, pc}
 8002ac0:	20000044 	.word	0x20000044
 8002ac4:	20000040 	.word	0x20000040
 8002ac8:	20000048 	.word	0x20000048

08002acc <HAL_Init>:
{
 8002acc:	b508      	push	{r3, lr}
  __HAL_FLASH_INSTRUCTION_CACHE_ENABLE();
 8002ace:	4b0b      	ldr	r3, [pc, #44]	; (8002afc <HAL_Init+0x30>)
 8002ad0:	681a      	ldr	r2, [r3, #0]
 8002ad2:	f442 7200 	orr.w	r2, r2, #512	; 0x200
 8002ad6:	601a      	str	r2, [r3, #0]
  __HAL_FLASH_DATA_CACHE_ENABLE();
 8002ad8:	681a      	ldr	r2, [r3, #0]
 8002ada:	f442 6280 	orr.w	r2, r2, #1024	; 0x400
 8002ade:	601a      	str	r2, [r3, #0]
  __HAL_FLASH_PREFETCH_BUFFER_ENABLE();
 8002ae0:	681a      	ldr	r2, [r3, #0]
 8002ae2:	f442 7280 	orr.w	r2, r2, #256	; 0x100
 8002ae6:	601a      	str	r2, [r3, #0]
  HAL_NVIC_SetPriorityGrouping(NVIC_PRIORITYGROUP_4);
 8002ae8:	2003      	movs	r0, #3
 8002aea:	f000 f82d 	bl	8002b48 <HAL_NVIC_SetPriorityGrouping>
  HAL_InitTick(TICK_INT_PRIORITY);
 8002aee:	2000      	movs	r0, #0
 8002af0:	f7ff ffc8 	bl	8002a84 <HAL_InitTick>
  HAL_MspInit();
 8002af4:	f7ff fda0 	bl	8002638 <HAL_MspInit>
}
 8002af8:	2000      	movs	r0, #0
 8002afa:	bd08      	pop	{r3, pc}
 8002afc:	40023c00 	.word	0x40023c00

08002b00 <HAL_IncTick>:
  *      implementations in user file.
  * @retval None
  */
__weak void HAL_IncTick(void)
{
  uwTick += uwTickFreq;
 8002b00:	4a03      	ldr	r2, [pc, #12]	; (8002b10 <HAL_IncTick+0x10>)
 8002b02:	4b04      	ldr	r3, [pc, #16]	; (8002b14 <HAL_IncTick+0x14>)
 8002b04:	6811      	ldr	r1, [r2, #0]
 8002b06:	781b      	ldrb	r3, [r3, #0]
 8002b08:	440b      	add	r3, r1
 8002b0a:	6013      	str	r3, [r2, #0]
}
 8002b0c:	4770      	bx	lr
 8002b0e:	bf00      	nop
 8002b10:	200005a4 	.word	0x200005a4
 8002b14:	20000044 	.word	0x20000044

08002b18 <HAL_GetTick>:
  *       implementations in user file.
  * @retval tick value
  */
__weak uint32_t HAL_GetTick(void)
{
  return uwTick;
 8002b18:	4b01      	ldr	r3, [pc, #4]	; (8002b20 <HAL_GetTick+0x8>)
 8002b1a:	6818      	ldr	r0, [r3, #0]
}
 8002b1c:	4770      	bx	lr
 8002b1e:	bf00      	nop
 8002b20:	200005a4 	.word	0x200005a4

08002b24 <HAL_Delay>:
  *       implementations in user file.
  * @param Delay specifies the delay time length, in milliseconds.
  * @retval None
  */
__weak void HAL_Delay(uint32_t Delay)
{
 8002b24:	b538      	push	{r3, r4, r5, lr}
 8002b26:	4604      	mov	r4, r0
  uint32_t tickstart = HAL_GetTick();
 8002b28:	f7ff fff6 	bl	8002b18 <HAL_GetTick>
  uint32_t wait = Delay;

  /* Add a freq to guarantee minimum wait */
  if (wait < HAL_MAX_DELAY)
 8002b2c:	1c63      	adds	r3, r4, #1
  uint32_t tickstart = HAL_GetTick();
 8002b2e:	4605      	mov	r5, r0
  if (wait < HAL_MAX_DELAY)
 8002b30:	d002      	beq.n	8002b38 <HAL_Delay+0x14>
  {
    wait += (uint32_t)(uwTickFreq);
 8002b32:	4b04      	ldr	r3, [pc, #16]	; (8002b44 <HAL_Delay+0x20>)
 8002b34:	781b      	ldrb	r3, [r3, #0]
 8002b36:	441c      	add	r4, r3
  }

  while((HAL_GetTick() - tickstart) < wait)
 8002b38:	f7ff ffee 	bl	8002b18 <HAL_GetTick>
 8002b3c:	1b43      	subs	r3, r0, r5
 8002b3e:	42a3      	cmp	r3, r4
 8002b40:	d3fa      	bcc.n	8002b38 <HAL_Delay+0x14>
  {
  }
}
 8002b42:	bd38      	pop	{r3, r4, r5, pc}
 8002b44:	20000044 	.word	0x20000044

08002b48 <HAL_NVIC_SetPriorityGrouping>:
__STATIC_INLINE void __NVIC_SetPriorityGrouping(uint32_t PriorityGroup)
{
  uint32_t reg_value;
  uint32_t PriorityGroupTmp = (PriorityGroup & (uint32_t)0x07UL);             /* only values 0..7 are used          */

  reg_value  =  SCB->AIRCR;                                                   /* read old register configuration    */
 8002b48:	4907      	ldr	r1, [pc, #28]	; (8002b68 <HAL_NVIC_SetPriorityGrouping+0x20>)
 8002b4a:	68ca      	ldr	r2, [r1, #12]
  reg_value &= ~((uint32_t)(SCB_AIRCR_VECTKEY_Msk | SCB_AIRCR_PRIGROUP_Msk)); /* clear bits to change               */
  reg_value  =  (reg_value                                   |
                ((uint32_t)0x5FAUL << SCB_AIRCR_VECTKEY_Pos) |
                (PriorityGroupTmp << SCB_AIRCR_PRIGROUP_Pos)  );              /* Insert write key and priority group */
 8002b4c:	0203      	lsls	r3, r0, #8
  reg_value &= ~((uint32_t)(SCB_AIRCR_VECTKEY_Msk | SCB_AIRCR_PRIGROUP_Msk)); /* clear bits to change               */
 8002b4e:	f64f 00ff 	movw	r0, #63743	; 0xf8ff
                (PriorityGroupTmp << SCB_AIRCR_PRIGROUP_Pos)  );              /* Insert write key and priority group */
 8002b52:	f403 63e0 	and.w	r3, r3, #1792	; 0x700
  reg_value &= ~((uint32_t)(SCB_AIRCR_VECTKEY_Msk | SCB_AIRCR_PRIGROUP_Msk)); /* clear bits to change               */
 8002b56:	4002      	ands	r2, r0
                ((uint32_t)0x5FAUL << SCB_AIRCR_VECTKEY_Pos) |
 8002b58:	4313      	orrs	r3, r2
  reg_value  =  (reg_value                                   |
 8002b5a:	f043 63bf 	orr.w	r3, r3, #100139008	; 0x5f80000
 8002b5e:	f443 3300 	orr.w	r3, r3, #131072	; 0x20000
  SCB->AIRCR =  reg_value;
 8002b62:	60cb      	str	r3, [r1, #12]
  /* Check the parameters */
  assert_param(IS_NVIC_PRIORITY_GROUP(PriorityGroup));
  
  /* Set the PRIGROUP[10:8] bits according to the PriorityGroup parameter value */
  NVIC_SetPriorityGrouping(PriorityGroup);
}
 8002b64:	4770      	bx	lr
 8002b66:	bf00      	nop
 8002b68:	e000ed00 	.word	0xe000ed00

08002b6c <HAL_NVIC_SetPriority>:
  \details Reads the priority grouping field from the NVIC Interrupt Controller.
  \return                Priority grouping field (SCB->AIRCR [10:8] PRIGROUP field).
 */
__STATIC_INLINE uint32_t __NVIC_GetPriorityGrouping(void)
{
  return ((uint32_t)((SCB->AIRCR & SCB_AIRCR_PRIGROUP_Msk) >> SCB_AIRCR_PRIGROUP_Pos));
 8002b6c:	4b1c      	ldr	r3, [pc, #112]	; (8002be0 <HAL_NVIC_SetPriority+0x74>)
 8002b6e:	68db      	ldr	r3, [r3, #12]
 8002b70:	f3c3 2302 	ubfx	r3, r3, #8, #3
  *         This parameter can be a value between 0 and 15
  *         A lower priority value indicates a higher priority.          
  * @retval None
  */
void HAL_NVIC_SetPriority(IRQn_Type IRQn, uint32_t PreemptPriority, uint32_t SubPriority)
{ 
 8002b74:	b500      	push	{lr}
{
  uint32_t PriorityGroupTmp = (PriorityGroup & (uint32_t)0x07UL);   /* only values 0..7 are used          */
  uint32_t PreemptPriorityBits;
  uint32_t SubPriorityBits;

  PreemptPriorityBits = ((7UL - PriorityGroupTmp) > (uint32_t)(__NVIC_PRIO_BITS)) ? (uint32_t)(__NVIC_PRIO_BITS) : (uint32_t)(7UL - PriorityGroupTmp);
 8002b76:	f1c3 0e07 	rsb	lr, r3, #7
 8002b7a:	f1be 0f04 	cmp.w	lr, #4
  SubPriorityBits     = ((PriorityGroupTmp + (uint32_t)(__NVIC_PRIO_BITS)) < (uint32_t)7UL) ? (uint32_t)0UL : (uint32_t)((PriorityGroupTmp - 7UL) + (uint32_t)(__NVIC_PRIO_BITS));
 8002b7e:	f103 0c04 	add.w	ip, r3, #4
  PreemptPriorityBits = ((7UL - PriorityGroupTmp) > (uint32_t)(__NVIC_PRIO_BITS)) ? (uint32_t)(__NVIC_PRIO_BITS) : (uint32_t)(7UL - PriorityGroupTmp);
 8002b82:	bf28      	it	cs
 8002b84:	f04f 0e04 	movcs.w	lr, #4
  SubPriorityBits     = ((PriorityGroupTmp + (uint32_t)(__NVIC_PRIO_BITS)) < (uint32_t)7UL) ? (uint32_t)0UL : (uint32_t)((PriorityGroupTmp - 7UL) + (uint32_t)(__NVIC_PRIO_BITS));
 8002b88:	f1bc 0f06 	cmp.w	ip, #6
 8002b8c:	d91b      	bls.n	8002bc6 <HAL_NVIC_SetPriority+0x5a>
 8002b8e:	3b03      	subs	r3, #3

  return (
           ((PreemptPriority & (uint32_t)((1UL << (PreemptPriorityBits)) - 1UL)) << SubPriorityBits) |
           ((SubPriority     & (uint32_t)((1UL << (SubPriorityBits    )) - 1UL)))
 8002b90:	f04f 3cff 	mov.w	ip, #4294967295
 8002b94:	fa0c fc03 	lsl.w	ip, ip, r3
 8002b98:	ea22 020c 	bic.w	r2, r2, ip
           ((PreemptPriority & (uint32_t)((1UL << (PreemptPriorityBits)) - 1UL)) << SubPriorityBits) |
 8002b9c:	f04f 3cff 	mov.w	ip, #4294967295
 8002ba0:	fa0c fc0e 	lsl.w	ip, ip, lr
 8002ba4:	ea21 010c 	bic.w	r1, r1, ip
 8002ba8:	4099      	lsls	r1, r3
  if ((int32_t)(IRQn) >= 0)
 8002baa:	2800      	cmp	r0, #0
           ((PreemptPriority & (uint32_t)((1UL << (PreemptPriorityBits)) - 1UL)) << SubPriorityBits) |
 8002bac:	ea41 0102 	orr.w	r1, r1, r2
  if ((int32_t)(IRQn) >= 0)
 8002bb0:	db0c      	blt.n	8002bcc <HAL_NVIC_SetPriority+0x60>
    NVIC->IP[((uint32_t)IRQn)]               = (uint8_t)((priority << (8U - __NVIC_PRIO_BITS)) & (uint32_t)0xFFUL);
 8002bb2:	f100 4060 	add.w	r0, r0, #3758096384	; 0xe0000000
 8002bb6:	0109      	lsls	r1, r1, #4
 8002bb8:	f500 4061 	add.w	r0, r0, #57600	; 0xe100
 8002bbc:	b2c9      	uxtb	r1, r1
 8002bbe:	f880 1300 	strb.w	r1, [r0, #768]	; 0x300
  assert_param(IS_NVIC_PREEMPTION_PRIORITY(PreemptPriority));
  
  prioritygroup = NVIC_GetPriorityGrouping();
  
  NVIC_SetPriority(IRQn, NVIC_EncodePriority(prioritygroup, PreemptPriority, SubPriority));
}
 8002bc2:	f85d fb04 	ldr.w	pc, [sp], #4
 8002bc6:	2200      	movs	r2, #0
  SubPriorityBits     = ((PriorityGroupTmp + (uint32_t)(__NVIC_PRIO_BITS)) < (uint32_t)7UL) ? (uint32_t)0UL : (uint32_t)((PriorityGroupTmp - 7UL) + (uint32_t)(__NVIC_PRIO_BITS));
 8002bc8:	4613      	mov	r3, r2
 8002bca:	e7e7      	b.n	8002b9c <HAL_NVIC_SetPriority+0x30>
    SCB->SHP[(((uint32_t)IRQn) & 0xFUL)-4UL] = (uint8_t)((priority << (8U - __NVIC_PRIO_BITS)) & (uint32_t)0xFFUL);
 8002bcc:	4b05      	ldr	r3, [pc, #20]	; (8002be4 <HAL_NVIC_SetPriority+0x78>)
 8002bce:	f000 000f 	and.w	r0, r0, #15
 8002bd2:	0109      	lsls	r1, r1, #4
 8002bd4:	4403      	add	r3, r0
 8002bd6:	b2c9      	uxtb	r1, r1
 8002bd8:	7619      	strb	r1, [r3, #24]
 8002bda:	f85d fb04 	ldr.w	pc, [sp], #4
 8002bde:	bf00      	nop
 8002be0:	e000ed00 	.word	0xe000ed00
 8002be4:	e000ecfc 	.word	0xe000ecfc

08002be8 <HAL_NVIC_EnableIRQ>:
  if ((int32_t)(IRQn) >= 0)
 8002be8:	2800      	cmp	r0, #0
 8002bea:	db08      	blt.n	8002bfe <HAL_NVIC_EnableIRQ+0x16>
    NVIC->ISER[(((uint32_t)IRQn) >> 5UL)] = (uint32_t)(1UL << (((uint32_t)IRQn) & 0x1FUL));
 8002bec:	0941      	lsrs	r1, r0, #5
 8002bee:	4a04      	ldr	r2, [pc, #16]	; (8002c00 <HAL_NVIC_EnableIRQ+0x18>)
 8002bf0:	f000 001f 	and.w	r0, r0, #31
 8002bf4:	2301      	movs	r3, #1
 8002bf6:	fa03 f000 	lsl.w	r0, r3, r0
 8002bfa:	f842 0021 	str.w	r0, [r2, r1, lsl #2]
  /* Check the parameters */
  assert_param(IS_NVIC_DEVICE_IRQ(IRQn));
  
  /* Enable interrupt */
  NVIC_EnableIRQ(IRQn);
}
 8002bfe:	4770      	bx	lr
 8002c00:	e000e100 	.word	0xe000e100

08002c04 <HAL_SYSTICK_Config>:
           function <b>SysTick_Config</b> is not included. In this case, the file <b><i>device</i>.h</b>
           must contain a vendor-specific implementation of this function.
 */
__STATIC_INLINE uint32_t SysTick_Config(uint32_t ticks)
{
  if ((ticks - 1UL) > SysTick_LOAD_RELOAD_Msk)
 8002c04:	3801      	subs	r0, #1
 8002c06:	f1b0 7f80 	cmp.w	r0, #16777216	; 0x1000000
 8002c0a:	d210      	bcs.n	8002c2e <HAL_SYSTICK_Config+0x2a>
  * @param  TicksNumb Specifies the ticks Number of ticks between two interrupts.
  * @retval status:  - 0  Function succeeded.
  *                  - 1  Function failed.
  */
uint32_t HAL_SYSTICK_Config(uint32_t TicksNumb)
{
 8002c0c:	b410      	push	{r4}
  {
    return (1UL);                                                   /* Reload value impossible */
  }

  SysTick->LOAD  = (uint32_t)(ticks - 1UL);                         /* set reload register */
 8002c0e:	f04f 23e0 	mov.w	r3, #3758153728	; 0xe000e000
    SCB->SHP[(((uint32_t)IRQn) & 0xFUL)-4UL] = (uint8_t)((priority << (8U - __NVIC_PRIO_BITS)) & (uint32_t)0xFFUL);
 8002c12:	4c08      	ldr	r4, [pc, #32]	; (8002c34 <HAL_SYSTICK_Config+0x30>)
  SysTick->LOAD  = (uint32_t)(ticks - 1UL);                         /* set reload register */
 8002c14:	6158      	str	r0, [r3, #20]
    SCB->SHP[(((uint32_t)IRQn) & 0xFUL)-4UL] = (uint8_t)((priority << (8U - __NVIC_PRIO_BITS)) & (uint32_t)0xFFUL);
 8002c16:	f04f 0cf0 	mov.w	ip, #240	; 0xf0
 8002c1a:	f884 c023 	strb.w	ip, [r4, #35]	; 0x23
  NVIC_SetPriority (SysTick_IRQn, (1UL << __NVIC_PRIO_BITS) - 1UL); /* set Priority for Systick Interrupt */
  SysTick->VAL   = 0UL;                                             /* Load the SysTick Counter Value */
 8002c1e:	2200      	movs	r2, #0
  SysTick->CTRL  = SysTick_CTRL_CLKSOURCE_Msk |
 8002c20:	2107      	movs	r1, #7
                   SysTick_CTRL_TICKINT_Msk   |
                   SysTick_CTRL_ENABLE_Msk;                         /* Enable SysTick IRQ and SysTick Timer */
  return (0UL);                                                     /* Function successful */
 8002c22:	4610      	mov	r0, r2
  SysTick->VAL   = 0UL;                                             /* Load the SysTick Counter Value */
 8002c24:	619a      	str	r2, [r3, #24]
   return SysTick_Config(TicksNumb);
}
 8002c26:	f85d 4b04 	ldr.w	r4, [sp], #4
  SysTick->CTRL  = SysTick_CTRL_CLKSOURCE_Msk |
 8002c2a:	6119      	str	r1, [r3, #16]
 8002c2c:	4770      	bx	lr
    return (1UL);                                                   /* Reload value impossible */
 8002c2e:	2001      	movs	r0, #1
 8002c30:	4770      	bx	lr
 8002c32:	bf00      	nop
 8002c34:	e000ed00 	.word	0xe000ed00

08002c38 <HAL_DMA_Init>:
  * @param  hdma Pointer to a DMA_HandleTypeDef structure that contains
  *               the configuration information for the specified DMA Stream.  
  * @retval HAL status
  */
HAL_StatusTypeDef HAL_DMA_Init(DMA_HandleTypeDef *hdma)
{
 8002c38:	b538      	push	{r3, r4, r5, lr}
 8002c3a:	4604      	mov	r4, r0
  uint32_t tmp = 0U;
  uint32_t tickstart = HAL_GetTick();
 8002c3c:	f7ff ff6c 	bl	8002b18 <HAL_GetTick>
  DMA_Base_Registers *regs;

  /* Check the DMA peripheral state */
  if(hdma == NULL)
 8002c40:	2c00      	cmp	r4, #0
 8002c42:	d052      	beq.n	8002cea <HAL_DMA_Init+0xb2>

  /* Allocate lock resource */
  __HAL_UNLOCK(hdma);
  
  /* Disable the peripheral */
  __HAL_DMA_DISABLE(hdma);
 8002c44:	6823      	ldr	r3, [r4, #0]
  __HAL_UNLOCK(hdma);
 8002c46:	2200      	movs	r2, #0
  hdma->State = HAL_DMA_STATE_BUSY;
 8002c48:	2102      	movs	r1, #2
 8002c4a:	f884 1035 	strb.w	r1, [r4, #53]	; 0x35
  __HAL_UNLOCK(hdma);
 8002c4e:	f884 2034 	strb.w	r2, [r4, #52]	; 0x34
  __HAL_DMA_DISABLE(hdma);
 8002c52:	681a      	ldr	r2, [r3, #0]
 8002c54:	f022 0201 	bic.w	r2, r2, #1
 8002c58:	4605      	mov	r5, r0
 8002c5a:	601a      	str	r2, [r3, #0]
  
  /* Check if the DMA Stream is effectively disabled */
  while((hdma->Instance->CR & DMA_SxCR_EN) != RESET)
 8002c5c:	e005      	b.n	8002c6a <HAL_DMA_Init+0x32>
  {
    /* Check for the Timeout */
    if((HAL_GetTick() - tickstart ) > HAL_TIMEOUT_DMA_ABORT)
 8002c5e:	f7ff ff5b 	bl	8002b18 <HAL_GetTick>
 8002c62:	1b43      	subs	r3, r0, r5
 8002c64:	2b05      	cmp	r3, #5
 8002c66:	d839      	bhi.n	8002cdc <HAL_DMA_Init+0xa4>
  while((hdma->Instance->CR & DMA_SxCR_EN) != RESET)
 8002c68:	6823      	ldr	r3, [r4, #0]
 8002c6a:	681a      	ldr	r2, [r3, #0]
 8002c6c:	07d1      	lsls	r1, r2, #31
 8002c6e:	d4f6      	bmi.n	8002c5e <HAL_DMA_Init+0x26>
                      DMA_SxCR_PL    | DMA_SxCR_MSIZE  | DMA_SxCR_PSIZE  | \
                      DMA_SxCR_MINC  | DMA_SxCR_PINC   | DMA_SxCR_CIRC   | \
                      DMA_SxCR_DIR   | DMA_SxCR_CT     | DMA_SxCR_DBM));

  /* Prepare the DMA Stream configuration */
  tmp |=  hdma->Init.Channel             | hdma->Init.Direction        |
 8002c70:	e9d4 2001 	ldrd	r2, r0, [r4, #4]
 8002c74:	68e1      	ldr	r1, [r4, #12]
 8002c76:	4302      	orrs	r2, r0
 8002c78:	430a      	orrs	r2, r1
          hdma->Init.PeriphInc           | hdma->Init.MemInc           |
 8002c7a:	e9d4 5104 	ldrd	r5, r1, [r4, #16]
          hdma->Init.PeriphDataAlignment | hdma->Init.MemDataAlignment |
 8002c7e:	69a0      	ldr	r0, [r4, #24]
          hdma->Init.PeriphInc           | hdma->Init.MemInc           |
 8002c80:	432a      	orrs	r2, r5
 8002c82:	430a      	orrs	r2, r1
          hdma->Init.PeriphDataAlignment | hdma->Init.MemDataAlignment |
 8002c84:	69e1      	ldr	r1, [r4, #28]
  tmp = hdma->Instance->CR;
 8002c86:	681d      	ldr	r5, [r3, #0]
          hdma->Init.PeriphDataAlignment | hdma->Init.MemDataAlignment |
 8002c88:	4302      	orrs	r2, r0
 8002c8a:	430a      	orrs	r2, r1
  tmp &= ((uint32_t)~(DMA_SxCR_CHSEL | DMA_SxCR_MBURST | DMA_SxCR_PBURST | \
 8002c8c:	4933      	ldr	r1, [pc, #204]	; (8002d5c <HAL_DMA_Init+0x124>)
 8002c8e:	4029      	ands	r1, r5
          hdma->Init.Mode                | hdma->Init.Priority;
 8002c90:	6a25      	ldr	r5, [r4, #32]
 8002c92:	432a      	orrs	r2, r5
  tmp |=  hdma->Init.Channel             | hdma->Init.Direction        |
 8002c94:	430a      	orrs	r2, r1

  /* the Memory burst and peripheral burst are not used when the FIFO is disabled */
  if(hdma->Init.FIFOMode == DMA_FIFOMODE_ENABLE)
 8002c96:	6a61      	ldr	r1, [r4, #36]	; 0x24
 8002c98:	2904      	cmp	r1, #4
 8002c9a:	d028      	beq.n	8002cee <HAL_DMA_Init+0xb6>
    /* Get memory burst and peripheral burst */
    tmp |=  hdma->Init.MemBurst | hdma->Init.PeriphBurst;
  }
  
  /* Write to DMA Stream CR register */
  hdma->Instance->CR = tmp;  
 8002c9c:	601a      	str	r2, [r3, #0]

  /* Get the FCR register value */
  tmp = hdma->Instance->FCR;
 8002c9e:	695a      	ldr	r2, [r3, #20]

  /* Clear Direct mode and FIFO threshold bits */
  tmp &= (uint32_t)~(DMA_SxFCR_DMDIS | DMA_SxFCR_FTH);
 8002ca0:	f022 0207 	bic.w	r2, r2, #7

  /* Prepare the DMA Stream FIFO configuration */
  tmp |= hdma->Init.FIFOMode;
 8002ca4:	4311      	orrs	r1, r2
  *                     the configuration information for the specified DMA Stream. 
  * @retval Stream base address
  */
static uint32_t DMA_CalcBaseAndBitshift(DMA_HandleTypeDef *hdma)
{
  uint32_t stream_number = (((uint32_t)hdma->Instance & 0xFFU) - 16U) / 24U;
 8002ca6:	b2d8      	uxtb	r0, r3
 8002ca8:	4a2d      	ldr	r2, [pc, #180]	; (8002d60 <HAL_DMA_Init+0x128>)
  hdma->Instance->FCR = tmp;
 8002caa:	6159      	str	r1, [r3, #20]
  uint32_t stream_number = (((uint32_t)hdma->Instance & 0xFFU) - 16U) / 24U;
 8002cac:	3810      	subs	r0, #16
 8002cae:	fba2 5200 	umull	r5, r2, r2, r0
 8002cb2:	0912      	lsrs	r2, r2, #4
  
  /* lookup table for necessary bitshift of flags within status registers */
  static const uint8_t flagBitshiftOffset[8U] = {0U, 6U, 16U, 22U, 0U, 6U, 16U, 22U};
  hdma->StreamIndex = flagBitshiftOffset[stream_number];
 8002cb4:	492b      	ldr	r1, [pc, #172]	; (8002d64 <HAL_DMA_Init+0x12c>)
  
  if (stream_number > 3U)
  {
    /* return pointer to HISR and HIFCR */
    hdma->StreamBaseAddress = (((uint32_t)hdma->Instance & (uint32_t)(~0x3FFU)) + 4U);
 8002cb6:	f423 737f 	bic.w	r3, r3, #1020	; 0x3fc
  hdma->StreamIndex = flagBitshiftOffset[stream_number];
 8002cba:	5c89      	ldrb	r1, [r1, r2]
 8002cbc:	65e1      	str	r1, [r4, #92]	; 0x5c
    hdma->StreamBaseAddress = (((uint32_t)hdma->Instance & (uint32_t)(~0x3FFU)) + 4U);
 8002cbe:	f023 0303 	bic.w	r3, r3, #3
  if (stream_number > 3U)
 8002cc2:	285f      	cmp	r0, #95	; 0x5f
    hdma->StreamBaseAddress = (((uint32_t)hdma->Instance & (uint32_t)(~0x3FFU)) + 4U);
 8002cc4:	bf88      	it	hi
 8002cc6:	3304      	addhi	r3, #4
  regs->IFCR = 0x3FU << hdma->StreamIndex;
 8002cc8:	223f      	movs	r2, #63	; 0x3f
 8002cca:	408a      	lsls	r2, r1
 8002ccc:	65a3      	str	r3, [r4, #88]	; 0x58
  hdma->ErrorCode = HAL_DMA_ERROR_NONE;
 8002cce:	2000      	movs	r0, #0
  regs->IFCR = 0x3FU << hdma->StreamIndex;
 8002cd0:	609a      	str	r2, [r3, #8]
  hdma->State = HAL_DMA_STATE_READY;
 8002cd2:	2301      	movs	r3, #1
  hdma->ErrorCode = HAL_DMA_ERROR_NONE;
 8002cd4:	6560      	str	r0, [r4, #84]	; 0x54
  hdma->State = HAL_DMA_STATE_READY;
 8002cd6:	f884 3035 	strb.w	r3, [r4, #53]	; 0x35
}
 8002cda:	bd38      	pop	{r3, r4, r5, pc}
      hdma->State = HAL_DMA_STATE_TIMEOUT;
 8002cdc:	2303      	movs	r3, #3
      hdma->ErrorCode = HAL_DMA_ERROR_TIMEOUT;
 8002cde:	2220      	movs	r2, #32
 8002ce0:	6562      	str	r2, [r4, #84]	; 0x54
      hdma->State = HAL_DMA_STATE_TIMEOUT;
 8002ce2:	f884 3035 	strb.w	r3, [r4, #53]	; 0x35
      return HAL_TIMEOUT;
 8002ce6:	4618      	mov	r0, r3
}
 8002ce8:	bd38      	pop	{r3, r4, r5, pc}
    return HAL_ERROR;
 8002cea:	2001      	movs	r0, #1
}
 8002cec:	bd38      	pop	{r3, r4, r5, pc}
    tmp |=  hdma->Init.MemBurst | hdma->Init.PeriphBurst;
 8002cee:	e9d4 510b 	ldrd	r5, r1, [r4, #44]	; 0x2c
 8002cf2:	4329      	orrs	r1, r5
 8002cf4:	430a      	orrs	r2, r1
  hdma->Instance->CR = tmp;  
 8002cf6:	601a      	str	r2, [r3, #0]
  tmp = hdma->Instance->FCR;
 8002cf8:	6959      	ldr	r1, [r3, #20]
    tmp |= hdma->Init.FIFOThreshold;
 8002cfa:	6aa2      	ldr	r2, [r4, #40]	; 0x28
  tmp &= (uint32_t)~(DMA_SxFCR_DMDIS | DMA_SxFCR_FTH);
 8002cfc:	f021 0107 	bic.w	r1, r1, #7
 8002d00:	4311      	orrs	r1, r2
    tmp |= hdma->Init.FIFOThreshold;
 8002d02:	f041 0104 	orr.w	r1, r1, #4
    if (hdma->Init.MemBurst != DMA_MBURST_SINGLE)
 8002d06:	2d00      	cmp	r5, #0
 8002d08:	d0cd      	beq.n	8002ca6 <HAL_DMA_Init+0x6e>
{
  HAL_StatusTypeDef status = HAL_OK;
  uint32_t tmp = hdma->Init.FIFOThreshold;
  
  /* Memory Data size equal to Byte */
  if(hdma->Init.MemDataAlignment == DMA_MDATAALIGN_BYTE)
 8002d0a:	b178      	cbz	r0, 8002d2c <HAL_DMA_Init+0xf4>
      break;
    }
  }
  
  /* Memory Data size equal to Half-Word */
  else if (hdma->Init.MemDataAlignment == DMA_MDATAALIGN_HALFWORD)
 8002d0c:	f5b0 5f00 	cmp.w	r0, #8192	; 0x2000
 8002d10:	d016      	beq.n	8002d40 <HAL_DMA_Init+0x108>
  }
  
  /* Memory Data size equal to Word */
  else
  {
    switch (tmp)
 8002d12:	2a02      	cmp	r2, #2
 8002d14:	d903      	bls.n	8002d1e <HAL_DMA_Init+0xe6>
 8002d16:	2a03      	cmp	r2, #3
 8002d18:	d1c5      	bne.n	8002ca6 <HAL_DMA_Init+0x6e>
    case DMA_FIFO_THRESHOLD_HALFFULL:
    case DMA_FIFO_THRESHOLD_3QUARTERSFULL:
      status = HAL_ERROR;
      break;
    case DMA_FIFO_THRESHOLD_FULL:
      if ((hdma->Init.MemBurst & DMA_SxCR_MBURST_1) == DMA_SxCR_MBURST_1)
 8002d1a:	01ea      	lsls	r2, r5, #7
 8002d1c:	d5c3      	bpl.n	8002ca6 <HAL_DMA_Init+0x6e>
        hdma->State = HAL_DMA_STATE_READY;
 8002d1e:	2301      	movs	r3, #1
        hdma->ErrorCode = HAL_DMA_ERROR_PARAM;
 8002d20:	2240      	movs	r2, #64	; 0x40
 8002d22:	6562      	str	r2, [r4, #84]	; 0x54
        hdma->State = HAL_DMA_STATE_READY;
 8002d24:	f884 3035 	strb.w	r3, [r4, #53]	; 0x35
        return HAL_ERROR; 
 8002d28:	4618      	mov	r0, r3
}
 8002d2a:	bd38      	pop	{r3, r4, r5, pc}
    switch (tmp)
 8002d2c:	2a01      	cmp	r2, #1
 8002d2e:	d003      	beq.n	8002d38 <HAL_DMA_Init+0x100>
 8002d30:	f032 0202 	bics.w	r2, r2, #2
 8002d34:	d1b7      	bne.n	8002ca6 <HAL_DMA_Init+0x6e>
 8002d36:	e7f0      	b.n	8002d1a <HAL_DMA_Init+0xe2>
      if (hdma->Init.MemBurst == DMA_MBURST_INC16)
 8002d38:	f1b5 7fc0 	cmp.w	r5, #25165824	; 0x1800000
 8002d3c:	d1b3      	bne.n	8002ca6 <HAL_DMA_Init+0x6e>
 8002d3e:	e7ee      	b.n	8002d1e <HAL_DMA_Init+0xe6>
    switch (tmp)
 8002d40:	2a03      	cmp	r2, #3
 8002d42:	d8b0      	bhi.n	8002ca6 <HAL_DMA_Init+0x6e>
 8002d44:	a001      	add	r0, pc, #4	; (adr r0, 8002d4c <HAL_DMA_Init+0x114>)
 8002d46:	f850 f022 	ldr.w	pc, [r0, r2, lsl #2]
 8002d4a:	bf00      	nop
 8002d4c:	08002d1f 	.word	0x08002d1f
 8002d50:	08002d1b 	.word	0x08002d1b
 8002d54:	08002d1f 	.word	0x08002d1f
 8002d58:	08002d39 	.word	0x08002d39
 8002d5c:	f010803f 	.word	0xf010803f
 8002d60:	aaaaaaab 	.word	0xaaaaaaab
 8002d64:	08007764 	.word	0x08007764

08002d68 <HAL_DMA_Start_IT>:
{
 8002d68:	b470      	push	{r4, r5, r6}
  __HAL_LOCK(hdma);
 8002d6a:	f890 4034 	ldrb.w	r4, [r0, #52]	; 0x34
  DMA_Base_Registers *regs = (DMA_Base_Registers *)hdma->StreamBaseAddress;
 8002d6e:	6d85      	ldr	r5, [r0, #88]	; 0x58
  __HAL_LOCK(hdma);
 8002d70:	2c01      	cmp	r4, #1
 8002d72:	d035      	beq.n	8002de0 <HAL_DMA_Start_IT+0x78>
  if(HAL_DMA_STATE_READY == hdma->State)
 8002d74:	f890 4035 	ldrb.w	r4, [r0, #53]	; 0x35
  __HAL_LOCK(hdma);
 8002d78:	f04f 0c01 	mov.w	ip, #1
  if(HAL_DMA_STATE_READY == hdma->State)
 8002d7c:	4564      	cmp	r4, ip
  __HAL_LOCK(hdma);
 8002d7e:	f880 c034 	strb.w	ip, [r0, #52]	; 0x34
  if(HAL_DMA_STATE_READY == hdma->State)
 8002d82:	d005      	beq.n	8002d90 <HAL_DMA_Start_IT+0x28>
    __HAL_UNLOCK(hdma);	  
 8002d84:	2300      	movs	r3, #0
 8002d86:	f880 3034 	strb.w	r3, [r0, #52]	; 0x34
}
 8002d8a:	bc70      	pop	{r4, r5, r6}
    status = HAL_BUSY;
 8002d8c:	2002      	movs	r0, #2
}
 8002d8e:	4770      	bx	lr
    hdma->State = HAL_DMA_STATE_BUSY;
 8002d90:	2602      	movs	r6, #2
 8002d92:	f880 6035 	strb.w	r6, [r0, #53]	; 0x35
  hdma->Instance->CR &= (uint32_t)(~DMA_SxCR_DBM);
 8002d96:	6804      	ldr	r4, [r0, #0]
    hdma->ErrorCode = HAL_DMA_ERROR_NONE;
 8002d98:	2600      	movs	r6, #0
 8002d9a:	6546      	str	r6, [r0, #84]	; 0x54
  hdma->Instance->CR &= (uint32_t)(~DMA_SxCR_DBM);
 8002d9c:	6826      	ldr	r6, [r4, #0]
 8002d9e:	f426 2680 	bic.w	r6, r6, #262144	; 0x40000
 8002da2:	6026      	str	r6, [r4, #0]
  hdma->Instance->NDTR = DataLength;
 8002da4:	6063      	str	r3, [r4, #4]
  if((hdma->Init.Direction) == DMA_MEMORY_TO_PERIPH)
 8002da6:	6883      	ldr	r3, [r0, #8]
 8002da8:	2b40      	cmp	r3, #64	; 0x40
    hdma->Instance->PAR = DstAddress;
 8002daa:	bf0e      	itee	eq
 8002dac:	60a2      	streq	r2, [r4, #8]
    hdma->Instance->PAR = SrcAddress;
 8002dae:	60a1      	strne	r1, [r4, #8]
    hdma->Instance->M0AR = DstAddress;
 8002db0:	60e2      	strne	r2, [r4, #12]
    regs->IFCR = 0x3FU << hdma->StreamIndex;
 8002db2:	6dc2      	ldr	r2, [r0, #92]	; 0x5c
    hdma->Instance->M0AR = SrcAddress;
 8002db4:	bf08      	it	eq
 8002db6:	60e1      	streq	r1, [r4, #12]
    regs->IFCR = 0x3FU << hdma->StreamIndex;
 8002db8:	233f      	movs	r3, #63	; 0x3f
 8002dba:	4093      	lsls	r3, r2
 8002dbc:	60ab      	str	r3, [r5, #8]
    hdma->Instance->CR  |= DMA_IT_TC | DMA_IT_TE | DMA_IT_DME;
 8002dbe:	6823      	ldr	r3, [r4, #0]
    if(hdma->XferHalfCpltCallback != NULL)
 8002dc0:	6c02      	ldr	r2, [r0, #64]	; 0x40
    hdma->Instance->CR  |= DMA_IT_TC | DMA_IT_TE | DMA_IT_DME;
 8002dc2:	f043 0316 	orr.w	r3, r3, #22
 8002dc6:	6023      	str	r3, [r4, #0]
    if(hdma->XferHalfCpltCallback != NULL)
 8002dc8:	b11a      	cbz	r2, 8002dd2 <HAL_DMA_Start_IT+0x6a>
      hdma->Instance->CR  |= DMA_IT_HT;
 8002dca:	6823      	ldr	r3, [r4, #0]
 8002dcc:	f043 0308 	orr.w	r3, r3, #8
 8002dd0:	6023      	str	r3, [r4, #0]
    __HAL_DMA_ENABLE(hdma);
 8002dd2:	6823      	ldr	r3, [r4, #0]
 8002dd4:	f043 0301 	orr.w	r3, r3, #1
  HAL_StatusTypeDef status = HAL_OK;
 8002dd8:	2000      	movs	r0, #0
    __HAL_DMA_ENABLE(hdma);
 8002dda:	6023      	str	r3, [r4, #0]
}
 8002ddc:	bc70      	pop	{r4, r5, r6}
 8002dde:	4770      	bx	lr
  __HAL_LOCK(hdma);
 8002de0:	2002      	movs	r0, #2
}
 8002de2:	bc70      	pop	{r4, r5, r6}
 8002de4:	4770      	bx	lr
 8002de6:	bf00      	nop

08002de8 <HAL_DMA_Abort_IT>:
  if(hdma->State != HAL_DMA_STATE_BUSY)
 8002de8:	f890 3035 	ldrb.w	r3, [r0, #53]	; 0x35
 8002dec:	2b02      	cmp	r3, #2
 8002dee:	d003      	beq.n	8002df8 <HAL_DMA_Abort_IT+0x10>
    hdma->ErrorCode = HAL_DMA_ERROR_NO_XFER;
 8002df0:	2380      	movs	r3, #128	; 0x80
 8002df2:	6543      	str	r3, [r0, #84]	; 0x54
    return HAL_ERROR;
 8002df4:	2001      	movs	r0, #1
 8002df6:	4770      	bx	lr
    __HAL_DMA_DISABLE(hdma);
 8002df8:	6802      	ldr	r2, [r0, #0]
    hdma->State = HAL_DMA_STATE_ABORT;
 8002dfa:	2305      	movs	r3, #5
 8002dfc:	f880 3035 	strb.w	r3, [r0, #53]	; 0x35
    __HAL_DMA_DISABLE(hdma);
 8002e00:	6813      	ldr	r3, [r2, #0]
 8002e02:	f023 0301 	bic.w	r3, r3, #1
  return HAL_OK;
 8002e06:	2000      	movs	r0, #0
    __HAL_DMA_DISABLE(hdma);
 8002e08:	6013      	str	r3, [r2, #0]
}
 8002e0a:	4770      	bx	lr

08002e0c <HAL_DMA_IRQHandler>:
{
 8002e0c:	e92d 41f0 	stmdb	sp!, {r4, r5, r6, r7, r8, lr}
 8002e10:	b082      	sub	sp, #8
  uint32_t timeout = SystemCoreClock / 9600U;
 8002e12:	4a74      	ldr	r2, [pc, #464]	; (8002fe4 <HAL_DMA_IRQHandler+0x1d8>)
  DMA_Base_Registers *regs = (DMA_Base_Registers *)hdma->StreamBaseAddress;
 8002e14:	6d86      	ldr	r6, [r0, #88]	; 0x58
  uint32_t timeout = SystemCoreClock / 9600U;
 8002e16:	6815      	ldr	r5, [r2, #0]
  __IO uint32_t count = 0U;
 8002e18:	2300      	movs	r3, #0
 8002e1a:	9301      	str	r3, [sp, #4]
  if ((tmpisr & (DMA_FLAG_TEIF0_4 << hdma->StreamIndex)) != RESET)
 8002e1c:	6dc3      	ldr	r3, [r0, #92]	; 0x5c
  tmpisr = regs->ISR;
 8002e1e:	6834      	ldr	r4, [r6, #0]
  if ((tmpisr & (DMA_FLAG_TEIF0_4 << hdma->StreamIndex)) != RESET)
 8002e20:	2208      	movs	r2, #8
 8002e22:	409a      	lsls	r2, r3
 8002e24:	4222      	tst	r2, r4
{
 8002e26:	4680      	mov	r8, r0
  if ((tmpisr & (DMA_FLAG_TEIF0_4 << hdma->StreamIndex)) != RESET)
 8002e28:	d004      	beq.n	8002e34 <HAL_DMA_IRQHandler+0x28>
    if(__HAL_DMA_GET_IT_SOURCE(hdma, DMA_IT_TE) != RESET)
 8002e2a:	6801      	ldr	r1, [r0, #0]
 8002e2c:	680f      	ldr	r7, [r1, #0]
 8002e2e:	0778      	lsls	r0, r7, #29
 8002e30:	f100 808a 	bmi.w	8002f48 <HAL_DMA_IRQHandler+0x13c>
  if ((tmpisr & (DMA_FLAG_FEIF0_4 << hdma->StreamIndex)) != RESET)
 8002e34:	2201      	movs	r2, #1
 8002e36:	409a      	lsls	r2, r3
 8002e38:	4222      	tst	r2, r4
 8002e3a:	d004      	beq.n	8002e46 <HAL_DMA_IRQHandler+0x3a>
    if(__HAL_DMA_GET_IT_SOURCE(hdma, DMA_IT_FE) != RESET)
 8002e3c:	f8d8 1000 	ldr.w	r1, [r8]
 8002e40:	6949      	ldr	r1, [r1, #20]
 8002e42:	0609      	lsls	r1, r1, #24
 8002e44:	d478      	bmi.n	8002f38 <HAL_DMA_IRQHandler+0x12c>
  if ((tmpisr & (DMA_FLAG_DMEIF0_4 << hdma->StreamIndex)) != RESET)
 8002e46:	2204      	movs	r2, #4
 8002e48:	409a      	lsls	r2, r3
 8002e4a:	4222      	tst	r2, r4
 8002e4c:	d004      	beq.n	8002e58 <HAL_DMA_IRQHandler+0x4c>
    if(__HAL_DMA_GET_IT_SOURCE(hdma, DMA_IT_DME) != RESET)
 8002e4e:	f8d8 1000 	ldr.w	r1, [r8]
 8002e52:	6809      	ldr	r1, [r1, #0]
 8002e54:	078f      	lsls	r7, r1, #30
 8002e56:	d467      	bmi.n	8002f28 <HAL_DMA_IRQHandler+0x11c>
  if ((tmpisr & (DMA_FLAG_HTIF0_4 << hdma->StreamIndex)) != RESET)
 8002e58:	2210      	movs	r2, #16
 8002e5a:	409a      	lsls	r2, r3
 8002e5c:	4222      	tst	r2, r4
 8002e5e:	d004      	beq.n	8002e6a <HAL_DMA_IRQHandler+0x5e>
    if(__HAL_DMA_GET_IT_SOURCE(hdma, DMA_IT_HT) != RESET)
 8002e60:	f8d8 1000 	ldr.w	r1, [r8]
 8002e64:	680f      	ldr	r7, [r1, #0]
 8002e66:	0738      	lsls	r0, r7, #28
 8002e68:	d449      	bmi.n	8002efe <HAL_DMA_IRQHandler+0xf2>
  if ((tmpisr & (DMA_FLAG_TCIF0_4 << hdma->StreamIndex)) != RESET)
 8002e6a:	2220      	movs	r2, #32
 8002e6c:	409a      	lsls	r2, r3
 8002e6e:	4222      	tst	r2, r4
 8002e70:	d017      	beq.n	8002ea2 <HAL_DMA_IRQHandler+0x96>
    if(__HAL_DMA_GET_IT_SOURCE(hdma, DMA_IT_TC) != RESET)
 8002e72:	f8d8 1000 	ldr.w	r1, [r8]
 8002e76:	680c      	ldr	r4, [r1, #0]
 8002e78:	06e0      	lsls	r0, r4, #27
 8002e7a:	d512      	bpl.n	8002ea2 <HAL_DMA_IRQHandler+0x96>
      regs->IFCR = DMA_FLAG_TCIF0_4 << hdma->StreamIndex;
 8002e7c:	60b2      	str	r2, [r6, #8]
      if(HAL_DMA_STATE_ABORT == hdma->State)
 8002e7e:	f898 2035 	ldrb.w	r2, [r8, #53]	; 0x35
 8002e82:	2a05      	cmp	r2, #5
 8002e84:	d073      	beq.n	8002f6e <HAL_DMA_IRQHandler+0x162>
      if(((hdma->Instance->CR) & (uint32_t)(DMA_SxCR_DBM)) != RESET)
 8002e86:	680b      	ldr	r3, [r1, #0]
 8002e88:	f413 2f80 	tst.w	r3, #262144	; 0x40000
        if((hdma->Instance->CR & DMA_SxCR_CT) == RESET)
 8002e8c:	680b      	ldr	r3, [r1, #0]
      if(((hdma->Instance->CR) & (uint32_t)(DMA_SxCR_DBM)) != RESET)
 8002e8e:	f000 8090 	beq.w	8002fb2 <HAL_DMA_IRQHandler+0x1a6>
        if((hdma->Instance->CR & DMA_SxCR_CT) == RESET)
 8002e92:	0319      	lsls	r1, r3, #12
 8002e94:	f140 809b 	bpl.w	8002fce <HAL_DMA_IRQHandler+0x1c2>
        if(hdma->XferCpltCallback != NULL)
 8002e98:	f8d8 303c 	ldr.w	r3, [r8, #60]	; 0x3c
 8002e9c:	b10b      	cbz	r3, 8002ea2 <HAL_DMA_IRQHandler+0x96>
          hdma->XferCpltCallback(hdma);
 8002e9e:	4640      	mov	r0, r8
 8002ea0:	4798      	blx	r3
  if(hdma->ErrorCode != HAL_DMA_ERROR_NONE)
 8002ea2:	f8d8 3054 	ldr.w	r3, [r8, #84]	; 0x54
 8002ea6:	b33b      	cbz	r3, 8002ef8 <HAL_DMA_IRQHandler+0xec>
    if((hdma->ErrorCode & HAL_DMA_ERROR_TE) != RESET)
 8002ea8:	f8d8 3054 	ldr.w	r3, [r8, #84]	; 0x54
 8002eac:	07da      	lsls	r2, r3, #31
 8002eae:	d51b      	bpl.n	8002ee8 <HAL_DMA_IRQHandler+0xdc>
      __HAL_DMA_DISABLE(hdma);
 8002eb0:	f8d8 2000 	ldr.w	r2, [r8]
  uint32_t timeout = SystemCoreClock / 9600U;
 8002eb4:	494c      	ldr	r1, [pc, #304]	; (8002fe8 <HAL_DMA_IRQHandler+0x1dc>)
      hdma->State = HAL_DMA_STATE_ABORT;
 8002eb6:	2305      	movs	r3, #5
 8002eb8:	f888 3035 	strb.w	r3, [r8, #53]	; 0x35
      __HAL_DMA_DISABLE(hdma);
 8002ebc:	6813      	ldr	r3, [r2, #0]
  uint32_t timeout = SystemCoreClock / 9600U;
 8002ebe:	fba1 1505 	umull	r1, r5, r1, r5
      __HAL_DMA_DISABLE(hdma);
 8002ec2:	f023 0301 	bic.w	r3, r3, #1
  uint32_t timeout = SystemCoreClock / 9600U;
 8002ec6:	0aad      	lsrs	r5, r5, #10
      __HAL_DMA_DISABLE(hdma);
 8002ec8:	6013      	str	r3, [r2, #0]
 8002eca:	e002      	b.n	8002ed2 <HAL_DMA_IRQHandler+0xc6>
      while((hdma->Instance->CR & DMA_SxCR_EN) != RESET);
 8002ecc:	6813      	ldr	r3, [r2, #0]
 8002ece:	07db      	lsls	r3, r3, #31
 8002ed0:	d504      	bpl.n	8002edc <HAL_DMA_IRQHandler+0xd0>
        if (++count > timeout)
 8002ed2:	9b01      	ldr	r3, [sp, #4]
 8002ed4:	3301      	adds	r3, #1
 8002ed6:	42ab      	cmp	r3, r5
 8002ed8:	9301      	str	r3, [sp, #4]
 8002eda:	d9f7      	bls.n	8002ecc <HAL_DMA_IRQHandler+0xc0>
      hdma->State = HAL_DMA_STATE_READY;
 8002edc:	2201      	movs	r2, #1
      __HAL_UNLOCK(hdma);
 8002ede:	2300      	movs	r3, #0
      hdma->State = HAL_DMA_STATE_READY;
 8002ee0:	f888 2035 	strb.w	r2, [r8, #53]	; 0x35
      __HAL_UNLOCK(hdma);
 8002ee4:	f888 3034 	strb.w	r3, [r8, #52]	; 0x34
    if(hdma->XferErrorCallback != NULL)
 8002ee8:	f8d8 304c 	ldr.w	r3, [r8, #76]	; 0x4c
 8002eec:	b123      	cbz	r3, 8002ef8 <HAL_DMA_IRQHandler+0xec>
      hdma->XferErrorCallback(hdma);
 8002eee:	4640      	mov	r0, r8
}
 8002ef0:	b002      	add	sp, #8
 8002ef2:	e8bd 41f0 	ldmia.w	sp!, {r4, r5, r6, r7, r8, lr}
      hdma->XferErrorCallback(hdma);
 8002ef6:	4718      	bx	r3
}
 8002ef8:	b002      	add	sp, #8
 8002efa:	e8bd 81f0 	ldmia.w	sp!, {r4, r5, r6, r7, r8, pc}
      regs->IFCR = DMA_FLAG_HTIF0_4 << hdma->StreamIndex;
 8002efe:	60b2      	str	r2, [r6, #8]
      if(((hdma->Instance->CR) & (uint32_t)(DMA_SxCR_DBM)) != RESET)
 8002f00:	680a      	ldr	r2, [r1, #0]
 8002f02:	f412 2f80 	tst.w	r2, #262144	; 0x40000
        if((hdma->Instance->CR & DMA_SxCR_CT) == RESET)
 8002f06:	680a      	ldr	r2, [r1, #0]
      if(((hdma->Instance->CR) & (uint32_t)(DMA_SxCR_DBM)) != RESET)
 8002f08:	d12a      	bne.n	8002f60 <HAL_DMA_IRQHandler+0x154>
        if((hdma->Instance->CR & DMA_SxCR_CIRC) == RESET)
 8002f0a:	05d7      	lsls	r7, r2, #23
 8002f0c:	d403      	bmi.n	8002f16 <HAL_DMA_IRQHandler+0x10a>
          hdma->Instance->CR  &= ~(DMA_IT_HT);
 8002f0e:	680a      	ldr	r2, [r1, #0]
 8002f10:	f022 0208 	bic.w	r2, r2, #8
 8002f14:	600a      	str	r2, [r1, #0]
        if(hdma->XferHalfCpltCallback != NULL)
 8002f16:	f8d8 2040 	ldr.w	r2, [r8, #64]	; 0x40
 8002f1a:	2a00      	cmp	r2, #0
 8002f1c:	d0a5      	beq.n	8002e6a <HAL_DMA_IRQHandler+0x5e>
          hdma->XferHalfCpltCallback(hdma);
 8002f1e:	4640      	mov	r0, r8
 8002f20:	4790      	blx	r2
  if ((tmpisr & (DMA_FLAG_TCIF0_4 << hdma->StreamIndex)) != RESET)
 8002f22:	f8d8 305c 	ldr.w	r3, [r8, #92]	; 0x5c
 8002f26:	e7a0      	b.n	8002e6a <HAL_DMA_IRQHandler+0x5e>
      regs->IFCR = DMA_FLAG_DMEIF0_4 << hdma->StreamIndex;
 8002f28:	60b2      	str	r2, [r6, #8]
      hdma->ErrorCode |= HAL_DMA_ERROR_DME;
 8002f2a:	f8d8 2054 	ldr.w	r2, [r8, #84]	; 0x54
 8002f2e:	f042 0204 	orr.w	r2, r2, #4
 8002f32:	f8c8 2054 	str.w	r2, [r8, #84]	; 0x54
 8002f36:	e78f      	b.n	8002e58 <HAL_DMA_IRQHandler+0x4c>
      regs->IFCR = DMA_FLAG_FEIF0_4 << hdma->StreamIndex;
 8002f38:	60b2      	str	r2, [r6, #8]
      hdma->ErrorCode |= HAL_DMA_ERROR_FE;
 8002f3a:	f8d8 2054 	ldr.w	r2, [r8, #84]	; 0x54
 8002f3e:	f042 0202 	orr.w	r2, r2, #2
 8002f42:	f8c8 2054 	str.w	r2, [r8, #84]	; 0x54
 8002f46:	e77e      	b.n	8002e46 <HAL_DMA_IRQHandler+0x3a>
      hdma->Instance->CR  &= ~(DMA_IT_TE);
 8002f48:	680f      	ldr	r7, [r1, #0]
 8002f4a:	f027 0704 	bic.w	r7, r7, #4
 8002f4e:	600f      	str	r7, [r1, #0]
      regs->IFCR = DMA_FLAG_TEIF0_4 << hdma->StreamIndex;
 8002f50:	60b2      	str	r2, [r6, #8]
      hdma->ErrorCode |= HAL_DMA_ERROR_TE;
 8002f52:	f8d8 2054 	ldr.w	r2, [r8, #84]	; 0x54
 8002f56:	f042 0201 	orr.w	r2, r2, #1
 8002f5a:	f8c8 2054 	str.w	r2, [r8, #84]	; 0x54
 8002f5e:	e769      	b.n	8002e34 <HAL_DMA_IRQHandler+0x28>
        if((hdma->Instance->CR & DMA_SxCR_CT) == RESET)
 8002f60:	0312      	lsls	r2, r2, #12
 8002f62:	d5d8      	bpl.n	8002f16 <HAL_DMA_IRQHandler+0x10a>
          if(hdma->XferM1HalfCpltCallback != NULL)
 8002f64:	f8d8 2048 	ldr.w	r2, [r8, #72]	; 0x48
 8002f68:	2a00      	cmp	r2, #0
 8002f6a:	d1d8      	bne.n	8002f1e <HAL_DMA_IRQHandler+0x112>
 8002f6c:	e77d      	b.n	8002e6a <HAL_DMA_IRQHandler+0x5e>
        hdma->Instance->CR  &= ~(DMA_IT_TC | DMA_IT_TE | DMA_IT_DME);
 8002f6e:	680a      	ldr	r2, [r1, #0]
 8002f70:	f022 0216 	bic.w	r2, r2, #22
 8002f74:	600a      	str	r2, [r1, #0]
        hdma->Instance->FCR &= ~(DMA_IT_FE);
 8002f76:	694a      	ldr	r2, [r1, #20]
 8002f78:	f022 0280 	bic.w	r2, r2, #128	; 0x80
 8002f7c:	614a      	str	r2, [r1, #20]
        if((hdma->XferHalfCpltCallback != NULL) || (hdma->XferM1HalfCpltCallback != NULL))
 8002f7e:	f8d8 2040 	ldr.w	r2, [r8, #64]	; 0x40
 8002f82:	b352      	cbz	r2, 8002fda <HAL_DMA_IRQHandler+0x1ce>
          hdma->Instance->CR  &= ~(DMA_IT_HT);
 8002f84:	680a      	ldr	r2, [r1, #0]
 8002f86:	f022 0208 	bic.w	r2, r2, #8
 8002f8a:	600a      	str	r2, [r1, #0]
        regs->IFCR = 0x3FU << hdma->StreamIndex;
 8002f8c:	223f      	movs	r2, #63	; 0x3f
 8002f8e:	fa02 f303 	lsl.w	r3, r2, r3
        if(hdma->XferAbortCallback != NULL)
 8002f92:	f8d8 1050 	ldr.w	r1, [r8, #80]	; 0x50
        regs->IFCR = 0x3FU << hdma->StreamIndex;
 8002f96:	60b3      	str	r3, [r6, #8]
        hdma->State = HAL_DMA_STATE_READY;
 8002f98:	2201      	movs	r2, #1
        __HAL_UNLOCK(hdma);
 8002f9a:	2300      	movs	r3, #0
        hdma->State = HAL_DMA_STATE_READY;
 8002f9c:	f888 2035 	strb.w	r2, [r8, #53]	; 0x35
        __HAL_UNLOCK(hdma);
 8002fa0:	f888 3034 	strb.w	r3, [r8, #52]	; 0x34
        if(hdma->XferAbortCallback != NULL)
 8002fa4:	2900      	cmp	r1, #0
 8002fa6:	d0a7      	beq.n	8002ef8 <HAL_DMA_IRQHandler+0xec>
          hdma->XferAbortCallback(hdma);
 8002fa8:	4640      	mov	r0, r8
}
 8002faa:	b002      	add	sp, #8
 8002fac:	e8bd 41f0 	ldmia.w	sp!, {r4, r5, r6, r7, r8, lr}
          hdma->XferAbortCallback(hdma);
 8002fb0:	4708      	bx	r1
        if((hdma->Instance->CR & DMA_SxCR_CIRC) == RESET)
 8002fb2:	f413 7380 	ands.w	r3, r3, #256	; 0x100
 8002fb6:	f47f af6f 	bne.w	8002e98 <HAL_DMA_IRQHandler+0x8c>
          hdma->Instance->CR  &= ~(DMA_IT_TC);
 8002fba:	680a      	ldr	r2, [r1, #0]
 8002fbc:	f022 0210 	bic.w	r2, r2, #16
 8002fc0:	600a      	str	r2, [r1, #0]
          hdma->State = HAL_DMA_STATE_READY;
 8002fc2:	2201      	movs	r2, #1
 8002fc4:	f888 2035 	strb.w	r2, [r8, #53]	; 0x35
          __HAL_UNLOCK(hdma);
 8002fc8:	f888 3034 	strb.w	r3, [r8, #52]	; 0x34
 8002fcc:	e764      	b.n	8002e98 <HAL_DMA_IRQHandler+0x8c>
          if(hdma->XferM1CpltCallback != NULL)
 8002fce:	f8d8 3044 	ldr.w	r3, [r8, #68]	; 0x44
 8002fd2:	2b00      	cmp	r3, #0
 8002fd4:	f47f af63 	bne.w	8002e9e <HAL_DMA_IRQHandler+0x92>
 8002fd8:	e763      	b.n	8002ea2 <HAL_DMA_IRQHandler+0x96>
        if((hdma->XferHalfCpltCallback != NULL) || (hdma->XferM1HalfCpltCallback != NULL))
 8002fda:	f8d8 2048 	ldr.w	r2, [r8, #72]	; 0x48
 8002fde:	2a00      	cmp	r2, #0
 8002fe0:	d1d0      	bne.n	8002f84 <HAL_DMA_IRQHandler+0x178>
 8002fe2:	e7d3      	b.n	8002f8c <HAL_DMA_IRQHandler+0x180>
 8002fe4:	20000040 	.word	0x20000040
 8002fe8:	1b4e81b5 	.word	0x1b4e81b5

08002fec <HAL_DMA_GetState>:
  return hdma->State;
 8002fec:	f890 0035 	ldrb.w	r0, [r0, #53]	; 0x35
}
 8002ff0:	4770      	bx	lr
 8002ff2:	bf00      	nop

08002ff4 <HAL_GPIO_Init>:
  * @param  GPIO_Init pointer to a GPIO_InitTypeDef structure that contains
  *         the configuration information for the specified GPIO peripheral.
  * @retval None
  */
void HAL_GPIO_Init(GPIO_TypeDef  *GPIOx, GPIO_InitTypeDef *GPIO_Init)
{
 8002ff4:	e92d 4ff0 	stmdb	sp!, {r4, r5, r6, r7, r8, r9, sl, fp, lr}
  for(position = 0U; position < GPIO_NUMBER; position++)
  {
    /* Get the IO position */
    ioposition = 0x01U << position;
    /* Get the current IO position */
    iocurrent = (uint32_t)(GPIO_Init->Pin) & ioposition;
 8002ff8:	2200      	movs	r2, #0
 8002ffa:	680c      	ldr	r4, [r1, #0]
        temp &= ~(0x0FU << (4U * (position & 0x03U)));
        temp |= ((uint32_t)(GPIO_GET_INDEX(GPIOx)) << (4U * (position & 0x03U)));
        SYSCFG->EXTICR[position >> 2U] = temp;

        /* Clear Rising Falling edge configuration */
        temp = EXTI->RTSR;
 8002ffc:	4e70      	ldr	r6, [pc, #448]	; (80031c0 <HAL_GPIO_Init+0x1cc>)
{
 8002ffe:	b085      	sub	sp, #20
  for(position = 0U; position < GPIO_NUMBER; position++)
 8003000:	4613      	mov	r3, r2
    ioposition = 0x01U << position;
 8003002:	f04f 0a01 	mov.w	sl, #1
        __HAL_RCC_SYSCFG_CLK_ENABLE();
 8003006:	4689      	mov	r9, r1
 8003008:	e004      	b.n	8003014 <HAL_GPIO_Init+0x20>
  for(position = 0U; position < GPIO_NUMBER; position++)
 800300a:	3301      	adds	r3, #1
 800300c:	2b10      	cmp	r3, #16
 800300e:	f102 0202 	add.w	r2, r2, #2
 8003012:	d078      	beq.n	8003106 <HAL_GPIO_Init+0x112>
    ioposition = 0x01U << position;
 8003014:	fa0a f103 	lsl.w	r1, sl, r3
    iocurrent = (uint32_t)(GPIO_Init->Pin) & ioposition;
 8003018:	ea01 0b04 	and.w	fp, r1, r4
    if(iocurrent == ioposition)
 800301c:	43a1      	bics	r1, r4
 800301e:	d1f4      	bne.n	800300a <HAL_GPIO_Init+0x16>
      if(((GPIO_Init->Mode & GPIO_MODE) == MODE_OUTPUT) || \
 8003020:	f8d9 c004 	ldr.w	ip, [r9, #4]
 8003024:	f00c 0103 	and.w	r1, ip, #3
 8003028:	1e4d      	subs	r5, r1, #1
 800302a:	2d01      	cmp	r5, #1
 800302c:	d96e      	bls.n	800310c <HAL_GPIO_Init+0x118>
      if((GPIO_Init->Mode & GPIO_MODE) != MODE_ANALOG)
 800302e:	2903      	cmp	r1, #3
 8003030:	f040 80ae 	bne.w	8003190 <HAL_GPIO_Init+0x19c>
        temp &= ~(GPIO_OSPEEDER_OSPEEDR0 << (position * 2U));
 8003034:	4091      	lsls	r1, r2
 8003036:	43cd      	mvns	r5, r1
      temp = GPIOx->MODER;
 8003038:	6807      	ldr	r7, [r0, #0]
      temp &= ~(GPIO_MODER_MODER0 << (position * 2U));
 800303a:	403d      	ands	r5, r7
      temp |= ((GPIO_Init->Mode & GPIO_MODE) << (position * 2U));
 800303c:	4329      	orrs	r1, r5
      if((GPIO_Init->Mode & EXTI_MODE) != 0x00U)
 800303e:	f41c 3f40 	tst.w	ip, #196608	; 0x30000
      GPIOx->MODER = temp;
 8003042:	6001      	str	r1, [r0, #0]
      if((GPIO_Init->Mode & EXTI_MODE) != 0x00U)
 8003044:	d0e1      	beq.n	800300a <HAL_GPIO_Init+0x16>
        __HAL_RCC_SYSCFG_CLK_ENABLE();
 8003046:	4d5f      	ldr	r5, [pc, #380]	; (80031c4 <HAL_GPIO_Init+0x1d0>)
 8003048:	2100      	movs	r1, #0
 800304a:	9103      	str	r1, [sp, #12]
 800304c:	6c69      	ldr	r1, [r5, #68]	; 0x44
 800304e:	f441 4180 	orr.w	r1, r1, #16384	; 0x4000
 8003052:	6469      	str	r1, [r5, #68]	; 0x44
 8003054:	6c69      	ldr	r1, [r5, #68]	; 0x44
 8003056:	f401 4180 	and.w	r1, r1, #16384	; 0x4000
 800305a:	9103      	str	r1, [sp, #12]
 800305c:	9903      	ldr	r1, [sp, #12]
        temp = SYSCFG->EXTICR[position >> 2U];
 800305e:	f023 0103 	bic.w	r1, r3, #3
 8003062:	f101 4180 	add.w	r1, r1, #1073741824	; 0x40000000
 8003066:	f501 319c 	add.w	r1, r1, #79872	; 0x13800
        temp &= ~(0x0FU << (4U * (position & 0x03U)));
 800306a:	f003 0703 	and.w	r7, r3, #3
        temp = SYSCFG->EXTICR[position >> 2U];
 800306e:	f8d1 e008 	ldr.w	lr, [r1, #8]
        temp &= ~(0x0FU << (4U * (position & 0x03U)));
 8003072:	00bf      	lsls	r7, r7, #2
 8003074:	250f      	movs	r5, #15
 8003076:	40bd      	lsls	r5, r7
 8003078:	ea2e 0805 	bic.w	r8, lr, r5
        temp |= ((uint32_t)(GPIO_GET_INDEX(GPIOx)) << (4U * (position & 0x03U)));
 800307c:	4d52      	ldr	r5, [pc, #328]	; (80031c8 <HAL_GPIO_Init+0x1d4>)
 800307e:	42a8      	cmp	r0, r5
 8003080:	d017      	beq.n	80030b2 <HAL_GPIO_Init+0xbe>
 8003082:	f505 6580 	add.w	r5, r5, #1024	; 0x400
 8003086:	42a8      	cmp	r0, r5
 8003088:	f000 8086 	beq.w	8003198 <HAL_GPIO_Init+0x1a4>
 800308c:	4d4f      	ldr	r5, [pc, #316]	; (80031cc <HAL_GPIO_Init+0x1d8>)
 800308e:	42a8      	cmp	r0, r5
 8003090:	f000 8087 	beq.w	80031a2 <HAL_GPIO_Init+0x1ae>
 8003094:	4d4e      	ldr	r5, [pc, #312]	; (80031d0 <HAL_GPIO_Init+0x1dc>)
 8003096:	42a8      	cmp	r0, r5
 8003098:	f000 808a 	beq.w	80031b0 <HAL_GPIO_Init+0x1bc>
 800309c:	4d4d      	ldr	r5, [pc, #308]	; (80031d4 <HAL_GPIO_Init+0x1e0>)
 800309e:	42a8      	cmp	r0, r5
 80030a0:	bf0c      	ite	eq
 80030a2:	f04f 0e04 	moveq.w	lr, #4
 80030a6:	f04f 0e07 	movne.w	lr, #7
 80030aa:	fa0e f707 	lsl.w	r7, lr, r7
 80030ae:	ea48 0807 	orr.w	r8, r8, r7
        SYSCFG->EXTICR[position >> 2U] = temp;
 80030b2:	f8c1 8008 	str.w	r8, [r1, #8]
        temp = EXTI->RTSR;
 80030b6:	68b1      	ldr	r1, [r6, #8]
        temp &= ~((uint32_t)iocurrent);
 80030b8:	ea6f 070b 	mvn.w	r7, fp
        if((GPIO_Init->Mode & TRIGGER_RISING) != 0x00U)
 80030bc:	f41c 1f80 	tst.w	ip, #1048576	; 0x100000
        temp &= ~((uint32_t)iocurrent);
 80030c0:	bf0c      	ite	eq
 80030c2:	4039      	andeq	r1, r7
        {
          temp |= iocurrent;
 80030c4:	ea4b 0101 	orrne.w	r1, fp, r1
        }
        EXTI->RTSR = temp;
 80030c8:	60b1      	str	r1, [r6, #8]

        temp = EXTI->FTSR;
 80030ca:	68f5      	ldr	r5, [r6, #12]
        temp &= ~((uint32_t)iocurrent);
        if((GPIO_Init->Mode & TRIGGER_FALLING) != 0x00U)
 80030cc:	f41c 1f00 	tst.w	ip, #2097152	; 0x200000
        temp &= ~((uint32_t)iocurrent);
 80030d0:	bf0c      	ite	eq
 80030d2:	403d      	andeq	r5, r7
        {
          temp |= iocurrent;
 80030d4:	ea4b 0505 	orrne.w	r5, fp, r5
        }
        EXTI->FTSR = temp;
 80030d8:	60f5      	str	r5, [r6, #12]

        temp = EXTI->EMR;
 80030da:	6875      	ldr	r5, [r6, #4]
        temp &= ~((uint32_t)iocurrent);
        if((GPIO_Init->Mode & EXTI_EVT) != 0x00U)
 80030dc:	f41c 3f00 	tst.w	ip, #131072	; 0x20000
        temp &= ~((uint32_t)iocurrent);
 80030e0:	bf0c      	ite	eq
 80030e2:	403d      	andeq	r5, r7
        {
          temp |= iocurrent;
 80030e4:	ea4b 0505 	orrne.w	r5, fp, r5
        }
        EXTI->EMR = temp;
 80030e8:	6075      	str	r5, [r6, #4]

        /* Clear EXTI line configuration */
        temp = EXTI->IMR;
 80030ea:	6831      	ldr	r1, [r6, #0]
        temp &= ~((uint32_t)iocurrent);
        if((GPIO_Init->Mode & EXTI_IT) != 0x00U)
 80030ec:	f41c 3f80 	tst.w	ip, #65536	; 0x10000
  for(position = 0U; position < GPIO_NUMBER; position++)
 80030f0:	f103 0301 	add.w	r3, r3, #1
        temp &= ~((uint32_t)iocurrent);
 80030f4:	bf0c      	ite	eq
 80030f6:	4039      	andeq	r1, r7
        {
          temp |= iocurrent;
 80030f8:	ea4b 0101 	orrne.w	r1, fp, r1
  for(position = 0U; position < GPIO_NUMBER; position++)
 80030fc:	2b10      	cmp	r3, #16
        }
        EXTI->IMR = temp;
 80030fe:	6031      	str	r1, [r6, #0]
  for(position = 0U; position < GPIO_NUMBER; position++)
 8003100:	f102 0202 	add.w	r2, r2, #2
 8003104:	d186      	bne.n	8003014 <HAL_GPIO_Init+0x20>
      }
    }
  }
}
 8003106:	b005      	add	sp, #20
 8003108:	e8bd 8ff0 	ldmia.w	sp!, {r4, r5, r6, r7, r8, r9, sl, fp, pc}
        temp |= (GPIO_Init->Speed << (position * 2U));
 800310c:	f8d9 500c 	ldr.w	r5, [r9, #12]
        temp = GPIOx->OSPEEDR; 
 8003110:	6887      	ldr	r7, [r0, #8]
        temp |= (GPIO_Init->Speed << (position * 2U));
 8003112:	fa05 f802 	lsl.w	r8, r5, r2
        temp &= ~(GPIO_OSPEEDER_OSPEEDR0 << (position * 2U));
 8003116:	2503      	movs	r5, #3
 8003118:	fa05 fe02 	lsl.w	lr, r5, r2
 800311c:	ea27 070e 	bic.w	r7, r7, lr
        temp |= (GPIO_Init->Speed << (position * 2U));
 8003120:	ea48 0707 	orr.w	r7, r8, r7
        GPIOx->OSPEEDR = temp;
 8003124:	6087      	str	r7, [r0, #8]
        temp = GPIOx->OTYPER;
 8003126:	6847      	ldr	r7, [r0, #4]
        temp &= ~(GPIO_OSPEEDER_OSPEEDR0 << (position * 2U));
 8003128:	ea6f 050e 	mvn.w	r5, lr
        temp &= ~(GPIO_OTYPER_OT_0 << position) ;
 800312c:	ea27 0e0b 	bic.w	lr, r7, fp
        temp |= (((GPIO_Init->Mode & OUTPUT_TYPE) >> OUTPUT_TYPE_Pos) << position);
 8003130:	f3cc 1700 	ubfx	r7, ip, #4, #1
 8003134:	409f      	lsls	r7, r3
 8003136:	ea47 070e 	orr.w	r7, r7, lr
        GPIOx->OTYPER = temp;
 800313a:	6047      	str	r7, [r0, #4]
        temp = GPIOx->PUPDR;
 800313c:	68c7      	ldr	r7, [r0, #12]
        temp &= ~(GPIO_PUPDR_PUPDR0 << (position * 2U));
 800313e:	ea07 0e05 	and.w	lr, r7, r5
        temp |= ((GPIO_Init->Pull) << (position * 2U));
 8003142:	f8d9 7008 	ldr.w	r7, [r9, #8]
 8003146:	4097      	lsls	r7, r2
 8003148:	ea47 070e 	orr.w	r7, r7, lr
      if((GPIO_Init->Mode & GPIO_MODE) == MODE_AF)
 800314c:	2902      	cmp	r1, #2
        GPIOx->PUPDR = temp;
 800314e:	60c7      	str	r7, [r0, #12]
      if((GPIO_Init->Mode & GPIO_MODE) == MODE_AF)
 8003150:	fa01 f102 	lsl.w	r1, r1, r2
 8003154:	f47f af70 	bne.w	8003038 <HAL_GPIO_Init+0x44>
        temp = GPIOx->AFR[position >> 3U];
 8003158:	ea4f 0ed3 	mov.w	lr, r3, lsr #3
 800315c:	eb00 0e8e 	add.w	lr, r0, lr, lsl #2
        temp &= ~(0xFU << ((uint32_t)(position & 0x07U) * 4U)) ;
 8003160:	f003 0807 	and.w	r8, r3, #7
        temp = GPIOx->AFR[position >> 3U];
 8003164:	f8de 7020 	ldr.w	r7, [lr, #32]
 8003168:	9700      	str	r7, [sp, #0]
        temp |= ((uint32_t)(GPIO_Init->Alternate) << (((uint32_t)position & 0x07U) * 4U));
 800316a:	f8d9 7010 	ldr.w	r7, [r9, #16]
        temp &= ~(0xFU << ((uint32_t)(position & 0x07U) * 4U)) ;
 800316e:	ea4f 0888 	mov.w	r8, r8, lsl #2
        temp |= ((uint32_t)(GPIO_Init->Alternate) << (((uint32_t)position & 0x07U) * 4U));
 8003172:	fa07 f708 	lsl.w	r7, r7, r8
 8003176:	9701      	str	r7, [sp, #4]
        temp &= ~(0xFU << ((uint32_t)(position & 0x07U) * 4U)) ;
 8003178:	270f      	movs	r7, #15
 800317a:	fa07 f808 	lsl.w	r8, r7, r8
 800317e:	9f00      	ldr	r7, [sp, #0]
 8003180:	ea27 0808 	bic.w	r8, r7, r8
        temp |= ((uint32_t)(GPIO_Init->Alternate) << (((uint32_t)position & 0x07U) * 4U));
 8003184:	9f01      	ldr	r7, [sp, #4]
 8003186:	ea47 0708 	orr.w	r7, r7, r8
        GPIOx->AFR[position >> 3U] = temp;
 800318a:	f8ce 7020 	str.w	r7, [lr, #32]
 800318e:	e753      	b.n	8003038 <HAL_GPIO_Init+0x44>
        temp &= ~(GPIO_OSPEEDER_OSPEEDR0 << (position * 2U));
 8003190:	2503      	movs	r5, #3
 8003192:	4095      	lsls	r5, r2
 8003194:	43ed      	mvns	r5, r5
 8003196:	e7d1      	b.n	800313c <HAL_GPIO_Init+0x148>
        temp |= ((uint32_t)(GPIO_GET_INDEX(GPIOx)) << (4U * (position & 0x03U)));
 8003198:	fa0a f707 	lsl.w	r7, sl, r7
 800319c:	ea48 0807 	orr.w	r8, r8, r7
 80031a0:	e787      	b.n	80030b2 <HAL_GPIO_Init+0xbe>
 80031a2:	f04f 0e02 	mov.w	lr, #2
 80031a6:	fa0e f707 	lsl.w	r7, lr, r7
 80031aa:	ea48 0807 	orr.w	r8, r8, r7
 80031ae:	e780      	b.n	80030b2 <HAL_GPIO_Init+0xbe>
 80031b0:	f04f 0e03 	mov.w	lr, #3
 80031b4:	fa0e f707 	lsl.w	r7, lr, r7
 80031b8:	ea48 0807 	orr.w	r8, r8, r7
 80031bc:	e779      	b.n	80030b2 <HAL_GPIO_Init+0xbe>
 80031be:	bf00      	nop
 80031c0:	40013c00 	.word	0x40013c00
 80031c4:	40023800 	.word	0x40023800
 80031c8:	40020000 	.word	0x40020000
 80031cc:	40020800 	.word	0x40020800
 80031d0:	40020c00 	.word	0x40020c00
 80031d4:	40021000 	.word	0x40021000

080031d8 <HAL_GPIO_ReadPin>:
  GPIO_PinState bitstatus;

  /* Check the parameters */
  assert_param(IS_GPIO_PIN(GPIO_Pin));

  if((GPIOx->IDR & GPIO_Pin) != (uint32_t)GPIO_PIN_RESET)
 80031d8:	6903      	ldr	r3, [r0, #16]
 80031da:	4219      	tst	r1, r3
  else
  {
    bitstatus = GPIO_PIN_RESET;
  }
  return bitstatus;
}
 80031dc:	bf14      	ite	ne
 80031de:	2001      	movne	r0, #1
 80031e0:	2000      	moveq	r0, #0
 80031e2:	4770      	bx	lr

080031e4 <HAL_GPIO_WritePin>:
{
  /* Check the parameters */
  assert_param(IS_GPIO_PIN(GPIO_Pin));
  assert_param(IS_GPIO_PIN_ACTION(PinState));

  if(PinState != GPIO_PIN_RESET)
 80031e4:	b902      	cbnz	r2, 80031e8 <HAL_GPIO_WritePin+0x4>
  {
    GPIOx->BSRR = GPIO_Pin;
  }
  else
  {
    GPIOx->BSRR = (uint32_t)GPIO_Pin << 16U;
 80031e6:	0409      	lsls	r1, r1, #16
 80031e8:	6181      	str	r1, [r0, #24]
  }
}
 80031ea:	4770      	bx	lr

080031ec <HAL_GPIO_TogglePin>:

  /* Check the parameters */
  assert_param(IS_GPIO_PIN(GPIO_Pin));

  /* get current Output Data Register value */
  odr = GPIOx->ODR;
 80031ec:	6943      	ldr	r3, [r0, #20]

  /* Set selected pins that were at low level, and reset ones that were high */
  GPIOx->BSRR = ((odr & GPIO_Pin) << GPIO_NUMBER) | (~odr & GPIO_Pin);
 80031ee:	ea01 0203 	and.w	r2, r1, r3
 80031f2:	ea21 0103 	bic.w	r1, r1, r3
 80031f6:	ea41 4102 	orr.w	r1, r1, r2, lsl #16
 80031fa:	6181      	str	r1, [r0, #24]
}
 80031fc:	4770      	bx	lr
 80031fe:	bf00      	nop

08003200 <HAL_GPIO_EXTI_IRQHandler>:
  * @retval None
  */
void HAL_GPIO_EXTI_IRQHandler(uint16_t GPIO_Pin)
{
  /* EXTI line interrupt detected */
  if(__HAL_GPIO_EXTI_GET_IT(GPIO_Pin) != RESET)
 8003200:	4a04      	ldr	r2, [pc, #16]	; (8003214 <HAL_GPIO_EXTI_IRQHandler+0x14>)
 8003202:	6951      	ldr	r1, [r2, #20]
 8003204:	4201      	tst	r1, r0
 8003206:	d100      	bne.n	800320a <HAL_GPIO_EXTI_IRQHandler+0xa>
 8003208:	4770      	bx	lr
{
 800320a:	b508      	push	{r3, lr}
  {
    __HAL_GPIO_EXTI_CLEAR_IT(GPIO_Pin);
 800320c:	6150      	str	r0, [r2, #20]
    HAL_GPIO_EXTI_Callback(GPIO_Pin);
 800320e:	f7fe f889 	bl	8001324 <HAL_GPIO_EXTI_Callback>
  }
}
 8003212:	bd08      	pop	{r3, pc}
 8003214:	40013c00 	.word	0x40013c00

08003218 <I2C_RequestMemoryWrite>:
  * @param  Timeout Timeout duration
  * @param  Tickstart Tick start value
  * @retval HAL status
  */
static HAL_StatusTypeDef I2C_RequestMemoryWrite(I2C_HandleTypeDef *hi2c, uint16_t DevAddress, uint16_t MemAddress, uint16_t MemAddSize, uint32_t Timeout, uint32_t Tickstart)
{
 8003218:	e92d 4ff0 	stmdb	sp!, {r4, r5, r6, r7, r8, r9, sl, fp, lr}
  /* Generate Start */
  SET_BIT(hi2c->Instance->CR1, I2C_CR1_START);
 800321c:	6804      	ldr	r4, [r0, #0]
{
 800321e:	b083      	sub	sp, #12
 8003220:	4698      	mov	r8, r3
  SET_BIT(hi2c->Instance->CR1, I2C_CR1_START);
 8003222:	6823      	ldr	r3, [r4, #0]
{
 8003224:	f8dd 9030 	ldr.w	r9, [sp, #48]	; 0x30
 8003228:	f8dd b034 	ldr.w	fp, [sp, #52]	; 0x34
  SET_BIT(hi2c->Instance->CR1, I2C_CR1_START);
 800322c:	f443 7380 	orr.w	r3, r3, #256	; 0x100
{
 8003230:	4606      	mov	r6, r0
 8003232:	468a      	mov	sl, r1
 8003234:	4617      	mov	r7, r2
  SET_BIT(hi2c->Instance->CR1, I2C_CR1_START);
 8003236:	6023      	str	r3, [r4, #0]
  * @param  Status The new Flag status (SET or RESET).
  * @param  Timeout Timeout duration
  * @param  Tickstart Tick start value
  * @retval HAL status
  */
static HAL_StatusTypeDef I2C_WaitOnFlagUntilTimeout(I2C_HandleTypeDef *hi2c, uint32_t Flag, FlagStatus Status, uint32_t Timeout, uint32_t Tickstart)
 8003238:	f1b9 3fff 	cmp.w	r9, #4294967295
 800323c:	d135      	bne.n	80032aa <I2C_RequestMemoryWrite+0x92>
{
  /* Wait until flag is set */
  while (__HAL_I2C_GET_FLAG(hi2c, Flag) == Status)
 800323e:	6965      	ldr	r5, [r4, #20]
 8003240:	07e8      	lsls	r0, r5, #31
 8003242:	d5fc      	bpl.n	800323e <I2C_RequestMemoryWrite+0x26>
  hi2c->Instance->DR = I2C_7BIT_ADD_WRITE(DevAddress);
 8003244:	f00a 01fe 	and.w	r1, sl, #254	; 0xfe
 8003248:	6121      	str	r1, [r4, #16]
  * @param  Flag specifies the I2C flag to check.
  * @param  Timeout Timeout duration
  * @param  Tickstart Tick start value
  * @retval HAL status
  */
static HAL_StatusTypeDef I2C_WaitOnMasterAddressFlagUntilTimeout(I2C_HandleTypeDef *hi2c, uint32_t Flag, uint32_t Timeout, uint32_t Tickstart)
 800324a:	f1b9 3fff 	cmp.w	r9, #4294967295
 800324e:	d003      	beq.n	8003258 <I2C_RequestMemoryWrite+0x40>
 8003250:	e04e      	b.n	80032f0 <I2C_RequestMemoryWrite+0xd8>
{
  while (__HAL_I2C_GET_FLAG(hi2c, Flag) == RESET)
  {
    if (__HAL_I2C_GET_FLAG(hi2c, I2C_FLAG_AF) == SET)
 8003252:	6961      	ldr	r1, [r4, #20]
 8003254:	054d      	lsls	r5, r1, #21
 8003256:	d45c      	bmi.n	8003312 <I2C_RequestMemoryWrite+0xfa>
  while (__HAL_I2C_GET_FLAG(hi2c, Flag) == RESET)
 8003258:	6961      	ldr	r1, [r4, #20]
 800325a:	078b      	lsls	r3, r1, #30
 800325c:	d5f9      	bpl.n	8003252 <I2C_RequestMemoryWrite+0x3a>
  __HAL_I2C_CLEAR_ADDRFLAG(hi2c);
 800325e:	2300      	movs	r3, #0
 8003260:	9301      	str	r3, [sp, #4]
 8003262:	6963      	ldr	r3, [r4, #20]
 8003264:	9301      	str	r3, [sp, #4]
 8003266:	69a3      	ldr	r3, [r4, #24]
 8003268:	9301      	str	r3, [sp, #4]
 800326a:	9b01      	ldr	r3, [sp, #4]
  * @param  Tickstart Tick start value
  * @retval HAL status
  */
static HAL_StatusTypeDef I2C_WaitOnTXEFlagUntilTimeout(I2C_HandleTypeDef *hi2c, uint32_t Timeout, uint32_t Tickstart)
{
  while (__HAL_I2C_GET_FLAG(hi2c, I2C_FLAG_TXE) == RESET)
 800326c:	f1b9 3fff 	cmp.w	r9, #4294967295
 8003270:	f040 8087 	bne.w	8003382 <I2C_RequestMemoryWrite+0x16a>
 8003274:	6963      	ldr	r3, [r4, #20]
 8003276:	061a      	lsls	r2, r3, #24
 8003278:	d463      	bmi.n	8003342 <I2C_RequestMemoryWrite+0x12a>
  *                the configuration information for the specified I2C.
  * @retval HAL status
  */
static HAL_StatusTypeDef I2C_IsAcknowledgeFailed(I2C_HandleTypeDef *hi2c)
{
  if (__HAL_I2C_GET_FLAG(hi2c, I2C_FLAG_AF) == SET)
 800327a:	6963      	ldr	r3, [r4, #20]
 800327c:	055b      	lsls	r3, r3, #21
 800327e:	d5f9      	bpl.n	8003274 <I2C_RequestMemoryWrite+0x5c>
  {
    /* Clear NACKF Flag */
    __HAL_I2C_CLEAR_FLAG(hi2c, I2C_FLAG_AF);

    hi2c->PreviousState       = I2C_STATE_NONE;
 8003280:	2200      	movs	r2, #0
    hi2c->State               = HAL_I2C_STATE_READY;
 8003282:	2320      	movs	r3, #32
    __HAL_I2C_CLEAR_FLAG(hi2c, I2C_FLAG_AF);
 8003284:	f46f 6180 	mvn.w	r1, #1024	; 0x400
 8003288:	6161      	str	r1, [r4, #20]
    hi2c->PreviousState       = I2C_STATE_NONE;
 800328a:	6332      	str	r2, [r6, #48]	; 0x30
    hi2c->State               = HAL_I2C_STATE_READY;
 800328c:	f886 303d 	strb.w	r3, [r6, #61]	; 0x3d
    hi2c->Mode                = HAL_I2C_MODE_NONE;
 8003290:	f886 203e 	strb.w	r2, [r6, #62]	; 0x3e
    hi2c->ErrorCode           |= HAL_I2C_ERROR_AF;
 8003294:	6c33      	ldr	r3, [r6, #64]	; 0x40

    /* Process Unlocked */
    __HAL_UNLOCK(hi2c);
 8003296:	f886 203c 	strb.w	r2, [r6, #60]	; 0x3c
    hi2c->ErrorCode           |= HAL_I2C_ERROR_AF;
 800329a:	f043 0304 	orr.w	r3, r3, #4
 800329e:	6433      	str	r3, [r6, #64]	; 0x40
    if (hi2c->ErrorCode == HAL_I2C_ERROR_AF)
 80032a0:	6c33      	ldr	r3, [r6, #64]	; 0x40
 80032a2:	2b04      	cmp	r3, #4
 80032a4:	d066      	beq.n	8003374 <I2C_RequestMemoryWrite+0x15c>
    return HAL_ERROR;
 80032a6:	2001      	movs	r0, #1
 80032a8:	e01f      	b.n	80032ea <I2C_RequestMemoryWrite+0xd2>
  while (__HAL_I2C_GET_FLAG(hi2c, Flag) == Status)
 80032aa:	6963      	ldr	r3, [r4, #20]
 80032ac:	07d9      	lsls	r1, r3, #31
 80032ae:	d4c9      	bmi.n	8003244 <I2C_RequestMemoryWrite+0x2c>
      if (((HAL_GetTick() - Tickstart) > Timeout) || (Timeout == 0U))
 80032b0:	f7ff fc32 	bl	8002b18 <HAL_GetTick>
 80032b4:	eba0 000b 	sub.w	r0, r0, fp
 80032b8:	4581      	cmp	r9, r0
 80032ba:	d304      	bcc.n	80032c6 <I2C_RequestMemoryWrite+0xae>
 80032bc:	f1b9 0f00 	cmp.w	r9, #0
 80032c0:	d001      	beq.n	80032c6 <I2C_RequestMemoryWrite+0xae>
  while (__HAL_I2C_GET_FLAG(hi2c, Flag) == Status)
 80032c2:	6834      	ldr	r4, [r6, #0]
 80032c4:	e7b8      	b.n	8003238 <I2C_RequestMemoryWrite+0x20>
        hi2c->PreviousState     = I2C_STATE_NONE;
 80032c6:	2300      	movs	r3, #0
        hi2c->State             = HAL_I2C_STATE_READY;
 80032c8:	2220      	movs	r2, #32
        hi2c->PreviousState     = I2C_STATE_NONE;
 80032ca:	6333      	str	r3, [r6, #48]	; 0x30
        hi2c->State             = HAL_I2C_STATE_READY;
 80032cc:	f886 203d 	strb.w	r2, [r6, #61]	; 0x3d
        hi2c->Mode              = HAL_I2C_MODE_NONE;
 80032d0:	f886 303e 	strb.w	r3, [r6, #62]	; 0x3e
        hi2c->ErrorCode         |= HAL_I2C_ERROR_TIMEOUT;
 80032d4:	6c32      	ldr	r2, [r6, #64]	; 0x40
    if (READ_BIT(hi2c->Instance->CR1, I2C_CR1_START) == I2C_CR1_START)
 80032d6:	6831      	ldr	r1, [r6, #0]
        __HAL_UNLOCK(hi2c);
 80032d8:	f886 303c 	strb.w	r3, [r6, #60]	; 0x3c
        hi2c->ErrorCode         |= HAL_I2C_ERROR_TIMEOUT;
 80032dc:	f042 0220 	orr.w	r2, r2, #32
 80032e0:	6432      	str	r2, [r6, #64]	; 0x40
    if (READ_BIT(hi2c->Instance->CR1, I2C_CR1_START) == I2C_CR1_START)
 80032e2:	680b      	ldr	r3, [r1, #0]
 80032e4:	05dc      	lsls	r4, r3, #23
 80032e6:	d435      	bmi.n	8003354 <I2C_RequestMemoryWrite+0x13c>
    return HAL_TIMEOUT;
 80032e8:	2003      	movs	r0, #3
}
 80032ea:	b003      	add	sp, #12
 80032ec:	e8bd 8ff0 	ldmia.w	sp!, {r4, r5, r6, r7, r8, r9, sl, fp, pc}
  while (__HAL_I2C_GET_FLAG(hi2c, Flag) == RESET)
 80032f0:	6963      	ldr	r3, [r4, #20]
 80032f2:	0798      	lsls	r0, r3, #30
 80032f4:	d4b3      	bmi.n	800325e <I2C_RequestMemoryWrite+0x46>
    if (__HAL_I2C_GET_FLAG(hi2c, I2C_FLAG_AF) == SET)
 80032f6:	6963      	ldr	r3, [r4, #20]
 80032f8:	055a      	lsls	r2, r3, #21
 80032fa:	d40a      	bmi.n	8003312 <I2C_RequestMemoryWrite+0xfa>
      if (((HAL_GetTick() - Tickstart) > Timeout) || (Timeout == 0U))
 80032fc:	f7ff fc0c 	bl	8002b18 <HAL_GetTick>
 8003300:	eba0 000b 	sub.w	r0, r0, fp
 8003304:	4581      	cmp	r9, r0
 8003306:	d34e      	bcc.n	80033a6 <I2C_RequestMemoryWrite+0x18e>
 8003308:	f1b9 0f00 	cmp.w	r9, #0
 800330c:	d04b      	beq.n	80033a6 <I2C_RequestMemoryWrite+0x18e>
  while (__HAL_I2C_GET_FLAG(hi2c, Flag) == RESET)
 800330e:	6834      	ldr	r4, [r6, #0]
 8003310:	e79b      	b.n	800324a <I2C_RequestMemoryWrite+0x32>
      SET_BIT(hi2c->Instance->CR1, I2C_CR1_STOP);
 8003312:	6823      	ldr	r3, [r4, #0]
 8003314:	f443 7300 	orr.w	r3, r3, #512	; 0x200
 8003318:	6023      	str	r3, [r4, #0]
      hi2c->PreviousState       = I2C_STATE_NONE;
 800331a:	2200      	movs	r2, #0
      __HAL_I2C_CLEAR_FLAG(hi2c, I2C_FLAG_AF);
 800331c:	f46f 6180 	mvn.w	r1, #1024	; 0x400
      hi2c->State               = HAL_I2C_STATE_READY;
 8003320:	2320      	movs	r3, #32
      __HAL_I2C_CLEAR_FLAG(hi2c, I2C_FLAG_AF);
 8003322:	6161      	str	r1, [r4, #20]
      hi2c->PreviousState       = I2C_STATE_NONE;
 8003324:	6332      	str	r2, [r6, #48]	; 0x30
      hi2c->State               = HAL_I2C_STATE_READY;
 8003326:	f886 303d 	strb.w	r3, [r6, #61]	; 0x3d
      hi2c->Mode                = HAL_I2C_MODE_NONE;
 800332a:	f886 203e 	strb.w	r2, [r6, #62]	; 0x3e
      hi2c->ErrorCode           |= HAL_I2C_ERROR_AF;
 800332e:	6c33      	ldr	r3, [r6, #64]	; 0x40
      __HAL_UNLOCK(hi2c);
 8003330:	f886 203c 	strb.w	r2, [r6, #60]	; 0x3c
      hi2c->ErrorCode           |= HAL_I2C_ERROR_AF;
 8003334:	f043 0304 	orr.w	r3, r3, #4
    return HAL_ERROR;
 8003338:	2001      	movs	r0, #1
      hi2c->ErrorCode           |= HAL_I2C_ERROR_AF;
 800333a:	6433      	str	r3, [r6, #64]	; 0x40
}
 800333c:	b003      	add	sp, #12
 800333e:	e8bd 8ff0 	ldmia.w	sp!, {r4, r5, r6, r7, r8, r9, sl, fp, pc}
  if (MemAddSize == I2C_MEMADD_SIZE_8BIT)
 8003342:	f1b8 0f01 	cmp.w	r8, #1
 8003346:	d109      	bne.n	800335c <I2C_RequestMemoryWrite+0x144>
    hi2c->Instance->DR = I2C_MEM_ADD_LSB(MemAddress);
 8003348:	b2ff      	uxtb	r7, r7
  return HAL_OK;
 800334a:	2000      	movs	r0, #0
    hi2c->Instance->DR = I2C_MEM_ADD_LSB(MemAddress);
 800334c:	6127      	str	r7, [r4, #16]
}
 800334e:	b003      	add	sp, #12
 8003350:	e8bd 8ff0 	ldmia.w	sp!, {r4, r5, r6, r7, r8, r9, sl, fp, pc}
      hi2c->ErrorCode = HAL_I2C_WRONG_START;
 8003354:	f44f 7300 	mov.w	r3, #512	; 0x200
 8003358:	6433      	str	r3, [r6, #64]	; 0x40
 800335a:	e7c5      	b.n	80032e8 <I2C_RequestMemoryWrite+0xd0>
    hi2c->Instance->DR = I2C_MEM_ADD_MSB(MemAddress);
 800335c:	0a3b      	lsrs	r3, r7, #8
 800335e:	6123      	str	r3, [r4, #16]
  while (__HAL_I2C_GET_FLAG(hi2c, I2C_FLAG_TXE) == RESET)
 8003360:	f1b9 3fff 	cmp.w	r9, #4294967295
 8003364:	d12e      	bne.n	80033c4 <I2C_RequestMemoryWrite+0x1ac>
 8003366:	6963      	ldr	r3, [r4, #20]
 8003368:	0619      	lsls	r1, r3, #24
 800336a:	d4ed      	bmi.n	8003348 <I2C_RequestMemoryWrite+0x130>
  if (__HAL_I2C_GET_FLAG(hi2c, I2C_FLAG_AF) == SET)
 800336c:	6963      	ldr	r3, [r4, #20]
 800336e:	055a      	lsls	r2, r3, #21
 8003370:	d5f9      	bpl.n	8003366 <I2C_RequestMemoryWrite+0x14e>
 8003372:	e785      	b.n	8003280 <I2C_RequestMemoryWrite+0x68>
        SET_BIT(hi2c->Instance->CR1, I2C_CR1_STOP);
 8003374:	6832      	ldr	r2, [r6, #0]
 8003376:	6813      	ldr	r3, [r2, #0]
 8003378:	f443 7300 	orr.w	r3, r3, #512	; 0x200
      return HAL_ERROR;
 800337c:	2001      	movs	r0, #1
        SET_BIT(hi2c->Instance->CR1, I2C_CR1_STOP);
 800337e:	6013      	str	r3, [r2, #0]
 8003380:	e7b3      	b.n	80032ea <I2C_RequestMemoryWrite+0xd2>
  while (__HAL_I2C_GET_FLAG(hi2c, I2C_FLAG_TXE) == RESET)
 8003382:	6963      	ldr	r3, [r4, #20]
 8003384:	061d      	lsls	r5, r3, #24
 8003386:	d4dc      	bmi.n	8003342 <I2C_RequestMemoryWrite+0x12a>
  if (__HAL_I2C_GET_FLAG(hi2c, I2C_FLAG_AF) == SET)
 8003388:	6963      	ldr	r3, [r4, #20]
 800338a:	0559      	lsls	r1, r3, #21
 800338c:	f53f af78 	bmi.w	8003280 <I2C_RequestMemoryWrite+0x68>
      if (((HAL_GetTick() - Tickstart) > Timeout) || (Timeout == 0U))
 8003390:	f7ff fbc2 	bl	8002b18 <HAL_GetTick>
 8003394:	eba0 000b 	sub.w	r0, r0, fp
 8003398:	4581      	cmp	r9, r0
 800339a:	d325      	bcc.n	80033e8 <I2C_RequestMemoryWrite+0x1d0>
 800339c:	f1b9 0f00 	cmp.w	r9, #0
 80033a0:	d022      	beq.n	80033e8 <I2C_RequestMemoryWrite+0x1d0>
  while (__HAL_I2C_GET_FLAG(hi2c, I2C_FLAG_TXE) == RESET)
 80033a2:	6834      	ldr	r4, [r6, #0]
 80033a4:	e762      	b.n	800326c <I2C_RequestMemoryWrite+0x54>
        hi2c->PreviousState       = I2C_STATE_NONE;
 80033a6:	2200      	movs	r2, #0
        hi2c->State               = HAL_I2C_STATE_READY;
 80033a8:	2320      	movs	r3, #32
        hi2c->PreviousState       = I2C_STATE_NONE;
 80033aa:	6332      	str	r2, [r6, #48]	; 0x30
        hi2c->State               = HAL_I2C_STATE_READY;
 80033ac:	f886 303d 	strb.w	r3, [r6, #61]	; 0x3d
        hi2c->Mode                = HAL_I2C_MODE_NONE;
 80033b0:	f886 203e 	strb.w	r2, [r6, #62]	; 0x3e
        hi2c->ErrorCode           |= HAL_I2C_ERROR_TIMEOUT;
 80033b4:	6c33      	ldr	r3, [r6, #64]	; 0x40
        __HAL_UNLOCK(hi2c);
 80033b6:	f886 203c 	strb.w	r2, [r6, #60]	; 0x3c
        hi2c->ErrorCode           |= HAL_I2C_ERROR_TIMEOUT;
 80033ba:	f043 0320 	orr.w	r3, r3, #32
 80033be:	6433      	str	r3, [r6, #64]	; 0x40
    return HAL_ERROR;
 80033c0:	2001      	movs	r0, #1
 80033c2:	e792      	b.n	80032ea <I2C_RequestMemoryWrite+0xd2>
  while (__HAL_I2C_GET_FLAG(hi2c, I2C_FLAG_TXE) == RESET)
 80033c4:	6963      	ldr	r3, [r4, #20]
 80033c6:	061b      	lsls	r3, r3, #24
 80033c8:	d4be      	bmi.n	8003348 <I2C_RequestMemoryWrite+0x130>
  if (__HAL_I2C_GET_FLAG(hi2c, I2C_FLAG_AF) == SET)
 80033ca:	6963      	ldr	r3, [r4, #20]
 80033cc:	0558      	lsls	r0, r3, #21
 80033ce:	f53f af57 	bmi.w	8003280 <I2C_RequestMemoryWrite+0x68>
      if (((HAL_GetTick() - Tickstart) > Timeout) || (Timeout == 0U))
 80033d2:	f7ff fba1 	bl	8002b18 <HAL_GetTick>
 80033d6:	eba0 000b 	sub.w	r0, r0, fp
 80033da:	4581      	cmp	r9, r0
 80033dc:	d304      	bcc.n	80033e8 <I2C_RequestMemoryWrite+0x1d0>
 80033de:	f1b9 0f00 	cmp.w	r9, #0
 80033e2:	d001      	beq.n	80033e8 <I2C_RequestMemoryWrite+0x1d0>
  while (__HAL_I2C_GET_FLAG(hi2c, I2C_FLAG_TXE) == RESET)
 80033e4:	6834      	ldr	r4, [r6, #0]
 80033e6:	e7bb      	b.n	8003360 <I2C_RequestMemoryWrite+0x148>
        hi2c->PreviousState     = I2C_STATE_NONE;
 80033e8:	2200      	movs	r2, #0
        hi2c->State             = HAL_I2C_STATE_READY;
 80033ea:	2320      	movs	r3, #32
        hi2c->PreviousState     = I2C_STATE_NONE;
 80033ec:	6332      	str	r2, [r6, #48]	; 0x30
        hi2c->State             = HAL_I2C_STATE_READY;
 80033ee:	f886 303d 	strb.w	r3, [r6, #61]	; 0x3d
        hi2c->Mode              = HAL_I2C_MODE_NONE;
 80033f2:	f886 203e 	strb.w	r2, [r6, #62]	; 0x3e
        hi2c->ErrorCode         |= HAL_I2C_ERROR_TIMEOUT;
 80033f6:	6c33      	ldr	r3, [r6, #64]	; 0x40
        __HAL_UNLOCK(hi2c);
 80033f8:	f886 203c 	strb.w	r2, [r6, #60]	; 0x3c
        hi2c->ErrorCode         |= HAL_I2C_ERROR_TIMEOUT;
 80033fc:	f043 0320 	orr.w	r3, r3, #32
 8003400:	6433      	str	r3, [r6, #64]	; 0x40
        return HAL_ERROR;
 8003402:	e74d      	b.n	80032a0 <I2C_RequestMemoryWrite+0x88>

08003404 <I2C_RequestMemoryRead>:
{
 8003404:	e92d 4ff0 	stmdb	sp!, {r4, r5, r6, r7, r8, r9, sl, fp, lr}
  SET_BIT(hi2c->Instance->CR1, I2C_CR1_ACK);
 8003408:	6804      	ldr	r4, [r0, #0]
{
 800340a:	4698      	mov	r8, r3
  SET_BIT(hi2c->Instance->CR1, I2C_CR1_ACK);
 800340c:	6823      	ldr	r3, [r4, #0]
 800340e:	f443 6380 	orr.w	r3, r3, #1024	; 0x400
 8003412:	6023      	str	r3, [r4, #0]
  SET_BIT(hi2c->Instance->CR1, I2C_CR1_START);
 8003414:	6823      	ldr	r3, [r4, #0]
{
 8003416:	b083      	sub	sp, #12
  SET_BIT(hi2c->Instance->CR1, I2C_CR1_START);
 8003418:	f443 7380 	orr.w	r3, r3, #256	; 0x100
{
 800341c:	f8dd a030 	ldr.w	sl, [sp, #48]	; 0x30
 8003420:	f8dd 9034 	ldr.w	r9, [sp, #52]	; 0x34
  SET_BIT(hi2c->Instance->CR1, I2C_CR1_START);
 8003424:	6023      	str	r3, [r4, #0]
{
 8003426:	4606      	mov	r6, r0
 8003428:	468b      	mov	fp, r1
 800342a:	4617      	mov	r7, r2
 800342c:	f1ba 3fff 	cmp.w	sl, #4294967295
 8003430:	d139      	bne.n	80034a6 <I2C_RequestMemoryRead+0xa2>
  while (__HAL_I2C_GET_FLAG(hi2c, Flag) == Status)
 8003432:	6965      	ldr	r5, [r4, #20]
 8003434:	07eb      	lsls	r3, r5, #31
 8003436:	d5fc      	bpl.n	8003432 <I2C_RequestMemoryRead+0x2e>
  hi2c->Instance->DR = I2C_7BIT_ADD_WRITE(DevAddress);
 8003438:	f00b 03fe 	and.w	r3, fp, #254	; 0xfe
 800343c:	6123      	str	r3, [r4, #16]
 800343e:	fa5f fb8b 	uxtb.w	fp, fp
 8003442:	f1ba 3fff 	cmp.w	sl, #4294967295
 8003446:	d003      	beq.n	8003450 <I2C_RequestMemoryRead+0x4c>
 8003448:	e068      	b.n	800351c <I2C_RequestMemoryRead+0x118>
    if (__HAL_I2C_GET_FLAG(hi2c, I2C_FLAG_AF) == SET)
 800344a:	6961      	ldr	r1, [r4, #20]
 800344c:	054a      	lsls	r2, r1, #21
 800344e:	d450      	bmi.n	80034f2 <I2C_RequestMemoryRead+0xee>
  while (__HAL_I2C_GET_FLAG(hi2c, Flag) == RESET)
 8003450:	6961      	ldr	r1, [r4, #20]
 8003452:	0789      	lsls	r1, r1, #30
 8003454:	d5f9      	bpl.n	800344a <I2C_RequestMemoryRead+0x46>
  __HAL_I2C_CLEAR_ADDRFLAG(hi2c);
 8003456:	2300      	movs	r3, #0
 8003458:	9301      	str	r3, [sp, #4]
 800345a:	6963      	ldr	r3, [r4, #20]
 800345c:	9301      	str	r3, [sp, #4]
 800345e:	69a3      	ldr	r3, [r4, #24]
 8003460:	9301      	str	r3, [sp, #4]
 8003462:	9b01      	ldr	r3, [sp, #4]
  while (__HAL_I2C_GET_FLAG(hi2c, I2C_FLAG_TXE) == RESET)
 8003464:	f1ba 3fff 	cmp.w	sl, #4294967295
 8003468:	f040 80b8 	bne.w	80035dc <I2C_RequestMemoryRead+0x1d8>
 800346c:	6963      	ldr	r3, [r4, #20]
 800346e:	0618      	lsls	r0, r3, #24
 8003470:	d467      	bmi.n	8003542 <I2C_RequestMemoryRead+0x13e>
  if (__HAL_I2C_GET_FLAG(hi2c, I2C_FLAG_AF) == SET)
 8003472:	6963      	ldr	r3, [r4, #20]
 8003474:	0559      	lsls	r1, r3, #21
 8003476:	d5f9      	bpl.n	800346c <I2C_RequestMemoryRead+0x68>
    hi2c->PreviousState       = I2C_STATE_NONE;
 8003478:	2200      	movs	r2, #0
    hi2c->State               = HAL_I2C_STATE_READY;
 800347a:	2320      	movs	r3, #32
    __HAL_I2C_CLEAR_FLAG(hi2c, I2C_FLAG_AF);
 800347c:	f46f 6180 	mvn.w	r1, #1024	; 0x400
 8003480:	6161      	str	r1, [r4, #20]
    hi2c->PreviousState       = I2C_STATE_NONE;
 8003482:	6332      	str	r2, [r6, #48]	; 0x30
    hi2c->State               = HAL_I2C_STATE_READY;
 8003484:	f886 303d 	strb.w	r3, [r6, #61]	; 0x3d
    hi2c->Mode                = HAL_I2C_MODE_NONE;
 8003488:	f886 203e 	strb.w	r2, [r6, #62]	; 0x3e
    hi2c->ErrorCode           |= HAL_I2C_ERROR_AF;
 800348c:	6c33      	ldr	r3, [r6, #64]	; 0x40
    __HAL_UNLOCK(hi2c);
 800348e:	f886 203c 	strb.w	r2, [r6, #60]	; 0x3c
    hi2c->ErrorCode           |= HAL_I2C_ERROR_AF;
 8003492:	f043 0304 	orr.w	r3, r3, #4
 8003496:	6433      	str	r3, [r6, #64]	; 0x40
    if (hi2c->ErrorCode == HAL_I2C_ERROR_AF)
 8003498:	6c33      	ldr	r3, [r6, #64]	; 0x40
 800349a:	2b04      	cmp	r3, #4
 800349c:	d06c      	beq.n	8003578 <I2C_RequestMemoryRead+0x174>
    return HAL_ERROR;
 800349e:	2001      	movs	r0, #1
}
 80034a0:	b003      	add	sp, #12
 80034a2:	e8bd 8ff0 	ldmia.w	sp!, {r4, r5, r6, r7, r8, r9, sl, fp, pc}
  while (__HAL_I2C_GET_FLAG(hi2c, Flag) == Status)
 80034a6:	6963      	ldr	r3, [r4, #20]
 80034a8:	07dd      	lsls	r5, r3, #31
 80034aa:	d4c5      	bmi.n	8003438 <I2C_RequestMemoryRead+0x34>
      if (((HAL_GetTick() - Tickstart) > Timeout) || (Timeout == 0U))
 80034ac:	f7ff fb34 	bl	8002b18 <HAL_GetTick>
 80034b0:	eba0 0009 	sub.w	r0, r0, r9
 80034b4:	4582      	cmp	sl, r0
 80034b6:	d304      	bcc.n	80034c2 <I2C_RequestMemoryRead+0xbe>
 80034b8:	f1ba 0f00 	cmp.w	sl, #0
 80034bc:	d001      	beq.n	80034c2 <I2C_RequestMemoryRead+0xbe>
  while (__HAL_I2C_GET_FLAG(hi2c, Flag) == Status)
 80034be:	6834      	ldr	r4, [r6, #0]
 80034c0:	e7b4      	b.n	800342c <I2C_RequestMemoryRead+0x28>
        hi2c->PreviousState     = I2C_STATE_NONE;
 80034c2:	2300      	movs	r3, #0
        hi2c->State             = HAL_I2C_STATE_READY;
 80034c4:	2220      	movs	r2, #32
        hi2c->PreviousState     = I2C_STATE_NONE;
 80034c6:	6333      	str	r3, [r6, #48]	; 0x30
        hi2c->State             = HAL_I2C_STATE_READY;
 80034c8:	f886 203d 	strb.w	r2, [r6, #61]	; 0x3d
        hi2c->Mode              = HAL_I2C_MODE_NONE;
 80034cc:	f886 303e 	strb.w	r3, [r6, #62]	; 0x3e
        hi2c->ErrorCode         |= HAL_I2C_ERROR_TIMEOUT;
 80034d0:	6c32      	ldr	r2, [r6, #64]	; 0x40
    if (READ_BIT(hi2c->Instance->CR1, I2C_CR1_START) == I2C_CR1_START)
 80034d2:	6831      	ldr	r1, [r6, #0]
        __HAL_UNLOCK(hi2c);
 80034d4:	f886 303c 	strb.w	r3, [r6, #60]	; 0x3c
        hi2c->ErrorCode         |= HAL_I2C_ERROR_TIMEOUT;
 80034d8:	f042 0220 	orr.w	r2, r2, #32
 80034dc:	6432      	str	r2, [r6, #64]	; 0x40
    if (READ_BIT(hi2c->Instance->CR1, I2C_CR1_START) == I2C_CR1_START)
 80034de:	680b      	ldr	r3, [r1, #0]
 80034e0:	05dc      	lsls	r4, r3, #23
 80034e2:	d502      	bpl.n	80034ea <I2C_RequestMemoryRead+0xe6>
      hi2c->ErrorCode = HAL_I2C_WRONG_START;
 80034e4:	f44f 7300 	mov.w	r3, #512	; 0x200
 80034e8:	6433      	str	r3, [r6, #64]	; 0x40
    return HAL_TIMEOUT;
 80034ea:	2003      	movs	r0, #3
}
 80034ec:	b003      	add	sp, #12
 80034ee:	e8bd 8ff0 	ldmia.w	sp!, {r4, r5, r6, r7, r8, r9, sl, fp, pc}
      SET_BIT(hi2c->Instance->CR1, I2C_CR1_STOP);
 80034f2:	6823      	ldr	r3, [r4, #0]
 80034f4:	f443 7300 	orr.w	r3, r3, #512	; 0x200
 80034f8:	6023      	str	r3, [r4, #0]
      hi2c->PreviousState       = I2C_STATE_NONE;
 80034fa:	2200      	movs	r2, #0
      hi2c->State               = HAL_I2C_STATE_READY;
 80034fc:	2320      	movs	r3, #32
      __HAL_I2C_CLEAR_FLAG(hi2c, I2C_FLAG_AF);
 80034fe:	f46f 6180 	mvn.w	r1, #1024	; 0x400
 8003502:	6161      	str	r1, [r4, #20]
      hi2c->PreviousState       = I2C_STATE_NONE;
 8003504:	6332      	str	r2, [r6, #48]	; 0x30
      hi2c->State               = HAL_I2C_STATE_READY;
 8003506:	f886 303d 	strb.w	r3, [r6, #61]	; 0x3d
      hi2c->Mode                = HAL_I2C_MODE_NONE;
 800350a:	f886 203e 	strb.w	r2, [r6, #62]	; 0x3e
      hi2c->ErrorCode           |= HAL_I2C_ERROR_AF;
 800350e:	6c33      	ldr	r3, [r6, #64]	; 0x40
      __HAL_UNLOCK(hi2c);
 8003510:	f886 203c 	strb.w	r2, [r6, #60]	; 0x3c
      hi2c->ErrorCode           |= HAL_I2C_ERROR_AF;
 8003514:	f043 0304 	orr.w	r3, r3, #4
 8003518:	6433      	str	r3, [r6, #64]	; 0x40
 800351a:	e7c0      	b.n	800349e <I2C_RequestMemoryRead+0x9a>
  while (__HAL_I2C_GET_FLAG(hi2c, Flag) == RESET)
 800351c:	6963      	ldr	r3, [r4, #20]
 800351e:	079b      	lsls	r3, r3, #30
 8003520:	d499      	bmi.n	8003456 <I2C_RequestMemoryRead+0x52>
    if (__HAL_I2C_GET_FLAG(hi2c, I2C_FLAG_AF) == SET)
 8003522:	6963      	ldr	r3, [r4, #20]
 8003524:	0558      	lsls	r0, r3, #21
 8003526:	d4e4      	bmi.n	80034f2 <I2C_RequestMemoryRead+0xee>
      if (((HAL_GetTick() - Tickstart) > Timeout) || (Timeout == 0U))
 8003528:	f7ff faf6 	bl	8002b18 <HAL_GetTick>
 800352c:	eba0 0009 	sub.w	r0, r0, r9
 8003530:	4582      	cmp	sl, r0
 8003532:	f0c0 808b 	bcc.w	800364c <I2C_RequestMemoryRead+0x248>
 8003536:	f1ba 0f00 	cmp.w	sl, #0
 800353a:	f000 8087 	beq.w	800364c <I2C_RequestMemoryRead+0x248>
  while (__HAL_I2C_GET_FLAG(hi2c, Flag) == RESET)
 800353e:	6834      	ldr	r4, [r6, #0]
 8003540:	e77f      	b.n	8003442 <I2C_RequestMemoryRead+0x3e>
  if (MemAddSize == I2C_MEMADD_SIZE_8BIT)
 8003542:	f1b8 0f01 	cmp.w	r8, #1
 8003546:	d10b      	bne.n	8003560 <I2C_RequestMemoryRead+0x15c>
    hi2c->Instance->DR = I2C_MEM_ADD_LSB(MemAddress);
 8003548:	b2ff      	uxtb	r7, r7
 800354a:	6127      	str	r7, [r4, #16]
 800354c:	f1ba 3fff 	cmp.w	sl, #4294967295
 8003550:	d16a      	bne.n	8003628 <I2C_RequestMemoryRead+0x224>
  while (__HAL_I2C_GET_FLAG(hi2c, I2C_FLAG_TXE) == RESET)
 8003552:	6963      	ldr	r3, [r4, #20]
 8003554:	061b      	lsls	r3, r3, #24
 8003556:	d416      	bmi.n	8003586 <I2C_RequestMemoryRead+0x182>
  if (__HAL_I2C_GET_FLAG(hi2c, I2C_FLAG_AF) == SET)
 8003558:	6963      	ldr	r3, [r4, #20]
 800355a:	055f      	lsls	r7, r3, #21
 800355c:	d5f9      	bpl.n	8003552 <I2C_RequestMemoryRead+0x14e>
 800355e:	e78b      	b.n	8003478 <I2C_RequestMemoryRead+0x74>
    hi2c->Instance->DR = I2C_MEM_ADD_MSB(MemAddress);
 8003560:	0a3b      	lsrs	r3, r7, #8
 8003562:	6123      	str	r3, [r4, #16]
  while (__HAL_I2C_GET_FLAG(hi2c, I2C_FLAG_TXE) == RESET)
 8003564:	f1ba 3fff 	cmp.w	sl, #4294967295
 8003568:	d17f      	bne.n	800366a <I2C_RequestMemoryRead+0x266>
 800356a:	6963      	ldr	r3, [r4, #20]
 800356c:	061d      	lsls	r5, r3, #24
 800356e:	d4eb      	bmi.n	8003548 <I2C_RequestMemoryRead+0x144>
  if (__HAL_I2C_GET_FLAG(hi2c, I2C_FLAG_AF) == SET)
 8003570:	6963      	ldr	r3, [r4, #20]
 8003572:	0558      	lsls	r0, r3, #21
 8003574:	d5f9      	bpl.n	800356a <I2C_RequestMemoryRead+0x166>
 8003576:	e77f      	b.n	8003478 <I2C_RequestMemoryRead+0x74>
      SET_BIT(hi2c->Instance->CR1, I2C_CR1_STOP);
 8003578:	6832      	ldr	r2, [r6, #0]
 800357a:	6813      	ldr	r3, [r2, #0]
 800357c:	f443 7300 	orr.w	r3, r3, #512	; 0x200
    return HAL_ERROR;
 8003580:	2001      	movs	r0, #1
      SET_BIT(hi2c->Instance->CR1, I2C_CR1_STOP);
 8003582:	6013      	str	r3, [r2, #0]
 8003584:	e78c      	b.n	80034a0 <I2C_RequestMemoryRead+0x9c>
  SET_BIT(hi2c->Instance->CR1, I2C_CR1_START);
 8003586:	6823      	ldr	r3, [r4, #0]
 8003588:	f443 7380 	orr.w	r3, r3, #256	; 0x100
 800358c:	6023      	str	r3, [r4, #0]
static HAL_StatusTypeDef I2C_WaitOnFlagUntilTimeout(I2C_HandleTypeDef *hi2c, uint32_t Flag, FlagStatus Status, uint32_t Timeout, uint32_t Tickstart)
 800358e:	f1ba 3fff 	cmp.w	sl, #4294967295
 8003592:	d113      	bne.n	80035bc <I2C_RequestMemoryRead+0x1b8>
  while (__HAL_I2C_GET_FLAG(hi2c, Flag) == Status)
 8003594:	6963      	ldr	r3, [r4, #20]
 8003596:	07d8      	lsls	r0, r3, #31
 8003598:	d5fc      	bpl.n	8003594 <I2C_RequestMemoryRead+0x190>
  hi2c->Instance->DR = I2C_7BIT_ADD_READ(DevAddress);
 800359a:	f04b 0301 	orr.w	r3, fp, #1
 800359e:	6123      	str	r3, [r4, #16]
static HAL_StatusTypeDef I2C_WaitOnMasterAddressFlagUntilTimeout(I2C_HandleTypeDef *hi2c, uint32_t Flag, uint32_t Timeout, uint32_t Tickstart)
 80035a0:	f1ba 3fff 	cmp.w	sl, #4294967295
 80035a4:	d003      	beq.n	80035ae <I2C_RequestMemoryRead+0x1aa>
 80035a6:	e02b      	b.n	8003600 <I2C_RequestMemoryRead+0x1fc>
    if (__HAL_I2C_GET_FLAG(hi2c, I2C_FLAG_AF) == SET)
 80035a8:	6963      	ldr	r3, [r4, #20]
 80035aa:	055b      	lsls	r3, r3, #21
 80035ac:	d4a1      	bmi.n	80034f2 <I2C_RequestMemoryRead+0xee>
  while (__HAL_I2C_GET_FLAG(hi2c, Flag) == RESET)
 80035ae:	6963      	ldr	r3, [r4, #20]
 80035b0:	43db      	mvns	r3, r3
 80035b2:	f013 0302 	ands.w	r3, r3, #2
 80035b6:	d1f7      	bne.n	80035a8 <I2C_RequestMemoryRead+0x1a4>
  return HAL_OK;
 80035b8:	4618      	mov	r0, r3
 80035ba:	e771      	b.n	80034a0 <I2C_RequestMemoryRead+0x9c>
  while (__HAL_I2C_GET_FLAG(hi2c, Flag) == Status)
 80035bc:	6963      	ldr	r3, [r4, #20]
 80035be:	07d9      	lsls	r1, r3, #31
 80035c0:	d4eb      	bmi.n	800359a <I2C_RequestMemoryRead+0x196>
      if (((HAL_GetTick() - Tickstart) > Timeout) || (Timeout == 0U))
 80035c2:	f7ff faa9 	bl	8002b18 <HAL_GetTick>
 80035c6:	eba0 0009 	sub.w	r0, r0, r9
 80035ca:	4582      	cmp	sl, r0
 80035cc:	f4ff af79 	bcc.w	80034c2 <I2C_RequestMemoryRead+0xbe>
 80035d0:	f1ba 0f00 	cmp.w	sl, #0
 80035d4:	f43f af75 	beq.w	80034c2 <I2C_RequestMemoryRead+0xbe>
  while (__HAL_I2C_GET_FLAG(hi2c, Flag) == Status)
 80035d8:	6834      	ldr	r4, [r6, #0]
 80035da:	e7d8      	b.n	800358e <I2C_RequestMemoryRead+0x18a>
  while (__HAL_I2C_GET_FLAG(hi2c, I2C_FLAG_TXE) == RESET)
 80035dc:	6963      	ldr	r3, [r4, #20]
 80035de:	061a      	lsls	r2, r3, #24
 80035e0:	d4af      	bmi.n	8003542 <I2C_RequestMemoryRead+0x13e>
  if (__HAL_I2C_GET_FLAG(hi2c, I2C_FLAG_AF) == SET)
 80035e2:	6963      	ldr	r3, [r4, #20]
 80035e4:	055d      	lsls	r5, r3, #21
 80035e6:	f53f af47 	bmi.w	8003478 <I2C_RequestMemoryRead+0x74>
      if (((HAL_GetTick() - Tickstart) > Timeout) || (Timeout == 0U))
 80035ea:	f7ff fa95 	bl	8002b18 <HAL_GetTick>
 80035ee:	eba0 0009 	sub.w	r0, r0, r9
 80035f2:	4582      	cmp	sl, r0
 80035f4:	d34c      	bcc.n	8003690 <I2C_RequestMemoryRead+0x28c>
 80035f6:	f1ba 0f00 	cmp.w	sl, #0
 80035fa:	d049      	beq.n	8003690 <I2C_RequestMemoryRead+0x28c>
  while (__HAL_I2C_GET_FLAG(hi2c, I2C_FLAG_TXE) == RESET)
 80035fc:	6834      	ldr	r4, [r6, #0]
 80035fe:	e731      	b.n	8003464 <I2C_RequestMemoryRead+0x60>
  while (__HAL_I2C_GET_FLAG(hi2c, Flag) == RESET)
 8003600:	6963      	ldr	r3, [r4, #20]
 8003602:	43db      	mvns	r3, r3
 8003604:	f013 0302 	ands.w	r3, r3, #2
 8003608:	d0d6      	beq.n	80035b8 <I2C_RequestMemoryRead+0x1b4>
    if (__HAL_I2C_GET_FLAG(hi2c, I2C_FLAG_AF) == SET)
 800360a:	6963      	ldr	r3, [r4, #20]
 800360c:	055a      	lsls	r2, r3, #21
 800360e:	f53f af70 	bmi.w	80034f2 <I2C_RequestMemoryRead+0xee>
      if (((HAL_GetTick() - Tickstart) > Timeout) || (Timeout == 0U))
 8003612:	f7ff fa81 	bl	8002b18 <HAL_GetTick>
 8003616:	eba0 0009 	sub.w	r0, r0, r9
 800361a:	4582      	cmp	sl, r0
 800361c:	d316      	bcc.n	800364c <I2C_RequestMemoryRead+0x248>
 800361e:	f1ba 0f00 	cmp.w	sl, #0
 8003622:	d013      	beq.n	800364c <I2C_RequestMemoryRead+0x248>
  while (__HAL_I2C_GET_FLAG(hi2c, Flag) == RESET)
 8003624:	6834      	ldr	r4, [r6, #0]
 8003626:	e7bb      	b.n	80035a0 <I2C_RequestMemoryRead+0x19c>
  while (__HAL_I2C_GET_FLAG(hi2c, I2C_FLAG_TXE) == RESET)
 8003628:	6963      	ldr	r3, [r4, #20]
 800362a:	061d      	lsls	r5, r3, #24
 800362c:	d4ab      	bmi.n	8003586 <I2C_RequestMemoryRead+0x182>
  if (__HAL_I2C_GET_FLAG(hi2c, I2C_FLAG_AF) == SET)
 800362e:	6963      	ldr	r3, [r4, #20]
 8003630:	055a      	lsls	r2, r3, #21
 8003632:	f53f af21 	bmi.w	8003478 <I2C_RequestMemoryRead+0x74>
      if (((HAL_GetTick() - Tickstart) > Timeout) || (Timeout == 0U))
 8003636:	f7ff fa6f 	bl	8002b18 <HAL_GetTick>
 800363a:	eba0 0009 	sub.w	r0, r0, r9
 800363e:	4582      	cmp	sl, r0
 8003640:	d326      	bcc.n	8003690 <I2C_RequestMemoryRead+0x28c>
 8003642:	f1ba 0f00 	cmp.w	sl, #0
 8003646:	d023      	beq.n	8003690 <I2C_RequestMemoryRead+0x28c>
  while (__HAL_I2C_GET_FLAG(hi2c, I2C_FLAG_TXE) == RESET)
 8003648:	6834      	ldr	r4, [r6, #0]
 800364a:	e77f      	b.n	800354c <I2C_RequestMemoryRead+0x148>
        hi2c->PreviousState       = I2C_STATE_NONE;
 800364c:	2200      	movs	r2, #0
        hi2c->State               = HAL_I2C_STATE_READY;
 800364e:	2320      	movs	r3, #32
        hi2c->PreviousState       = I2C_STATE_NONE;
 8003650:	6332      	str	r2, [r6, #48]	; 0x30
        hi2c->State               = HAL_I2C_STATE_READY;
 8003652:	f886 303d 	strb.w	r3, [r6, #61]	; 0x3d
        hi2c->Mode                = HAL_I2C_MODE_NONE;
 8003656:	f886 203e 	strb.w	r2, [r6, #62]	; 0x3e
        hi2c->ErrorCode           |= HAL_I2C_ERROR_TIMEOUT;
 800365a:	6c33      	ldr	r3, [r6, #64]	; 0x40
        __HAL_UNLOCK(hi2c);
 800365c:	f886 203c 	strb.w	r2, [r6, #60]	; 0x3c
        hi2c->ErrorCode           |= HAL_I2C_ERROR_TIMEOUT;
 8003660:	f043 0320 	orr.w	r3, r3, #32
 8003664:	6433      	str	r3, [r6, #64]	; 0x40
    return HAL_ERROR;
 8003666:	2001      	movs	r0, #1
 8003668:	e71a      	b.n	80034a0 <I2C_RequestMemoryRead+0x9c>
  while (__HAL_I2C_GET_FLAG(hi2c, I2C_FLAG_TXE) == RESET)
 800366a:	6963      	ldr	r3, [r4, #20]
 800366c:	0619      	lsls	r1, r3, #24
 800366e:	f53f af6b 	bmi.w	8003548 <I2C_RequestMemoryRead+0x144>
  if (__HAL_I2C_GET_FLAG(hi2c, I2C_FLAG_AF) == SET)
 8003672:	6963      	ldr	r3, [r4, #20]
 8003674:	055b      	lsls	r3, r3, #21
 8003676:	f53f aeff 	bmi.w	8003478 <I2C_RequestMemoryRead+0x74>
      if (((HAL_GetTick() - Tickstart) > Timeout) || (Timeout == 0U))
 800367a:	f7ff fa4d 	bl	8002b18 <HAL_GetTick>
 800367e:	eba0 0009 	sub.w	r0, r0, r9
 8003682:	4582      	cmp	sl, r0
 8003684:	d304      	bcc.n	8003690 <I2C_RequestMemoryRead+0x28c>
 8003686:	f1ba 0f00 	cmp.w	sl, #0
 800368a:	d001      	beq.n	8003690 <I2C_RequestMemoryRead+0x28c>
  while (__HAL_I2C_GET_FLAG(hi2c, I2C_FLAG_TXE) == RESET)
 800368c:	6834      	ldr	r4, [r6, #0]
 800368e:	e769      	b.n	8003564 <I2C_RequestMemoryRead+0x160>
        hi2c->PreviousState     = I2C_STATE_NONE;
 8003690:	2200      	movs	r2, #0
        hi2c->State             = HAL_I2C_STATE_READY;
 8003692:	2320      	movs	r3, #32
        hi2c->PreviousState     = I2C_STATE_NONE;
 8003694:	6332      	str	r2, [r6, #48]	; 0x30
        hi2c->State             = HAL_I2C_STATE_READY;
 8003696:	f886 303d 	strb.w	r3, [r6, #61]	; 0x3d
        hi2c->Mode              = HAL_I2C_MODE_NONE;
 800369a:	f886 203e 	strb.w	r2, [r6, #62]	; 0x3e
        hi2c->ErrorCode         |= HAL_I2C_ERROR_TIMEOUT;
 800369e:	6c33      	ldr	r3, [r6, #64]	; 0x40
        __HAL_UNLOCK(hi2c);
 80036a0:	f886 203c 	strb.w	r2, [r6, #60]	; 0x3c
        hi2c->ErrorCode         |= HAL_I2C_ERROR_TIMEOUT;
 80036a4:	f043 0320 	orr.w	r3, r3, #32
 80036a8:	6433      	str	r3, [r6, #64]	; 0x40
        return HAL_ERROR;
 80036aa:	e6f5      	b.n	8003498 <I2C_RequestMemoryRead+0x94>

080036ac <HAL_I2C_Init>:
  if (hi2c == NULL)
 80036ac:	2800      	cmp	r0, #0
 80036ae:	f000 80b9 	beq.w	8003824 <HAL_I2C_Init+0x178>
{
 80036b2:	b570      	push	{r4, r5, r6, lr}
  if (hi2c->State == HAL_I2C_STATE_RESET)
 80036b4:	f890 303d 	ldrb.w	r3, [r0, #61]	; 0x3d
 80036b8:	4604      	mov	r4, r0
 80036ba:	f003 02ff 	and.w	r2, r3, #255	; 0xff
 80036be:	2b00      	cmp	r3, #0
 80036c0:	f000 8098 	beq.w	80037f4 <HAL_I2C_Init+0x148>
  __HAL_I2C_DISABLE(hi2c);
 80036c4:	6823      	ldr	r3, [r4, #0]
  hi2c->State = HAL_I2C_STATE_BUSY;
 80036c6:	2224      	movs	r2, #36	; 0x24
 80036c8:	f884 203d 	strb.w	r2, [r4, #61]	; 0x3d
  __HAL_I2C_DISABLE(hi2c);
 80036cc:	681a      	ldr	r2, [r3, #0]
 80036ce:	f022 0201 	bic.w	r2, r2, #1
 80036d2:	601a      	str	r2, [r3, #0]
  hi2c->Instance->CR1 |= I2C_CR1_SWRST;
 80036d4:	681a      	ldr	r2, [r3, #0]
 80036d6:	f442 4200 	orr.w	r2, r2, #32768	; 0x8000
 80036da:	601a      	str	r2, [r3, #0]
  hi2c->Instance->CR1 &= ~I2C_CR1_SWRST;
 80036dc:	681a      	ldr	r2, [r3, #0]
 80036de:	f422 4200 	bic.w	r2, r2, #32768	; 0x8000
 80036e2:	601a      	str	r2, [r3, #0]
  pclk1 = HAL_RCC_GetPCLK1Freq();
 80036e4:	f001 fd22 	bl	800512c <HAL_RCC_GetPCLK1Freq>
  if (I2C_MIN_PCLK_FREQ(pclk1, hi2c->Init.ClockSpeed) == 1U)
 80036e8:	6863      	ldr	r3, [r4, #4]
 80036ea:	494f      	ldr	r1, [pc, #316]	; (8003828 <HAL_I2C_Init+0x17c>)
 80036ec:	428b      	cmp	r3, r1
 80036ee:	d84f      	bhi.n	8003790 <HAL_I2C_Init+0xe4>
 80036f0:	4a4e      	ldr	r2, [pc, #312]	; (800382c <HAL_I2C_Init+0x180>)
 80036f2:	4290      	cmp	r0, r2
 80036f4:	d97c      	bls.n	80037f0 <HAL_I2C_Init+0x144>
  freqrange = I2C_FREQRANGE(pclk1);
 80036f6:	4d4e      	ldr	r5, [pc, #312]	; (8003830 <HAL_I2C_Init+0x184>)
  MODIFY_REG(hi2c->Instance->CCR, (I2C_CCR_FS | I2C_CCR_DUTY | I2C_CCR_CCR), I2C_SPEED(pclk1, hi2c->Init.ClockSpeed, hi2c->Init.DutyCycle));
 80036f8:	005a      	lsls	r2, r3, #1
  freqrange = I2C_FREQRANGE(pclk1);
 80036fa:	fba5 3500 	umull	r3, r5, r5, r0
  MODIFY_REG(hi2c->Instance->CCR, (I2C_CCR_FS | I2C_CCR_DUTY | I2C_CCR_CCR), I2C_SPEED(pclk1, hi2c->Init.ClockSpeed, hi2c->Init.DutyCycle));
 80036fe:	1e43      	subs	r3, r0, #1
 8003700:	fbb3 f3f2 	udiv	r3, r3, r2
  MODIFY_REG(hi2c->Instance->CR2, I2C_CR2_FREQ, freqrange);
 8003704:	6822      	ldr	r2, [r4, #0]
 8003706:	6850      	ldr	r0, [r2, #4]
 8003708:	f020 003f 	bic.w	r0, r0, #63	; 0x3f
 800370c:	ea40 4095 	orr.w	r0, r0, r5, lsr #18
 8003710:	6050      	str	r0, [r2, #4]
  freqrange = I2C_FREQRANGE(pclk1);
 8003712:	0ca9      	lsrs	r1, r5, #18
  MODIFY_REG(hi2c->Instance->TRISE, I2C_TRISE_TRISE, I2C_RISE_TIME(freqrange, hi2c->Init.ClockSpeed));
 8003714:	f101 0c01 	add.w	ip, r1, #1
 8003718:	6a11      	ldr	r1, [r2, #32]
 800371a:	f021 013f 	bic.w	r1, r1, #63	; 0x3f
 800371e:	ea41 010c 	orr.w	r1, r1, ip
 8003722:	6211      	str	r1, [r2, #32]
  MODIFY_REG(hi2c->Instance->CCR, (I2C_CCR_FS | I2C_CCR_DUTY | I2C_CCR_CCR), I2C_SPEED(pclk1, hi2c->Init.ClockSpeed, hi2c->Init.DutyCycle));
 8003724:	69d1      	ldr	r1, [r2, #28]
 8003726:	f640 7efc 	movw	lr, #4092	; 0xffc
 800372a:	3301      	adds	r3, #1
 800372c:	f421 414f 	bic.w	r1, r1, #52992	; 0xcf00
 8003730:	ea13 0f0e 	tst.w	r3, lr
 8003734:	f021 01ff 	bic.w	r1, r1, #255	; 0xff
 8003738:	d161      	bne.n	80037fe <HAL_I2C_Init+0x152>
 800373a:	2304      	movs	r3, #4
 800373c:	430b      	orrs	r3, r1
 800373e:	61d3      	str	r3, [r2, #28]
  MODIFY_REG(hi2c->Instance->CR1, (I2C_CR1_ENGC | I2C_CR1_NOSTRETCH), (hi2c->Init.GeneralCallMode | hi2c->Init.NoStretchMode));
 8003740:	e9d4 3007 	ldrd	r3, r0, [r4, #28]
 8003744:	6811      	ldr	r1, [r2, #0]
 8003746:	4303      	orrs	r3, r0
 8003748:	f021 01c0 	bic.w	r1, r1, #192	; 0xc0
 800374c:	430b      	orrs	r3, r1
 800374e:	6013      	str	r3, [r2, #0]
  MODIFY_REG(hi2c->Instance->OAR1, (I2C_OAR1_ADDMODE | I2C_OAR1_ADD8_9 | I2C_OAR1_ADD1_7 | I2C_OAR1_ADD0), (hi2c->Init.AddressingMode | hi2c->Init.OwnAddress1));
 8003750:	6891      	ldr	r1, [r2, #8]
 8003752:	e9d4 0303 	ldrd	r0, r3, [r4, #12]
 8003756:	f421 4103 	bic.w	r1, r1, #33536	; 0x8300
 800375a:	4303      	orrs	r3, r0
 800375c:	f021 01ff 	bic.w	r1, r1, #255	; 0xff
 8003760:	430b      	orrs	r3, r1
 8003762:	6093      	str	r3, [r2, #8]
  MODIFY_REG(hi2c->Instance->OAR2, (I2C_OAR2_ENDUAL | I2C_OAR2_ADD2), (hi2c->Init.DualAddressMode | hi2c->Init.OwnAddress2));
 8003764:	e9d4 3005 	ldrd	r3, r0, [r4, #20]
 8003768:	68d1      	ldr	r1, [r2, #12]
 800376a:	4303      	orrs	r3, r0
 800376c:	f021 01ff 	bic.w	r1, r1, #255	; 0xff
 8003770:	430b      	orrs	r3, r1
 8003772:	60d3      	str	r3, [r2, #12]
  __HAL_I2C_ENABLE(hi2c);
 8003774:	6811      	ldr	r1, [r2, #0]
  hi2c->ErrorCode = HAL_I2C_ERROR_NONE;
 8003776:	2300      	movs	r3, #0
  __HAL_I2C_ENABLE(hi2c);
 8003778:	f041 0101 	orr.w	r1, r1, #1
  hi2c->State = HAL_I2C_STATE_READY;
 800377c:	2020      	movs	r0, #32
  __HAL_I2C_ENABLE(hi2c);
 800377e:	6011      	str	r1, [r2, #0]
  hi2c->ErrorCode = HAL_I2C_ERROR_NONE;
 8003780:	6423      	str	r3, [r4, #64]	; 0x40
  hi2c->State = HAL_I2C_STATE_READY;
 8003782:	f884 003d 	strb.w	r0, [r4, #61]	; 0x3d
  hi2c->PreviousState = I2C_STATE_NONE;
 8003786:	6323      	str	r3, [r4, #48]	; 0x30
  hi2c->Mode = HAL_I2C_MODE_NONE;
 8003788:	f884 303e 	strb.w	r3, [r4, #62]	; 0x3e
  return HAL_OK;
 800378c:	4618      	mov	r0, r3
}
 800378e:	bd70      	pop	{r4, r5, r6, pc}
  if (I2C_MIN_PCLK_FREQ(pclk1, hi2c->Init.ClockSpeed) == 1U)
 8003790:	4a28      	ldr	r2, [pc, #160]	; (8003834 <HAL_I2C_Init+0x188>)
 8003792:	4290      	cmp	r0, r2
 8003794:	d92c      	bls.n	80037f0 <HAL_I2C_Init+0x144>
  freqrange = I2C_FREQRANGE(pclk1);
 8003796:	4d26      	ldr	r5, [pc, #152]	; (8003830 <HAL_I2C_Init+0x184>)
  MODIFY_REG(hi2c->Instance->TRISE, I2C_TRISE_TRISE, I2C_RISE_TIME(freqrange, hi2c->Init.ClockSpeed));
 8003798:	4e27      	ldr	r6, [pc, #156]	; (8003838 <HAL_I2C_Init+0x18c>)
  freqrange = I2C_FREQRANGE(pclk1);
 800379a:	fba5 2c00 	umull	r2, ip, r5, r0
  MODIFY_REG(hi2c->Instance->CR2, I2C_CR2_FREQ, freqrange);
 800379e:	6822      	ldr	r2, [r4, #0]
 80037a0:	6855      	ldr	r5, [r2, #4]
 80037a2:	f025 053f 	bic.w	r5, r5, #63	; 0x3f
 80037a6:	ea45 459c 	orr.w	r5, r5, ip, lsr #18
 80037aa:	6055      	str	r5, [r2, #4]
  freqrange = I2C_FREQRANGE(pclk1);
 80037ac:	ea4f 419c 	mov.w	r1, ip, lsr #18
  MODIFY_REG(hi2c->Instance->TRISE, I2C_TRISE_TRISE, I2C_RISE_TIME(freqrange, hi2c->Init.ClockSpeed));
 80037b0:	f44f 7596 	mov.w	r5, #300	; 0x12c
 80037b4:	fb05 f101 	mul.w	r1, r5, r1
 80037b8:	fba6 5101 	umull	r5, r1, r6, r1
 80037bc:	6a15      	ldr	r5, [r2, #32]
 80037be:	0989      	lsrs	r1, r1, #6
 80037c0:	f025 053f 	bic.w	r5, r5, #63	; 0x3f
 80037c4:	3101      	adds	r1, #1
 80037c6:	4329      	orrs	r1, r5
 80037c8:	6211      	str	r1, [r2, #32]
  MODIFY_REG(hi2c->Instance->CCR, (I2C_CCR_FS | I2C_CCR_DUTY | I2C_CCR_CCR), I2C_SPEED(pclk1, hi2c->Init.ClockSpeed, hi2c->Init.DutyCycle));
 80037ca:	69d1      	ldr	r1, [r2, #28]
 80037cc:	68a5      	ldr	r5, [r4, #8]
 80037ce:	f421 414f 	bic.w	r1, r1, #52992	; 0xcf00
 80037d2:	f021 01ff 	bic.w	r1, r1, #255	; 0xff
 80037d6:	b9ad      	cbnz	r5, 8003804 <HAL_I2C_Init+0x158>
 80037d8:	3801      	subs	r0, #1
 80037da:	eb03 0343 	add.w	r3, r3, r3, lsl #1
 80037de:	fbb0 f3f3 	udiv	r3, r0, r3
 80037e2:	3301      	adds	r3, #1
 80037e4:	f3c3 030b 	ubfx	r3, r3, #0, #12
 80037e8:	b1d3      	cbz	r3, 8003820 <HAL_I2C_Init+0x174>
 80037ea:	f443 4300 	orr.w	r3, r3, #32768	; 0x8000
 80037ee:	e7a5      	b.n	800373c <HAL_I2C_Init+0x90>
    return HAL_ERROR;
 80037f0:	2001      	movs	r0, #1
}
 80037f2:	bd70      	pop	{r4, r5, r6, pc}
    hi2c->Lock = HAL_UNLOCKED;
 80037f4:	f880 203c 	strb.w	r2, [r0, #60]	; 0x3c
    HAL_I2C_MspInit(hi2c);
 80037f8:	f7fe ff3c 	bl	8002674 <HAL_I2C_MspInit>
 80037fc:	e762      	b.n	80036c4 <HAL_I2C_Init+0x18>
  MODIFY_REG(hi2c->Instance->CCR, (I2C_CCR_FS | I2C_CCR_DUTY | I2C_CCR_CCR), I2C_SPEED(pclk1, hi2c->Init.ClockSpeed, hi2c->Init.DutyCycle));
 80037fe:	f3c3 030b 	ubfx	r3, r3, #0, #12
 8003802:	e79b      	b.n	800373c <HAL_I2C_Init+0x90>
 8003804:	eb03 0383 	add.w	r3, r3, r3, lsl #2
 8003808:	3801      	subs	r0, #1
 800380a:	eb03 0383 	add.w	r3, r3, r3, lsl #2
 800380e:	fbb0 f3f3 	udiv	r3, r0, r3
 8003812:	3301      	adds	r3, #1
 8003814:	f3c3 030b 	ubfx	r3, r3, #0, #12
 8003818:	b113      	cbz	r3, 8003820 <HAL_I2C_Init+0x174>
 800381a:	f443 4340 	orr.w	r3, r3, #49152	; 0xc000
 800381e:	e78d      	b.n	800373c <HAL_I2C_Init+0x90>
 8003820:	2301      	movs	r3, #1
 8003822:	e78b      	b.n	800373c <HAL_I2C_Init+0x90>
    return HAL_ERROR;
 8003824:	2001      	movs	r0, #1
}
 8003826:	4770      	bx	lr
 8003828:	000186a0 	.word	0x000186a0
 800382c:	001e847f 	.word	0x001e847f
 8003830:	431bde83 	.word	0x431bde83
 8003834:	003d08ff 	.word	0x003d08ff
 8003838:	10624dd3 	.word	0x10624dd3

0800383c <HAL_I2C_Mem_Write>:
{
 800383c:	e92d 4ff0 	stmdb	sp!, {r4, r5, r6, r7, r8, r9, sl, fp, lr}
 8003840:	4604      	mov	r4, r0
 8003842:	b083      	sub	sp, #12
 8003844:	4699      	mov	r9, r3
 8003846:	f8bd a034 	ldrh.w	sl, [sp, #52]	; 0x34
 800384a:	9e0e      	ldr	r6, [sp, #56]	; 0x38
 800384c:	460f      	mov	r7, r1
 800384e:	4690      	mov	r8, r2
  uint32_t tickstart = HAL_GetTick();
 8003850:	f7ff f962 	bl	8002b18 <HAL_GetTick>
  if (hi2c->State == HAL_I2C_STATE_READY)
 8003854:	f894 303d 	ldrb.w	r3, [r4, #61]	; 0x3d
 8003858:	2b20      	cmp	r3, #32
 800385a:	d004      	beq.n	8003866 <HAL_I2C_Mem_Write+0x2a>
      return HAL_BUSY;
 800385c:	2702      	movs	r7, #2
}
 800385e:	4638      	mov	r0, r7
 8003860:	b003      	add	sp, #12
 8003862:	e8bd 8ff0 	ldmia.w	sp!, {r4, r5, r6, r7, r8, r9, sl, fp, pc}
 8003866:	4605      	mov	r5, r0
 8003868:	e005      	b.n	8003876 <HAL_I2C_Mem_Write+0x3a>
      if (((HAL_GetTick() - Tickstart) > Timeout) || (Timeout == 0U))
 800386a:	f7ff f955 	bl	8002b18 <HAL_GetTick>
 800386e:	1b40      	subs	r0, r0, r5
 8003870:	2819      	cmp	r0, #25
 8003872:	f200 80aa 	bhi.w	80039ca <HAL_I2C_Mem_Write+0x18e>
  while (__HAL_I2C_GET_FLAG(hi2c, Flag) == Status)
 8003876:	6820      	ldr	r0, [r4, #0]
 8003878:	6983      	ldr	r3, [r0, #24]
 800387a:	ea6f 0c03 	mvn.w	ip, r3
 800387e:	f01c 0b02 	ands.w	fp, ip, #2
 8003882:	d0f2      	beq.n	800386a <HAL_I2C_Mem_Write+0x2e>
    __HAL_LOCK(hi2c);
 8003884:	f894 303c 	ldrb.w	r3, [r4, #60]	; 0x3c
 8003888:	2b01      	cmp	r3, #1
 800388a:	d0e7      	beq.n	800385c <HAL_I2C_Mem_Write+0x20>
 800388c:	2301      	movs	r3, #1
 800388e:	f884 303c 	strb.w	r3, [r4, #60]	; 0x3c
    if ((hi2c->Instance->CR1 & I2C_CR1_PE) != I2C_CR1_PE)
 8003892:	6803      	ldr	r3, [r0, #0]
 8003894:	07db      	lsls	r3, r3, #31
 8003896:	d571      	bpl.n	800397c <HAL_I2C_Mem_Write+0x140>
    if (I2C_RequestMemoryWrite(hi2c, DevAddress, MemAddress, MemAddSize, Timeout, tickstart) != HAL_OK)
 8003898:	4639      	mov	r1, r7
    CLEAR_BIT(hi2c->Instance->CR1, I2C_CR1_POS);
 800389a:	6807      	ldr	r7, [r0, #0]
 800389c:	f427 6700 	bic.w	r7, r7, #2048	; 0x800
 80038a0:	6007      	str	r7, [r0, #0]
    hi2c->pBuffPtr    = pData;
 80038a2:	980c      	ldr	r0, [sp, #48]	; 0x30
 80038a4:	6260      	str	r0, [r4, #36]	; 0x24
    hi2c->State     = HAL_I2C_STATE_BUSY_TX;
 80038a6:	2021      	movs	r0, #33	; 0x21
    if (I2C_RequestMemoryWrite(hi2c, DevAddress, MemAddress, MemAddSize, Timeout, tickstart) != HAL_OK)
 80038a8:	e9cd 6500 	strd	r6, r5, [sp]
    hi2c->State     = HAL_I2C_STATE_BUSY_TX;
 80038ac:	f884 003d 	strb.w	r0, [r4, #61]	; 0x3d
    hi2c->Mode      = HAL_I2C_MODE_MEM;
 80038b0:	2040      	movs	r0, #64	; 0x40
 80038b2:	f884 003e 	strb.w	r0, [r4, #62]	; 0x3e
    hi2c->ErrorCode = HAL_I2C_ERROR_NONE;
 80038b6:	2000      	movs	r0, #0
 80038b8:	6420      	str	r0, [r4, #64]	; 0x40
    hi2c->XferCount   = Size;
 80038ba:	f8a4 a02a 	strh.w	sl, [r4, #42]	; 0x2a
    hi2c->XferSize    = hi2c->XferCount;
 80038be:	8d60      	ldrh	r0, [r4, #42]	; 0x2a
 80038c0:	8520      	strh	r0, [r4, #40]	; 0x28
    hi2c->XferOptions = I2C_NO_OPTION_FRAME;
 80038c2:	4857      	ldr	r0, [pc, #348]	; (8003a20 <HAL_I2C_Mem_Write+0x1e4>)
 80038c4:	62e0      	str	r0, [r4, #44]	; 0x2c
    if (I2C_RequestMemoryWrite(hi2c, DevAddress, MemAddress, MemAddSize, Timeout, tickstart) != HAL_OK)
 80038c6:	464b      	mov	r3, r9
 80038c8:	4642      	mov	r2, r8
 80038ca:	4620      	mov	r0, r4
 80038cc:	f7ff fca4 	bl	8003218 <I2C_RequestMemoryWrite>
 80038d0:	4607      	mov	r7, r0
 80038d2:	b9f8      	cbnz	r0, 8003914 <HAL_I2C_Mem_Write+0xd8>
    while (hi2c->XferSize > 0U)
 80038d4:	8d23      	ldrh	r3, [r4, #40]	; 0x28
 80038d6:	2b00      	cmp	r3, #0
 80038d8:	f000 80a0 	beq.w	8003a1c <HAL_I2C_Mem_Write+0x1e0>
  while (__HAL_I2C_GET_FLAG(hi2c, I2C_FLAG_TXE) == RESET)
 80038dc:	6823      	ldr	r3, [r4, #0]
 80038de:	1c72      	adds	r2, r6, #1
 80038e0:	d158      	bne.n	8003994 <HAL_I2C_Mem_Write+0x158>
 80038e2:	695a      	ldr	r2, [r3, #20]
 80038e4:	0610      	lsls	r0, r2, #24
 80038e6:	d41a      	bmi.n	800391e <HAL_I2C_Mem_Write+0xe2>
  if (__HAL_I2C_GET_FLAG(hi2c, I2C_FLAG_AF) == SET)
 80038e8:	695a      	ldr	r2, [r3, #20]
 80038ea:	0551      	lsls	r1, r2, #21
 80038ec:	d5f9      	bpl.n	80038e2 <HAL_I2C_Mem_Write+0xa6>
    hi2c->PreviousState       = I2C_STATE_NONE;
 80038ee:	2200      	movs	r2, #0
    __HAL_I2C_CLEAR_FLAG(hi2c, I2C_FLAG_AF);
 80038f0:	f46f 6080 	mvn.w	r0, #1024	; 0x400
    hi2c->State               = HAL_I2C_STATE_READY;
 80038f4:	2120      	movs	r1, #32
    __HAL_I2C_CLEAR_FLAG(hi2c, I2C_FLAG_AF);
 80038f6:	6158      	str	r0, [r3, #20]
    hi2c->PreviousState       = I2C_STATE_NONE;
 80038f8:	6322      	str	r2, [r4, #48]	; 0x30
    hi2c->State               = HAL_I2C_STATE_READY;
 80038fa:	f884 103d 	strb.w	r1, [r4, #61]	; 0x3d
    hi2c->Mode                = HAL_I2C_MODE_NONE;
 80038fe:	f884 203e 	strb.w	r2, [r4, #62]	; 0x3e
    hi2c->ErrorCode           |= HAL_I2C_ERROR_AF;
 8003902:	6c23      	ldr	r3, [r4, #64]	; 0x40
    __HAL_UNLOCK(hi2c);
 8003904:	f884 203c 	strb.w	r2, [r4, #60]	; 0x3c
    hi2c->ErrorCode           |= HAL_I2C_ERROR_AF;
 8003908:	f043 0304 	orr.w	r3, r3, #4
 800390c:	6423      	str	r3, [r4, #64]	; 0x40
      if (hi2c->ErrorCode == HAL_I2C_ERROR_AF)
 800390e:	6c23      	ldr	r3, [r4, #64]	; 0x40
 8003910:	2b04      	cmp	r3, #4
 8003912:	d038      	beq.n	8003986 <HAL_I2C_Mem_Write+0x14a>
      return HAL_ERROR;
 8003914:	2701      	movs	r7, #1
}
 8003916:	4638      	mov	r0, r7
 8003918:	b003      	add	sp, #12
 800391a:	e8bd 8ff0 	ldmia.w	sp!, {r4, r5, r6, r7, r8, r9, sl, fp, pc}
      hi2c->Instance->DR = *hi2c->pBuffPtr;
 800391e:	f8d4 c024 	ldr.w	ip, [r4, #36]	; 0x24
      hi2c->XferSize--;
 8003922:	f8b4 e028 	ldrh.w	lr, [r4, #40]	; 0x28
      hi2c->Instance->DR = *hi2c->pBuffPtr;
 8003926:	4661      	mov	r1, ip
      hi2c->XferSize--;
 8003928:	f10e 30ff 	add.w	r0, lr, #4294967295
      hi2c->Instance->DR = *hi2c->pBuffPtr;
 800392c:	f811 2b01 	ldrb.w	r2, [r1], #1
 8003930:	611a      	str	r2, [r3, #16]
      hi2c->XferCount--;
 8003932:	8d62      	ldrh	r2, [r4, #42]	; 0x2a
      hi2c->pBuffPtr++;
 8003934:	6261      	str	r1, [r4, #36]	; 0x24
      hi2c->XferCount--;
 8003936:	3a01      	subs	r2, #1
 8003938:	b292      	uxth	r2, r2
 800393a:	8562      	strh	r2, [r4, #42]	; 0x2a
      hi2c->XferSize--;
 800393c:	b282      	uxth	r2, r0
      if ((__HAL_I2C_GET_FLAG(hi2c, I2C_FLAG_BTF) == SET) && (hi2c->XferSize != 0U))
 800393e:	6958      	ldr	r0, [r3, #20]
      hi2c->XferSize--;
 8003940:	8522      	strh	r2, [r4, #40]	; 0x28
      if ((__HAL_I2C_GET_FLAG(hi2c, I2C_FLAG_BTF) == SET) && (hi2c->XferSize != 0U))
 8003942:	0740      	lsls	r0, r0, #29
 8003944:	d517      	bpl.n	8003976 <HAL_I2C_Mem_Write+0x13a>
 8003946:	b942      	cbnz	r2, 800395a <HAL_I2C_Mem_Write+0x11e>
 8003948:	1c72      	adds	r2, r6, #1
 800394a:	d159      	bne.n	8003a00 <HAL_I2C_Mem_Write+0x1c4>
  while (__HAL_I2C_GET_FLAG(hi2c, I2C_FLAG_BTF) == RESET)
 800394c:	695a      	ldr	r2, [r3, #20]
 800394e:	0750      	lsls	r0, r2, #29
 8003950:	d449      	bmi.n	80039e6 <HAL_I2C_Mem_Write+0x1aa>
  if (__HAL_I2C_GET_FLAG(hi2c, I2C_FLAG_AF) == SET)
 8003952:	695a      	ldr	r2, [r3, #20]
 8003954:	0551      	lsls	r1, r2, #21
 8003956:	d5f9      	bpl.n	800394c <HAL_I2C_Mem_Write+0x110>
 8003958:	e7c9      	b.n	80038ee <HAL_I2C_Mem_Write+0xb2>
        hi2c->Instance->DR = *hi2c->pBuffPtr;
 800395a:	f89c 1001 	ldrb.w	r1, [ip, #1]
 800395e:	6119      	str	r1, [r3, #16]
        hi2c->pBuffPtr++;
 8003960:	f10c 0102 	add.w	r1, ip, #2
 8003964:	6261      	str	r1, [r4, #36]	; 0x24
        hi2c->XferCount--;
 8003966:	8d61      	ldrh	r1, [r4, #42]	; 0x2a
        hi2c->XferSize--;
 8003968:	f1ae 0202 	sub.w	r2, lr, #2
        hi2c->XferCount--;
 800396c:	3901      	subs	r1, #1
        hi2c->XferSize--;
 800396e:	b292      	uxth	r2, r2
        hi2c->XferCount--;
 8003970:	b289      	uxth	r1, r1
        hi2c->XferSize--;
 8003972:	8522      	strh	r2, [r4, #40]	; 0x28
        hi2c->XferCount--;
 8003974:	8561      	strh	r1, [r4, #42]	; 0x2a
    while (hi2c->XferSize > 0U)
 8003976:	2a00      	cmp	r2, #0
 8003978:	d1b1      	bne.n	80038de <HAL_I2C_Mem_Write+0xa2>
 800397a:	e7e5      	b.n	8003948 <HAL_I2C_Mem_Write+0x10c>
      __HAL_I2C_ENABLE(hi2c);
 800397c:	6803      	ldr	r3, [r0, #0]
 800397e:	f043 0301 	orr.w	r3, r3, #1
 8003982:	6003      	str	r3, [r0, #0]
 8003984:	e788      	b.n	8003898 <HAL_I2C_Mem_Write+0x5c>
        SET_BIT(hi2c->Instance->CR1, I2C_CR1_STOP);
 8003986:	6822      	ldr	r2, [r4, #0]
 8003988:	6813      	ldr	r3, [r2, #0]
 800398a:	f443 7300 	orr.w	r3, r3, #512	; 0x200
      return HAL_ERROR;
 800398e:	2701      	movs	r7, #1
        SET_BIT(hi2c->Instance->CR1, I2C_CR1_STOP);
 8003990:	6013      	str	r3, [r2, #0]
 8003992:	e764      	b.n	800385e <HAL_I2C_Mem_Write+0x22>
  while (__HAL_I2C_GET_FLAG(hi2c, I2C_FLAG_TXE) == RESET)
 8003994:	695a      	ldr	r2, [r3, #20]
 8003996:	0612      	lsls	r2, r2, #24
 8003998:	d4c1      	bmi.n	800391e <HAL_I2C_Mem_Write+0xe2>
  if (__HAL_I2C_GET_FLAG(hi2c, I2C_FLAG_AF) == SET)
 800399a:	695a      	ldr	r2, [r3, #20]
 800399c:	0551      	lsls	r1, r2, #21
 800399e:	d4a6      	bmi.n	80038ee <HAL_I2C_Mem_Write+0xb2>
      if (((HAL_GetTick() - Tickstart) > Timeout) || (Timeout == 0U))
 80039a0:	f7ff f8ba 	bl	8002b18 <HAL_GetTick>
 80039a4:	1b40      	subs	r0, r0, r5
 80039a6:	4286      	cmp	r6, r0
 80039a8:	d301      	bcc.n	80039ae <HAL_I2C_Mem_Write+0x172>
 80039aa:	2e00      	cmp	r6, #0
 80039ac:	d196      	bne.n	80038dc <HAL_I2C_Mem_Write+0xa0>
        hi2c->PreviousState     = I2C_STATE_NONE;
 80039ae:	2200      	movs	r2, #0
        hi2c->State             = HAL_I2C_STATE_READY;
 80039b0:	2320      	movs	r3, #32
        hi2c->PreviousState     = I2C_STATE_NONE;
 80039b2:	6322      	str	r2, [r4, #48]	; 0x30
        hi2c->State             = HAL_I2C_STATE_READY;
 80039b4:	f884 303d 	strb.w	r3, [r4, #61]	; 0x3d
        hi2c->Mode              = HAL_I2C_MODE_NONE;
 80039b8:	f884 203e 	strb.w	r2, [r4, #62]	; 0x3e
        hi2c->ErrorCode         |= HAL_I2C_ERROR_TIMEOUT;
 80039bc:	6c23      	ldr	r3, [r4, #64]	; 0x40
        __HAL_UNLOCK(hi2c);
 80039be:	f884 203c 	strb.w	r2, [r4, #60]	; 0x3c
        hi2c->ErrorCode         |= HAL_I2C_ERROR_TIMEOUT;
 80039c2:	f043 0320 	orr.w	r3, r3, #32
 80039c6:	6423      	str	r3, [r4, #64]	; 0x40
        return HAL_ERROR;
 80039c8:	e7a1      	b.n	800390e <HAL_I2C_Mem_Write+0xd2>
        hi2c->State             = HAL_I2C_STATE_READY;
 80039ca:	2320      	movs	r3, #32
        hi2c->PreviousState     = I2C_STATE_NONE;
 80039cc:	f8c4 b030 	str.w	fp, [r4, #48]	; 0x30
        hi2c->State             = HAL_I2C_STATE_READY;
 80039d0:	f884 303d 	strb.w	r3, [r4, #61]	; 0x3d
        hi2c->Mode              = HAL_I2C_MODE_NONE;
 80039d4:	f884 b03e 	strb.w	fp, [r4, #62]	; 0x3e
        hi2c->ErrorCode         |= HAL_I2C_ERROR_TIMEOUT;
 80039d8:	6c23      	ldr	r3, [r4, #64]	; 0x40
        __HAL_UNLOCK(hi2c);
 80039da:	f884 b03c 	strb.w	fp, [r4, #60]	; 0x3c
        hi2c->ErrorCode         |= HAL_I2C_ERROR_TIMEOUT;
 80039de:	f043 0320 	orr.w	r3, r3, #32
 80039e2:	6423      	str	r3, [r4, #64]	; 0x40
 80039e4:	e73a      	b.n	800385c <HAL_I2C_Mem_Write+0x20>
    SET_BIT(hi2c->Instance->CR1, I2C_CR1_STOP);
 80039e6:	681a      	ldr	r2, [r3, #0]
    hi2c->Mode = HAL_I2C_MODE_NONE;
 80039e8:	2100      	movs	r1, #0
    SET_BIT(hi2c->Instance->CR1, I2C_CR1_STOP);
 80039ea:	f442 7200 	orr.w	r2, r2, #512	; 0x200
    hi2c->State = HAL_I2C_STATE_READY;
 80039ee:	2020      	movs	r0, #32
    SET_BIT(hi2c->Instance->CR1, I2C_CR1_STOP);
 80039f0:	601a      	str	r2, [r3, #0]
    hi2c->State = HAL_I2C_STATE_READY;
 80039f2:	f884 003d 	strb.w	r0, [r4, #61]	; 0x3d
    __HAL_UNLOCK(hi2c);
 80039f6:	f884 103c 	strb.w	r1, [r4, #60]	; 0x3c
    hi2c->Mode = HAL_I2C_MODE_NONE;
 80039fa:	f884 103e 	strb.w	r1, [r4, #62]	; 0x3e
    return HAL_OK;
 80039fe:	e72e      	b.n	800385e <HAL_I2C_Mem_Write+0x22>
  while (__HAL_I2C_GET_FLAG(hi2c, I2C_FLAG_BTF) == RESET)
 8003a00:	695a      	ldr	r2, [r3, #20]
 8003a02:	0752      	lsls	r2, r2, #29
 8003a04:	d4ef      	bmi.n	80039e6 <HAL_I2C_Mem_Write+0x1aa>
  if (__HAL_I2C_GET_FLAG(hi2c, I2C_FLAG_AF) == SET)
 8003a06:	695a      	ldr	r2, [r3, #20]
 8003a08:	0551      	lsls	r1, r2, #21
 8003a0a:	f53f af70 	bmi.w	80038ee <HAL_I2C_Mem_Write+0xb2>
      if (((HAL_GetTick() - Tickstart) > Timeout) || (Timeout == 0U))
 8003a0e:	f7ff f883 	bl	8002b18 <HAL_GetTick>
 8003a12:	1b40      	subs	r0, r0, r5
 8003a14:	4286      	cmp	r6, r0
 8003a16:	d3ca      	bcc.n	80039ae <HAL_I2C_Mem_Write+0x172>
 8003a18:	2e00      	cmp	r6, #0
 8003a1a:	d0c8      	beq.n	80039ae <HAL_I2C_Mem_Write+0x172>
  while (__HAL_I2C_GET_FLAG(hi2c, I2C_FLAG_BTF) == RESET)
 8003a1c:	6823      	ldr	r3, [r4, #0]
 8003a1e:	e793      	b.n	8003948 <HAL_I2C_Mem_Write+0x10c>
 8003a20:	ffff0000 	.word	0xffff0000

08003a24 <HAL_I2C_Mem_Read>:
{
 8003a24:	e92d 4ff0 	stmdb	sp!, {r4, r5, r6, r7, r8, r9, sl, fp, lr}
 8003a28:	4604      	mov	r4, r0
 8003a2a:	b087      	sub	sp, #28
 8003a2c:	4699      	mov	r9, r3
 8003a2e:	f8bd a044 	ldrh.w	sl, [sp, #68]	; 0x44
 8003a32:	9d12      	ldr	r5, [sp, #72]	; 0x48
 8003a34:	460f      	mov	r7, r1
 8003a36:	4690      	mov	r8, r2
  uint32_t tickstart = HAL_GetTick();
 8003a38:	f7ff f86e 	bl	8002b18 <HAL_GetTick>
  if (hi2c->State == HAL_I2C_STATE_READY)
 8003a3c:	f894 303d 	ldrb.w	r3, [r4, #61]	; 0x3d
 8003a40:	2b20      	cmp	r3, #32
 8003a42:	d004      	beq.n	8003a4e <HAL_I2C_Mem_Read+0x2a>
      return HAL_BUSY;
 8003a44:	2702      	movs	r7, #2
}
 8003a46:	4638      	mov	r0, r7
 8003a48:	b007      	add	sp, #28
 8003a4a:	e8bd 8ff0 	ldmia.w	sp!, {r4, r5, r6, r7, r8, r9, sl, fp, pc}
 8003a4e:	4606      	mov	r6, r0
 8003a50:	e005      	b.n	8003a5e <HAL_I2C_Mem_Read+0x3a>
      if (((HAL_GetTick() - Tickstart) > Timeout) || (Timeout == 0U))
 8003a52:	f7ff f861 	bl	8002b18 <HAL_GetTick>
 8003a56:	1b80      	subs	r0, r0, r6
 8003a58:	2819      	cmp	r0, #25
 8003a5a:	f200 80d2 	bhi.w	8003c02 <HAL_I2C_Mem_Read+0x1de>
  while (__HAL_I2C_GET_FLAG(hi2c, Flag) == Status)
 8003a5e:	f8d4 c000 	ldr.w	ip, [r4]
 8003a62:	f8dc 0018 	ldr.w	r0, [ip, #24]
 8003a66:	43c0      	mvns	r0, r0
 8003a68:	f010 0b02 	ands.w	fp, r0, #2
 8003a6c:	d0f1      	beq.n	8003a52 <HAL_I2C_Mem_Read+0x2e>
    __HAL_LOCK(hi2c);
 8003a6e:	f894 303c 	ldrb.w	r3, [r4, #60]	; 0x3c
 8003a72:	2b01      	cmp	r3, #1
 8003a74:	d0e6      	beq.n	8003a44 <HAL_I2C_Mem_Read+0x20>
 8003a76:	2301      	movs	r3, #1
 8003a78:	f884 303c 	strb.w	r3, [r4, #60]	; 0x3c
    if ((hi2c->Instance->CR1 & I2C_CR1_PE) != I2C_CR1_PE)
 8003a7c:	f8dc 3000 	ldr.w	r3, [ip]
 8003a80:	07d9      	lsls	r1, r3, #31
 8003a82:	d537      	bpl.n	8003af4 <HAL_I2C_Mem_Read+0xd0>
    CLEAR_BIT(hi2c->Instance->CR1, I2C_CR1_POS);
 8003a84:	f8dc 0000 	ldr.w	r0, [ip]
 8003a88:	f420 6000 	bic.w	r0, r0, #2048	; 0x800
 8003a8c:	f8cc 0000 	str.w	r0, [ip]
    hi2c->pBuffPtr    = pData;
 8003a90:	9810      	ldr	r0, [sp, #64]	; 0x40
 8003a92:	6260      	str	r0, [r4, #36]	; 0x24
    hi2c->State     = HAL_I2C_STATE_BUSY_RX;
 8003a94:	2022      	movs	r0, #34	; 0x22
    if (I2C_RequestMemoryRead(hi2c, DevAddress, MemAddress, MemAddSize, Timeout, tickstart) != HAL_OK)
 8003a96:	e9cd 5600 	strd	r5, r6, [sp]
    hi2c->State     = HAL_I2C_STATE_BUSY_RX;
 8003a9a:	f884 003d 	strb.w	r0, [r4, #61]	; 0x3d
    hi2c->Mode      = HAL_I2C_MODE_MEM;
 8003a9e:	2040      	movs	r0, #64	; 0x40
 8003aa0:	f884 003e 	strb.w	r0, [r4, #62]	; 0x3e
    hi2c->ErrorCode = HAL_I2C_ERROR_NONE;
 8003aa4:	2000      	movs	r0, #0
 8003aa6:	6420      	str	r0, [r4, #64]	; 0x40
    hi2c->XferCount   = Size;
 8003aa8:	f8a4 a02a 	strh.w	sl, [r4, #42]	; 0x2a
    hi2c->XferSize    = hi2c->XferCount;
 8003aac:	8d60      	ldrh	r0, [r4, #42]	; 0x2a
 8003aae:	8520      	strh	r0, [r4, #40]	; 0x28
    hi2c->XferOptions = I2C_NO_OPTION_FRAME;
 8003ab0:	4893      	ldr	r0, [pc, #588]	; (8003d00 <HAL_I2C_Mem_Read+0x2dc>)
 8003ab2:	62e0      	str	r0, [r4, #44]	; 0x2c
    if (I2C_RequestMemoryRead(hi2c, DevAddress, MemAddress, MemAddSize, Timeout, tickstart) != HAL_OK)
 8003ab4:	4639      	mov	r1, r7
 8003ab6:	464b      	mov	r3, r9
 8003ab8:	4642      	mov	r2, r8
 8003aba:	4620      	mov	r0, r4
 8003abc:	f7ff fca2 	bl	8003404 <I2C_RequestMemoryRead>
 8003ac0:	4607      	mov	r7, r0
 8003ac2:	2800      	cmp	r0, #0
 8003ac4:	f040 80ab 	bne.w	8003c1e <HAL_I2C_Mem_Read+0x1fa>
    if (hi2c->XferSize == 0U)
 8003ac8:	8d22      	ldrh	r2, [r4, #40]	; 0x28
 8003aca:	b9d2      	cbnz	r2, 8003b02 <HAL_I2C_Mem_Read+0xde>
      __HAL_I2C_CLEAR_ADDRFLAG(hi2c);
 8003acc:	6823      	ldr	r3, [r4, #0]
 8003ace:	9002      	str	r0, [sp, #8]
 8003ad0:	695a      	ldr	r2, [r3, #20]
 8003ad2:	9202      	str	r2, [sp, #8]
 8003ad4:	699a      	ldr	r2, [r3, #24]
 8003ad6:	9202      	str	r2, [sp, #8]
 8003ad8:	9a02      	ldr	r2, [sp, #8]
      SET_BIT(hi2c->Instance->CR1, I2C_CR1_STOP);
 8003ada:	681a      	ldr	r2, [r3, #0]
 8003adc:	f442 7200 	orr.w	r2, r2, #512	; 0x200
 8003ae0:	601a      	str	r2, [r3, #0]
    hi2c->Mode = HAL_I2C_MODE_NONE;
 8003ae2:	2300      	movs	r3, #0
    hi2c->State = HAL_I2C_STATE_READY;
 8003ae4:	2220      	movs	r2, #32
 8003ae6:	f884 203d 	strb.w	r2, [r4, #61]	; 0x3d
    __HAL_UNLOCK(hi2c);
 8003aea:	f884 303c 	strb.w	r3, [r4, #60]	; 0x3c
    hi2c->Mode = HAL_I2C_MODE_NONE;
 8003aee:	f884 303e 	strb.w	r3, [r4, #62]	; 0x3e
    return HAL_OK;
 8003af2:	e7a8      	b.n	8003a46 <HAL_I2C_Mem_Read+0x22>
      __HAL_I2C_ENABLE(hi2c);
 8003af4:	f8dc 3000 	ldr.w	r3, [ip]
 8003af8:	f043 0301 	orr.w	r3, r3, #1
 8003afc:	f8cc 3000 	str.w	r3, [ip]
 8003b00:	e7c0      	b.n	8003a84 <HAL_I2C_Mem_Read+0x60>
    else if (hi2c->XferSize == 1U)
 8003b02:	2a01      	cmp	r2, #1
 8003b04:	f000 812c 	beq.w	8003d60 <HAL_I2C_Mem_Read+0x33c>
    else if (hi2c->XferSize == 2U)
 8003b08:	2a02      	cmp	r2, #2
 8003b0a:	f000 80bd 	beq.w	8003c88 <HAL_I2C_Mem_Read+0x264>
      __HAL_I2C_CLEAR_ADDRFLAG(hi2c);
 8003b0e:	6823      	ldr	r3, [r4, #0]
 8003b10:	9005      	str	r0, [sp, #20]
 8003b12:	6959      	ldr	r1, [r3, #20]
 8003b14:	9105      	str	r1, [sp, #20]
 8003b16:	6999      	ldr	r1, [r3, #24]
 8003b18:	9105      	str	r1, [sp, #20]
 8003b1a:	9905      	ldr	r1, [sp, #20]
      if (hi2c->XferSize <= 3U)
 8003b1c:	2a03      	cmp	r2, #3
 8003b1e:	d849      	bhi.n	8003bb4 <HAL_I2C_Mem_Read+0x190>
        if (hi2c->XferSize == 1U)
 8003b20:	2a01      	cmp	r2, #1
 8003b22:	f000 80eb 	beq.w	8003cfc <HAL_I2C_Mem_Read+0x2d8>
        else if (hi2c->XferSize == 2U)
 8003b26:	2a02      	cmp	r2, #2
 8003b28:	f000 8089 	beq.w	8003c3e <HAL_I2C_Mem_Read+0x21a>
 8003b2c:	1c69      	adds	r1, r5, #1
 8003b2e:	f040 80bb 	bne.w	8003ca8 <HAL_I2C_Mem_Read+0x284>
  while (__HAL_I2C_GET_FLAG(hi2c, Flag) == Status)
 8003b32:	695a      	ldr	r2, [r3, #20]
 8003b34:	0752      	lsls	r2, r2, #29
 8003b36:	d5fc      	bpl.n	8003b32 <HAL_I2C_Mem_Read+0x10e>
          CLEAR_BIT(hi2c->Instance->CR1, I2C_CR1_ACK);
 8003b38:	681a      	ldr	r2, [r3, #0]
          *hi2c->pBuffPtr = (uint8_t)hi2c->Instance->DR;
 8003b3a:	6a61      	ldr	r1, [r4, #36]	; 0x24
          CLEAR_BIT(hi2c->Instance->CR1, I2C_CR1_ACK);
 8003b3c:	f422 6280 	bic.w	r2, r2, #1024	; 0x400
 8003b40:	601a      	str	r2, [r3, #0]
          *hi2c->pBuffPtr = (uint8_t)hi2c->Instance->DR;
 8003b42:	691b      	ldr	r3, [r3, #16]
 8003b44:	700b      	strb	r3, [r1, #0]
          hi2c->XferCount--;
 8003b46:	8d63      	ldrh	r3, [r4, #42]	; 0x2a
          hi2c->pBuffPtr++;
 8003b48:	6a61      	ldr	r1, [r4, #36]	; 0x24
          hi2c->XferSize--;
 8003b4a:	8d22      	ldrh	r2, [r4, #40]	; 0x28
          hi2c->XferCount--;
 8003b4c:	3b01      	subs	r3, #1
          hi2c->pBuffPtr++;
 8003b4e:	3101      	adds	r1, #1
          hi2c->XferSize--;
 8003b50:	3a01      	subs	r2, #1
          hi2c->XferCount--;
 8003b52:	b29b      	uxth	r3, r3
          hi2c->pBuffPtr++;
 8003b54:	6261      	str	r1, [r4, #36]	; 0x24
          hi2c->XferSize--;
 8003b56:	8522      	strh	r2, [r4, #40]	; 0x28
          hi2c->XferCount--;
 8003b58:	8563      	strh	r3, [r4, #42]	; 0x2a
static HAL_StatusTypeDef I2C_WaitOnFlagUntilTimeout(I2C_HandleTypeDef *hi2c, uint32_t Flag, FlagStatus Status, uint32_t Timeout, uint32_t Tickstart)
 8003b5a:	1c69      	adds	r1, r5, #1
  while (__HAL_I2C_GET_FLAG(hi2c, Flag) == Status)
 8003b5c:	6822      	ldr	r2, [r4, #0]
 8003b5e:	f040 80af 	bne.w	8003cc0 <HAL_I2C_Mem_Read+0x29c>
 8003b62:	6953      	ldr	r3, [r2, #20]
 8003b64:	075b      	lsls	r3, r3, #29
 8003b66:	d5fc      	bpl.n	8003b62 <HAL_I2C_Mem_Read+0x13e>
          SET_BIT(hi2c->Instance->CR1, I2C_CR1_STOP);
 8003b68:	6813      	ldr	r3, [r2, #0]
          *hi2c->pBuffPtr = (uint8_t)hi2c->Instance->DR;
 8003b6a:	6a61      	ldr	r1, [r4, #36]	; 0x24
          SET_BIT(hi2c->Instance->CR1, I2C_CR1_STOP);
 8003b6c:	f443 7300 	orr.w	r3, r3, #512	; 0x200
 8003b70:	6013      	str	r3, [r2, #0]
          *hi2c->pBuffPtr = (uint8_t)hi2c->Instance->DR;
 8003b72:	6913      	ldr	r3, [r2, #16]
 8003b74:	700b      	strb	r3, [r1, #0]
          hi2c->XferCount--;
 8003b76:	8d63      	ldrh	r3, [r4, #42]	; 0x2a
          hi2c->XferSize--;
 8003b78:	8d22      	ldrh	r2, [r4, #40]	; 0x28
          hi2c->pBuffPtr++;
 8003b7a:	6a60      	ldr	r0, [r4, #36]	; 0x24
          *hi2c->pBuffPtr = (uint8_t)hi2c->Instance->DR;
 8003b7c:	6821      	ldr	r1, [r4, #0]
          hi2c->XferCount--;
 8003b7e:	3b01      	subs	r3, #1
 8003b80:	b29b      	uxth	r3, r3
 8003b82:	8563      	strh	r3, [r4, #42]	; 0x2a
          *hi2c->pBuffPtr = (uint8_t)hi2c->Instance->DR;
 8003b84:	6909      	ldr	r1, [r1, #16]
          hi2c->XferSize--;
 8003b86:	1e53      	subs	r3, r2, #1
          hi2c->pBuffPtr++;
 8003b88:	f100 0c01 	add.w	ip, r0, #1
          hi2c->XferSize--;
 8003b8c:	8523      	strh	r3, [r4, #40]	; 0x28
          hi2c->pBuffPtr++;
 8003b8e:	f8c4 c024 	str.w	ip, [r4, #36]	; 0x24
          *hi2c->pBuffPtr = (uint8_t)hi2c->Instance->DR;
 8003b92:	7041      	strb	r1, [r0, #1]
          hi2c->XferSize--;
 8003b94:	8d22      	ldrh	r2, [r4, #40]	; 0x28
          hi2c->XferCount--;
 8003b96:	8d63      	ldrh	r3, [r4, #42]	; 0x2a
          hi2c->pBuffPtr++;
 8003b98:	6a61      	ldr	r1, [r4, #36]	; 0x24
          hi2c->XferSize--;
 8003b9a:	3a01      	subs	r2, #1
          hi2c->XferCount--;
 8003b9c:	3b01      	subs	r3, #1
          hi2c->pBuffPtr++;
 8003b9e:	3101      	adds	r1, #1
          hi2c->XferSize--;
 8003ba0:	b292      	uxth	r2, r2
          hi2c->XferCount--;
 8003ba2:	b29b      	uxth	r3, r3
          hi2c->pBuffPtr++;
 8003ba4:	6261      	str	r1, [r4, #36]	; 0x24
          hi2c->XferSize--;
 8003ba6:	8522      	strh	r2, [r4, #40]	; 0x28
          hi2c->XferCount--;
 8003ba8:	8563      	strh	r3, [r4, #42]	; 0x2a
    while (hi2c->XferSize > 0U)
 8003baa:	2a00      	cmp	r2, #0
 8003bac:	d099      	beq.n	8003ae2 <HAL_I2C_Mem_Read+0xbe>
      if (hi2c->XferSize <= 3U)
 8003bae:	2a03      	cmp	r2, #3
  while (__HAL_I2C_GET_FLAG(hi2c, I2C_FLAG_RXNE) == RESET)
 8003bb0:	6823      	ldr	r3, [r4, #0]
      if (hi2c->XferSize <= 3U)
 8003bb2:	d9b5      	bls.n	8003b20 <HAL_I2C_Mem_Read+0xfc>
 8003bb4:	b95d      	cbnz	r5, 8003bce <HAL_I2C_Mem_Read+0x1aa>
 8003bb6:	e0c5      	b.n	8003d44 <HAL_I2C_Mem_Read+0x320>
    if (__HAL_I2C_GET_FLAG(hi2c, I2C_FLAG_STOPF) == SET)
 8003bb8:	695a      	ldr	r2, [r3, #20]
 8003bba:	06d0      	lsls	r0, r2, #27
 8003bbc:	f100 80b2 	bmi.w	8003d24 <HAL_I2C_Mem_Read+0x300>
    if (((HAL_GetTick() - Tickstart) > Timeout) || (Timeout == 0U))
 8003bc0:	f7fe ffaa 	bl	8002b18 <HAL_GetTick>
 8003bc4:	1b80      	subs	r0, r0, r6
 8003bc6:	4285      	cmp	r5, r0
 8003bc8:	f0c0 8086 	bcc.w	8003cd8 <HAL_I2C_Mem_Read+0x2b4>
  while (__HAL_I2C_GET_FLAG(hi2c, I2C_FLAG_RXNE) == RESET)
 8003bcc:	6823      	ldr	r3, [r4, #0]
 8003bce:	695a      	ldr	r2, [r3, #20]
 8003bd0:	0652      	lsls	r2, r2, #25
 8003bd2:	d5f1      	bpl.n	8003bb8 <HAL_I2C_Mem_Read+0x194>
        *hi2c->pBuffPtr = (uint8_t)hi2c->Instance->DR;
 8003bd4:	6a62      	ldr	r2, [r4, #36]	; 0x24
 8003bd6:	691b      	ldr	r3, [r3, #16]
 8003bd8:	7013      	strb	r3, [r2, #0]
        hi2c->XferCount--;
 8003bda:	8d63      	ldrh	r3, [r4, #42]	; 0x2a
        if (__HAL_I2C_GET_FLAG(hi2c, I2C_FLAG_BTF) == SET)
 8003bdc:	6820      	ldr	r0, [r4, #0]
        hi2c->XferSize--;
 8003bde:	8d22      	ldrh	r2, [r4, #40]	; 0x28
        hi2c->pBuffPtr++;
 8003be0:	6a61      	ldr	r1, [r4, #36]	; 0x24
        hi2c->XferCount--;
 8003be2:	3b01      	subs	r3, #1
 8003be4:	b29b      	uxth	r3, r3
 8003be6:	8563      	strh	r3, [r4, #42]	; 0x2a
        if (__HAL_I2C_GET_FLAG(hi2c, I2C_FLAG_BTF) == SET)
 8003be8:	6943      	ldr	r3, [r0, #20]
        hi2c->XferSize--;
 8003bea:	3a01      	subs	r2, #1
 8003bec:	b292      	uxth	r2, r2
        hi2c->pBuffPtr++;
 8003bee:	f101 0c01 	add.w	ip, r1, #1
        if (__HAL_I2C_GET_FLAG(hi2c, I2C_FLAG_BTF) == SET)
 8003bf2:	075b      	lsls	r3, r3, #29
        hi2c->XferSize--;
 8003bf4:	8522      	strh	r2, [r4, #40]	; 0x28
        hi2c->pBuffPtr++;
 8003bf6:	f8c4 c024 	str.w	ip, [r4, #36]	; 0x24
        if (__HAL_I2C_GET_FLAG(hi2c, I2C_FLAG_BTF) == SET)
 8003bfa:	d5d6      	bpl.n	8003baa <HAL_I2C_Mem_Read+0x186>
          *hi2c->pBuffPtr = (uint8_t)hi2c->Instance->DR;
 8003bfc:	6903      	ldr	r3, [r0, #16]
 8003bfe:	704b      	strb	r3, [r1, #1]
 8003c00:	e036      	b.n	8003c70 <HAL_I2C_Mem_Read+0x24c>
        hi2c->State             = HAL_I2C_STATE_READY;
 8003c02:	2320      	movs	r3, #32
        hi2c->PreviousState     = I2C_STATE_NONE;
 8003c04:	f8c4 b030 	str.w	fp, [r4, #48]	; 0x30
        hi2c->State             = HAL_I2C_STATE_READY;
 8003c08:	f884 303d 	strb.w	r3, [r4, #61]	; 0x3d
        hi2c->Mode              = HAL_I2C_MODE_NONE;
 8003c0c:	f884 b03e 	strb.w	fp, [r4, #62]	; 0x3e
        hi2c->ErrorCode         |= HAL_I2C_ERROR_TIMEOUT;
 8003c10:	6c23      	ldr	r3, [r4, #64]	; 0x40
        __HAL_UNLOCK(hi2c);
 8003c12:	f884 b03c 	strb.w	fp, [r4, #60]	; 0x3c
        hi2c->ErrorCode         |= HAL_I2C_ERROR_TIMEOUT;
 8003c16:	f043 0320 	orr.w	r3, r3, #32
 8003c1a:	6423      	str	r3, [r4, #64]	; 0x40
 8003c1c:	e712      	b.n	8003a44 <HAL_I2C_Mem_Read+0x20>
      return HAL_ERROR;
 8003c1e:	2701      	movs	r7, #1
}
 8003c20:	4638      	mov	r0, r7
 8003c22:	b007      	add	sp, #28
 8003c24:	e8bd 8ff0 	ldmia.w	sp!, {r4, r5, r6, r7, r8, r9, sl, fp, pc}
  while (__HAL_I2C_GET_FLAG(hi2c, Flag) == Status)
 8003c28:	695a      	ldr	r2, [r3, #20]
 8003c2a:	0750      	lsls	r0, r2, #29
 8003c2c:	d40c      	bmi.n	8003c48 <HAL_I2C_Mem_Read+0x224>
      if (((HAL_GetTick() - Tickstart) > Timeout) || (Timeout == 0U))
 8003c2e:	f7fe ff73 	bl	8002b18 <HAL_GetTick>
 8003c32:	1b80      	subs	r0, r0, r6
 8003c34:	4285      	cmp	r5, r0
 8003c36:	d34f      	bcc.n	8003cd8 <HAL_I2C_Mem_Read+0x2b4>
 8003c38:	2d00      	cmp	r5, #0
 8003c3a:	d04d      	beq.n	8003cd8 <HAL_I2C_Mem_Read+0x2b4>
  while (__HAL_I2C_GET_FLAG(hi2c, Flag) == Status)
 8003c3c:	6823      	ldr	r3, [r4, #0]
 8003c3e:	1c69      	adds	r1, r5, #1
 8003c40:	d1f2      	bne.n	8003c28 <HAL_I2C_Mem_Read+0x204>
 8003c42:	695a      	ldr	r2, [r3, #20]
 8003c44:	0752      	lsls	r2, r2, #29
 8003c46:	d5fc      	bpl.n	8003c42 <HAL_I2C_Mem_Read+0x21e>
          SET_BIT(hi2c->Instance->CR1, I2C_CR1_STOP);
 8003c48:	681a      	ldr	r2, [r3, #0]
 8003c4a:	f442 7200 	orr.w	r2, r2, #512	; 0x200
 8003c4e:	601a      	str	r2, [r3, #0]
          *hi2c->pBuffPtr = (uint8_t)hi2c->Instance->DR;
 8003c50:	691a      	ldr	r2, [r3, #16]
 8003c52:	6a63      	ldr	r3, [r4, #36]	; 0x24
 8003c54:	701a      	strb	r2, [r3, #0]
          hi2c->XferCount--;
 8003c56:	8d63      	ldrh	r3, [r4, #42]	; 0x2a
          hi2c->pBuffPtr++;
 8003c58:	6a62      	ldr	r2, [r4, #36]	; 0x24
          hi2c->XferCount--;
 8003c5a:	3b01      	subs	r3, #1
 8003c5c:	b29b      	uxth	r3, r3
 8003c5e:	8563      	strh	r3, [r4, #42]	; 0x2a
          hi2c->XferSize--;
 8003c60:	8d23      	ldrh	r3, [r4, #40]	; 0x28
 8003c62:	3b01      	subs	r3, #1
 8003c64:	8523      	strh	r3, [r4, #40]	; 0x28
          *hi2c->pBuffPtr = (uint8_t)hi2c->Instance->DR;
 8003c66:	6823      	ldr	r3, [r4, #0]
          hi2c->pBuffPtr++;
 8003c68:	1c51      	adds	r1, r2, #1
          *hi2c->pBuffPtr = (uint8_t)hi2c->Instance->DR;
 8003c6a:	691b      	ldr	r3, [r3, #16]
          hi2c->pBuffPtr++;
 8003c6c:	6261      	str	r1, [r4, #36]	; 0x24
          *hi2c->pBuffPtr = (uint8_t)hi2c->Instance->DR;
 8003c6e:	7053      	strb	r3, [r2, #1]
          hi2c->pBuffPtr++;
 8003c70:	6a63      	ldr	r3, [r4, #36]	; 0x24
          hi2c->XferSize--;
 8003c72:	8d22      	ldrh	r2, [r4, #40]	; 0x28
          hi2c->pBuffPtr++;
 8003c74:	3301      	adds	r3, #1
 8003c76:	6263      	str	r3, [r4, #36]	; 0x24
          hi2c->XferCount--;
 8003c78:	8d63      	ldrh	r3, [r4, #42]	; 0x2a
          hi2c->XferSize--;
 8003c7a:	3a01      	subs	r2, #1
          hi2c->XferCount--;
 8003c7c:	3b01      	subs	r3, #1
          hi2c->XferSize--;
 8003c7e:	b292      	uxth	r2, r2
          hi2c->XferCount--;
 8003c80:	b29b      	uxth	r3, r3
          hi2c->XferSize--;
 8003c82:	8522      	strh	r2, [r4, #40]	; 0x28
          hi2c->XferCount--;
 8003c84:	8563      	strh	r3, [r4, #42]	; 0x2a
 8003c86:	e790      	b.n	8003baa <HAL_I2C_Mem_Read+0x186>
      CLEAR_BIT(hi2c->Instance->CR1, I2C_CR1_ACK);
 8003c88:	6823      	ldr	r3, [r4, #0]
 8003c8a:	6819      	ldr	r1, [r3, #0]
 8003c8c:	f421 6180 	bic.w	r1, r1, #1024	; 0x400
 8003c90:	6019      	str	r1, [r3, #0]
      SET_BIT(hi2c->Instance->CR1, I2C_CR1_POS);
 8003c92:	6819      	ldr	r1, [r3, #0]
 8003c94:	f441 6100 	orr.w	r1, r1, #2048	; 0x800
 8003c98:	6019      	str	r1, [r3, #0]
      __HAL_I2C_CLEAR_ADDRFLAG(hi2c);
 8003c9a:	9004      	str	r0, [sp, #16]
 8003c9c:	6959      	ldr	r1, [r3, #20]
 8003c9e:	9104      	str	r1, [sp, #16]
 8003ca0:	6999      	ldr	r1, [r3, #24]
 8003ca2:	9104      	str	r1, [sp, #16]
 8003ca4:	9904      	ldr	r1, [sp, #16]
 8003ca6:	e739      	b.n	8003b1c <HAL_I2C_Mem_Read+0xf8>
  while (__HAL_I2C_GET_FLAG(hi2c, Flag) == Status)
 8003ca8:	695a      	ldr	r2, [r3, #20]
 8003caa:	0750      	lsls	r0, r2, #29
 8003cac:	f53f af44 	bmi.w	8003b38 <HAL_I2C_Mem_Read+0x114>
      if (((HAL_GetTick() - Tickstart) > Timeout) || (Timeout == 0U))
 8003cb0:	f7fe ff32 	bl	8002b18 <HAL_GetTick>
 8003cb4:	1b80      	subs	r0, r0, r6
 8003cb6:	4285      	cmp	r5, r0
 8003cb8:	d30e      	bcc.n	8003cd8 <HAL_I2C_Mem_Read+0x2b4>
 8003cba:	b16d      	cbz	r5, 8003cd8 <HAL_I2C_Mem_Read+0x2b4>
  while (__HAL_I2C_GET_FLAG(hi2c, Flag) == Status)
 8003cbc:	6823      	ldr	r3, [r4, #0]
 8003cbe:	e735      	b.n	8003b2c <HAL_I2C_Mem_Read+0x108>
 8003cc0:	6953      	ldr	r3, [r2, #20]
 8003cc2:	0758      	lsls	r0, r3, #29
 8003cc4:	f53f af50 	bmi.w	8003b68 <HAL_I2C_Mem_Read+0x144>
      if (((HAL_GetTick() - Tickstart) > Timeout) || (Timeout == 0U))
 8003cc8:	f7fe ff26 	bl	8002b18 <HAL_GetTick>
 8003ccc:	1b80      	subs	r0, r0, r6
 8003cce:	4285      	cmp	r5, r0
 8003cd0:	d302      	bcc.n	8003cd8 <HAL_I2C_Mem_Read+0x2b4>
 8003cd2:	2d00      	cmp	r5, #0
 8003cd4:	f47f af41 	bne.w	8003b5a <HAL_I2C_Mem_Read+0x136>
        hi2c->PreviousState     = I2C_STATE_NONE;
 8003cd8:	2200      	movs	r2, #0
        hi2c->State             = HAL_I2C_STATE_READY;
 8003cda:	2320      	movs	r3, #32
        hi2c->PreviousState     = I2C_STATE_NONE;
 8003cdc:	6322      	str	r2, [r4, #48]	; 0x30
        hi2c->State             = HAL_I2C_STATE_READY;
 8003cde:	f884 303d 	strb.w	r3, [r4, #61]	; 0x3d
        hi2c->Mode              = HAL_I2C_MODE_NONE;
 8003ce2:	f884 203e 	strb.w	r2, [r4, #62]	; 0x3e
        hi2c->ErrorCode         |= HAL_I2C_ERROR_TIMEOUT;
 8003ce6:	6c23      	ldr	r3, [r4, #64]	; 0x40
        __HAL_UNLOCK(hi2c);
 8003ce8:	f884 203c 	strb.w	r2, [r4, #60]	; 0x3c
          return HAL_ERROR;
 8003cec:	2701      	movs	r7, #1
        hi2c->ErrorCode         |= HAL_I2C_ERROR_TIMEOUT;
 8003cee:	f043 0320 	orr.w	r3, r3, #32
}
 8003cf2:	4638      	mov	r0, r7
        hi2c->ErrorCode         |= HAL_I2C_ERROR_TIMEOUT;
 8003cf4:	6423      	str	r3, [r4, #64]	; 0x40
}
 8003cf6:	b007      	add	sp, #28
 8003cf8:	e8bd 8ff0 	ldmia.w	sp!, {r4, r5, r6, r7, r8, r9, sl, fp, pc}
 8003cfc:	b95d      	cbnz	r5, 8003d16 <HAL_I2C_Mem_Read+0x2f2>
 8003cfe:	e02b      	b.n	8003d58 <HAL_I2C_Mem_Read+0x334>
 8003d00:	ffff0000 	.word	0xffff0000
    if (__HAL_I2C_GET_FLAG(hi2c, I2C_FLAG_STOPF) == SET)
 8003d04:	695a      	ldr	r2, [r3, #20]
 8003d06:	06d2      	lsls	r2, r2, #27
 8003d08:	d40c      	bmi.n	8003d24 <HAL_I2C_Mem_Read+0x300>
    if (((HAL_GetTick() - Tickstart) > Timeout) || (Timeout == 0U))
 8003d0a:	f7fe ff05 	bl	8002b18 <HAL_GetTick>
 8003d0e:	1b80      	subs	r0, r0, r6
 8003d10:	4285      	cmp	r5, r0
 8003d12:	d3e1      	bcc.n	8003cd8 <HAL_I2C_Mem_Read+0x2b4>
  while (__HAL_I2C_GET_FLAG(hi2c, I2C_FLAG_RXNE) == RESET)
 8003d14:	6823      	ldr	r3, [r4, #0]
 8003d16:	695a      	ldr	r2, [r3, #20]
 8003d18:	0651      	lsls	r1, r2, #25
 8003d1a:	d5f3      	bpl.n	8003d04 <HAL_I2C_Mem_Read+0x2e0>
          *hi2c->pBuffPtr = (uint8_t)hi2c->Instance->DR;
 8003d1c:	691a      	ldr	r2, [r3, #16]
 8003d1e:	6a63      	ldr	r3, [r4, #36]	; 0x24
 8003d20:	701a      	strb	r2, [r3, #0]
          hi2c->pBuffPtr++;
 8003d22:	e7a5      	b.n	8003c70 <HAL_I2C_Mem_Read+0x24c>
      hi2c->PreviousState       = I2C_STATE_NONE;
 8003d24:	2200      	movs	r2, #0
      __HAL_I2C_CLEAR_FLAG(hi2c, I2C_FLAG_STOPF);
 8003d26:	f06f 0010 	mvn.w	r0, #16
      hi2c->State               = HAL_I2C_STATE_READY;
 8003d2a:	2120      	movs	r1, #32
      __HAL_I2C_CLEAR_FLAG(hi2c, I2C_FLAG_STOPF);
 8003d2c:	6158      	str	r0, [r3, #20]
      hi2c->PreviousState       = I2C_STATE_NONE;
 8003d2e:	6322      	str	r2, [r4, #48]	; 0x30
      hi2c->State               = HAL_I2C_STATE_READY;
 8003d30:	f884 103d 	strb.w	r1, [r4, #61]	; 0x3d
      hi2c->Mode                = HAL_I2C_MODE_NONE;
 8003d34:	f884 203e 	strb.w	r2, [r4, #62]	; 0x3e
      hi2c->ErrorCode           |= HAL_I2C_ERROR_NONE;
 8003d38:	6c23      	ldr	r3, [r4, #64]	; 0x40
 8003d3a:	6423      	str	r3, [r4, #64]	; 0x40
      __HAL_UNLOCK(hi2c);
 8003d3c:	f884 203c 	strb.w	r2, [r4, #60]	; 0x3c
          return HAL_ERROR;
 8003d40:	2701      	movs	r7, #1
 8003d42:	e680      	b.n	8003a46 <HAL_I2C_Mem_Read+0x22>
  while (__HAL_I2C_GET_FLAG(hi2c, I2C_FLAG_RXNE) == RESET)
 8003d44:	695a      	ldr	r2, [r3, #20]
 8003d46:	0652      	lsls	r2, r2, #25
 8003d48:	f53f af44 	bmi.w	8003bd4 <HAL_I2C_Mem_Read+0x1b0>
    if (__HAL_I2C_GET_FLAG(hi2c, I2C_FLAG_STOPF) == SET)
 8003d4c:	695a      	ldr	r2, [r3, #20]
 8003d4e:	06d1      	lsls	r1, r2, #27
 8003d50:	d4e8      	bmi.n	8003d24 <HAL_I2C_Mem_Read+0x300>
    if (((HAL_GetTick() - Tickstart) > Timeout) || (Timeout == 0U))
 8003d52:	f7fe fee1 	bl	8002b18 <HAL_GetTick>
 8003d56:	e7bf      	b.n	8003cd8 <HAL_I2C_Mem_Read+0x2b4>
  while (__HAL_I2C_GET_FLAG(hi2c, I2C_FLAG_RXNE) == RESET)
 8003d58:	695a      	ldr	r2, [r3, #20]
 8003d5a:	0650      	lsls	r0, r2, #25
 8003d5c:	d5f6      	bpl.n	8003d4c <HAL_I2C_Mem_Read+0x328>
 8003d5e:	e7dd      	b.n	8003d1c <HAL_I2C_Mem_Read+0x2f8>
      CLEAR_BIT(hi2c->Instance->CR1, I2C_CR1_ACK);
 8003d60:	6823      	ldr	r3, [r4, #0]
 8003d62:	6819      	ldr	r1, [r3, #0]
 8003d64:	f421 6180 	bic.w	r1, r1, #1024	; 0x400
 8003d68:	6019      	str	r1, [r3, #0]
      __HAL_I2C_CLEAR_ADDRFLAG(hi2c);
 8003d6a:	9003      	str	r0, [sp, #12]
 8003d6c:	6959      	ldr	r1, [r3, #20]
 8003d6e:	9103      	str	r1, [sp, #12]
 8003d70:	6999      	ldr	r1, [r3, #24]
 8003d72:	9103      	str	r1, [sp, #12]
 8003d74:	9903      	ldr	r1, [sp, #12]
      SET_BIT(hi2c->Instance->CR1, I2C_CR1_STOP);
 8003d76:	6819      	ldr	r1, [r3, #0]
 8003d78:	f441 7100 	orr.w	r1, r1, #512	; 0x200
 8003d7c:	6019      	str	r1, [r3, #0]
 8003d7e:	e6cd      	b.n	8003b1c <HAL_I2C_Mem_Read+0xf8>

08003d80 <HAL_I2C_MasterTxCpltCallback>:
 8003d80:	4770      	bx	lr
 8003d82:	bf00      	nop

08003d84 <HAL_I2C_MasterRxCpltCallback>:
 8003d84:	4770      	bx	lr
 8003d86:	bf00      	nop

08003d88 <HAL_I2C_SlaveTxCpltCallback>:
 8003d88:	4770      	bx	lr
 8003d8a:	bf00      	nop

08003d8c <HAL_I2C_SlaveRxCpltCallback>:
 8003d8c:	4770      	bx	lr
 8003d8e:	bf00      	nop

08003d90 <HAL_I2C_AddrCallback>:
}
 8003d90:	4770      	bx	lr
 8003d92:	bf00      	nop

08003d94 <HAL_I2C_ListenCpltCallback>:
 8003d94:	4770      	bx	lr
 8003d96:	bf00      	nop

08003d98 <HAL_I2C_MemTxCpltCallback>:
 8003d98:	4770      	bx	lr
 8003d9a:	bf00      	nop

08003d9c <I2C_MemoryTransmit_TXE_BTF>:
  HAL_I2C_StateTypeDef CurrentState = hi2c->State;
 8003d9c:	f890 203d 	ldrb.w	r2, [r0, #61]	; 0x3d
  if (hi2c->EventCount == 0U)
 8003da0:	6d01      	ldr	r1, [r0, #80]	; 0x50
{
 8003da2:	4603      	mov	r3, r0
  if (hi2c->EventCount == 0U)
 8003da4:	b959      	cbnz	r1, 8003dbe <I2C_MemoryTransmit_TXE_BTF+0x22>
    if (hi2c->MemaddSize == I2C_MEMADD_SIZE_8BIT)
 8003da6:	6cc2      	ldr	r2, [r0, #76]	; 0x4c
      hi2c->Instance->DR = I2C_MEM_ADD_LSB(hi2c->Memaddress);
 8003da8:	6801      	ldr	r1, [r0, #0]
    if (hi2c->MemaddSize == I2C_MEMADD_SIZE_8BIT)
 8003daa:	2a01      	cmp	r2, #1
      hi2c->Instance->DR = I2C_MEM_ADD_LSB(hi2c->Memaddress);
 8003dac:	6c82      	ldr	r2, [r0, #72]	; 0x48
    if (hi2c->MemaddSize == I2C_MEMADD_SIZE_8BIT)
 8003dae:	d00d      	beq.n	8003dcc <I2C_MemoryTransmit_TXE_BTF+0x30>
      hi2c->Instance->DR = I2C_MEM_ADD_MSB(hi2c->Memaddress);
 8003db0:	f3c2 2207 	ubfx	r2, r2, #8, #8
 8003db4:	610a      	str	r2, [r1, #16]
      hi2c->EventCount++;
 8003db6:	6d02      	ldr	r2, [r0, #80]	; 0x50
 8003db8:	3201      	adds	r2, #1
 8003dba:	6502      	str	r2, [r0, #80]	; 0x50
 8003dbc:	4770      	bx	lr
  else if (hi2c->EventCount == 1U)
 8003dbe:	6d01      	ldr	r1, [r0, #80]	; 0x50
 8003dc0:	2901      	cmp	r1, #1
 8003dc2:	d009      	beq.n	8003dd8 <I2C_MemoryTransmit_TXE_BTF+0x3c>
  else if (hi2c->EventCount == 2U)
 8003dc4:	6d01      	ldr	r1, [r0, #80]	; 0x50
 8003dc6:	2902      	cmp	r1, #2
 8003dc8:	d00e      	beq.n	8003de8 <I2C_MemoryTransmit_TXE_BTF+0x4c>
 8003dca:	4770      	bx	lr
      hi2c->Instance->DR = I2C_MEM_ADD_LSB(hi2c->Memaddress);
 8003dcc:	b2d2      	uxtb	r2, r2
 8003dce:	610a      	str	r2, [r1, #16]
      hi2c->EventCount += 2U;
 8003dd0:	6d02      	ldr	r2, [r0, #80]	; 0x50
 8003dd2:	3202      	adds	r2, #2
 8003dd4:	6502      	str	r2, [r0, #80]	; 0x50
 8003dd6:	4770      	bx	lr
    hi2c->Instance->DR = I2C_MEM_ADD_LSB(hi2c->Memaddress);
 8003dd8:	6c82      	ldr	r2, [r0, #72]	; 0x48
 8003dda:	6801      	ldr	r1, [r0, #0]
 8003ddc:	b2d2      	uxtb	r2, r2
 8003dde:	610a      	str	r2, [r1, #16]
    hi2c->EventCount++;
 8003de0:	6d02      	ldr	r2, [r0, #80]	; 0x50
 8003de2:	3201      	adds	r2, #1
 8003de4:	6502      	str	r2, [r0, #80]	; 0x50
 8003de6:	4770      	bx	lr
 8003de8:	b2d2      	uxtb	r2, r2
    if (CurrentState == HAL_I2C_STATE_BUSY_RX)
 8003dea:	2a22      	cmp	r2, #34	; 0x22
 8003dec:	d01f      	beq.n	8003e2e <I2C_MemoryTransmit_TXE_BTF+0x92>
    else if ((hi2c->XferCount > 0U) && (CurrentState == HAL_I2C_STATE_BUSY_TX))
 8003dee:	8d41      	ldrh	r1, [r0, #42]	; 0x2a
 8003df0:	b289      	uxth	r1, r1
 8003df2:	b9c1      	cbnz	r1, 8003e26 <I2C_MemoryTransmit_TXE_BTF+0x8a>
    else if ((hi2c->XferCount == 0U) && (CurrentState == HAL_I2C_STATE_BUSY_TX))
 8003df4:	8d41      	ldrh	r1, [r0, #42]	; 0x2a
 8003df6:	b289      	uxth	r1, r1
 8003df8:	2900      	cmp	r1, #0
 8003dfa:	d1e6      	bne.n	8003dca <I2C_MemoryTransmit_TXE_BTF+0x2e>
 8003dfc:	2a21      	cmp	r2, #33	; 0x21
 8003dfe:	d1e4      	bne.n	8003dca <I2C_MemoryTransmit_TXE_BTF+0x2e>
      __HAL_I2C_DISABLE_IT(hi2c, I2C_IT_EVT | I2C_IT_BUF | I2C_IT_ERR);
 8003e00:	6802      	ldr	r2, [r0, #0]
{
 8003e02:	b510      	push	{r4, lr}
      __HAL_I2C_DISABLE_IT(hi2c, I2C_IT_EVT | I2C_IT_BUF | I2C_IT_ERR);
 8003e04:	6854      	ldr	r4, [r2, #4]
 8003e06:	f424 64e0 	bic.w	r4, r4, #1792	; 0x700
 8003e0a:	6054      	str	r4, [r2, #4]
      SET_BIT(hi2c->Instance->CR1, I2C_CR1_STOP);
 8003e0c:	6814      	ldr	r4, [r2, #0]
 8003e0e:	f444 7400 	orr.w	r4, r4, #512	; 0x200
 8003e12:	6014      	str	r4, [r2, #0]
      hi2c->State = HAL_I2C_STATE_READY;
 8003e14:	2220      	movs	r2, #32
      hi2c->PreviousState = I2C_STATE_NONE;
 8003e16:	6301      	str	r1, [r0, #48]	; 0x30
      hi2c->State = HAL_I2C_STATE_READY;
 8003e18:	f880 203d 	strb.w	r2, [r0, #61]	; 0x3d
      hi2c->Mode = HAL_I2C_MODE_NONE;
 8003e1c:	f880 103e 	strb.w	r1, [r0, #62]	; 0x3e
      HAL_I2C_MemTxCpltCallback(hi2c);
 8003e20:	f7ff ffba 	bl	8003d98 <HAL_I2C_MemTxCpltCallback>
}
 8003e24:	bd10      	pop	{r4, pc}
    else if ((hi2c->XferCount > 0U) && (CurrentState == HAL_I2C_STATE_BUSY_TX))
 8003e26:	2a21      	cmp	r2, #33	; 0x21
 8003e28:	d00a      	beq.n	8003e40 <I2C_MemoryTransmit_TXE_BTF+0xa4>
    else if ((hi2c->XferCount == 0U) && (CurrentState == HAL_I2C_STATE_BUSY_TX))
 8003e2a:	8d5b      	ldrh	r3, [r3, #42]	; 0x2a
 8003e2c:	4770      	bx	lr
      hi2c->Instance->CR1 |= I2C_CR1_START;
 8003e2e:	6801      	ldr	r1, [r0, #0]
 8003e30:	680a      	ldr	r2, [r1, #0]
 8003e32:	f442 7280 	orr.w	r2, r2, #256	; 0x100
 8003e36:	600a      	str	r2, [r1, #0]
      hi2c->EventCount++;
 8003e38:	6d02      	ldr	r2, [r0, #80]	; 0x50
 8003e3a:	3201      	adds	r2, #1
 8003e3c:	6502      	str	r2, [r0, #80]	; 0x50
 8003e3e:	4770      	bx	lr
      hi2c->Instance->DR = *hi2c->pBuffPtr;
 8003e40:	6a41      	ldr	r1, [r0, #36]	; 0x24
 8003e42:	6802      	ldr	r2, [r0, #0]
 8003e44:	f811 0b01 	ldrb.w	r0, [r1], #1
 8003e48:	6110      	str	r0, [r2, #16]
      hi2c->XferCount--;
 8003e4a:	8d5a      	ldrh	r2, [r3, #42]	; 0x2a
      hi2c->pBuffPtr++;
 8003e4c:	6259      	str	r1, [r3, #36]	; 0x24
      hi2c->XferCount--;
 8003e4e:	3a01      	subs	r2, #1
 8003e50:	b292      	uxth	r2, r2
 8003e52:	855a      	strh	r2, [r3, #42]	; 0x2a
 8003e54:	4770      	bx	lr
 8003e56:	bf00      	nop

08003e58 <HAL_I2C_MemRxCpltCallback>:
 8003e58:	4770      	bx	lr
 8003e5a:	bf00      	nop

08003e5c <HAL_I2C_ErrorCallback>:
 8003e5c:	4770      	bx	lr
 8003e5e:	bf00      	nop

08003e60 <HAL_I2C_AbortCpltCallback>:
 8003e60:	4770      	bx	lr
 8003e62:	bf00      	nop

08003e64 <I2C_DMAAbort>:
{
 8003e64:	b570      	push	{r4, r5, r6, lr}
  count = I2C_TIMEOUT_FLAG * (SystemCoreClock / 25U / 1000U);
 8003e66:	4b3a      	ldr	r3, [pc, #232]	; (8003f50 <I2C_DMAAbort+0xec>)
 8003e68:	493a      	ldr	r1, [pc, #232]	; (8003f54 <I2C_DMAAbort+0xf0>)
 8003e6a:	681b      	ldr	r3, [r3, #0]
  I2C_HandleTypeDef *hi2c = (I2C_HandleTypeDef *)((DMA_HandleTypeDef *)hdma)->Parent; /* Derogation MISRAC2012-Rule-11.5 */
 8003e6c:	6b80      	ldr	r0, [r0, #56]	; 0x38
{
 8003e6e:	b082      	sub	sp, #8
  count = I2C_TIMEOUT_FLAG * (SystemCoreClock / 25U / 1000U);
 8003e70:	08db      	lsrs	r3, r3, #3
  __IO uint32_t count = 0U;
 8003e72:	2200      	movs	r2, #0
  count = I2C_TIMEOUT_FLAG * (SystemCoreClock / 25U / 1000U);
 8003e74:	fba1 1303 	umull	r1, r3, r1, r3
  __IO uint32_t count = 0U;
 8003e78:	9201      	str	r2, [sp, #4]
  count = I2C_TIMEOUT_FLAG * (SystemCoreClock / 25U / 1000U);
 8003e7a:	0a1b      	lsrs	r3, r3, #8
  HAL_I2C_StateTypeDef CurrentState = hi2c->State;
 8003e7c:	f890 103d 	ldrb.w	r1, [r0, #61]	; 0x3d
  while (READ_BIT(hi2c->Instance->CR1, I2C_CR1_STOP) == I2C_CR1_STOP);
 8003e80:	6802      	ldr	r2, [r0, #0]
  count = I2C_TIMEOUT_FLAG * (SystemCoreClock / 25U / 1000U);
 8003e82:	eb03 0383 	add.w	r3, r3, r3, lsl #2
 8003e86:	ebc3 03c3 	rsb	r3, r3, r3, lsl #3
  HAL_I2C_StateTypeDef CurrentState = hi2c->State;
 8003e8a:	b2c9      	uxtb	r1, r1
  count = I2C_TIMEOUT_FLAG * (SystemCoreClock / 25U / 1000U);
 8003e8c:	9301      	str	r3, [sp, #4]
 8003e8e:	e005      	b.n	8003e9c <I2C_DMAAbort+0x38>
    count--;
 8003e90:	9b01      	ldr	r3, [sp, #4]
 8003e92:	3b01      	subs	r3, #1
 8003e94:	9301      	str	r3, [sp, #4]
  while (READ_BIT(hi2c->Instance->CR1, I2C_CR1_STOP) == I2C_CR1_STOP);
 8003e96:	6813      	ldr	r3, [r2, #0]
 8003e98:	059b      	lsls	r3, r3, #22
 8003e9a:	d506      	bpl.n	8003eaa <I2C_DMAAbort+0x46>
    if (count == 0U)
 8003e9c:	9b01      	ldr	r3, [sp, #4]
 8003e9e:	2b00      	cmp	r3, #0
 8003ea0:	d1f6      	bne.n	8003e90 <I2C_DMAAbort+0x2c>
      hi2c->ErrorCode |= HAL_I2C_ERROR_TIMEOUT;
 8003ea2:	6c03      	ldr	r3, [r0, #64]	; 0x40
 8003ea4:	f043 0320 	orr.w	r3, r3, #32
 8003ea8:	6403      	str	r3, [r0, #64]	; 0x40
  if (hi2c->hdmatx != NULL)
 8003eaa:	6b44      	ldr	r4, [r0, #52]	; 0x34
 8003eac:	b34c      	cbz	r4, 8003f02 <I2C_DMAAbort+0x9e>
  if (hi2c->hdmarx != NULL)
 8003eae:	6b83      	ldr	r3, [r0, #56]	; 0x38
    hi2c->hdmatx->XferCpltCallback = NULL;
 8003eb0:	2500      	movs	r5, #0
 8003eb2:	63e5      	str	r5, [r4, #60]	; 0x3c
  if (hi2c->hdmarx != NULL)
 8003eb4:	b1f3      	cbz	r3, 8003ef4 <I2C_DMAAbort+0x90>
  CLEAR_BIT(hi2c->Instance->CR1, I2C_CR1_ACK);
 8003eb6:	6816      	ldr	r6, [r2, #0]
    hi2c->hdmarx->XferCpltCallback = NULL;
 8003eb8:	63dd      	str	r5, [r3, #60]	; 0x3c
  CLEAR_BIT(hi2c->Instance->CR1, I2C_CR1_ACK);
 8003eba:	f426 6680 	bic.w	r6, r6, #1024	; 0x400
 8003ebe:	6016      	str	r6, [r2, #0]
  hi2c->XferCount = 0U;
 8003ec0:	8545      	strh	r5, [r0, #42]	; 0x2a
    hi2c->hdmatx->XferAbortCallback = NULL;
 8003ec2:	6525      	str	r5, [r4, #80]	; 0x50
    hi2c->hdmarx->XferAbortCallback = NULL;
 8003ec4:	2400      	movs	r4, #0
 8003ec6:	651c      	str	r4, [r3, #80]	; 0x50
  __HAL_I2C_DISABLE(hi2c);
 8003ec8:	6813      	ldr	r3, [r2, #0]
 8003eca:	f023 0301 	bic.w	r3, r3, #1
 8003ece:	6013      	str	r3, [r2, #0]
  if (hi2c->State == HAL_I2C_STATE_ABORT)
 8003ed0:	f890 303d 	ldrb.w	r3, [r0, #61]	; 0x3d
 8003ed4:	2b60      	cmp	r3, #96	; 0x60
 8003ed6:	d02a      	beq.n	8003f2e <I2C_DMAAbort+0xca>
    if (((uint32_t)CurrentState & (uint32_t)HAL_I2C_STATE_LISTEN) == (uint32_t)HAL_I2C_STATE_LISTEN)
 8003ed8:	f001 0128 	and.w	r1, r1, #40	; 0x28
 8003edc:	2928      	cmp	r1, #40	; 0x28
 8003ede:	d019      	beq.n	8003f14 <I2C_DMAAbort+0xb0>
      hi2c->State = HAL_I2C_STATE_READY;
 8003ee0:	2220      	movs	r2, #32
      hi2c->Mode = HAL_I2C_MODE_NONE;
 8003ee2:	2300      	movs	r3, #0
      hi2c->State = HAL_I2C_STATE_READY;
 8003ee4:	f880 203d 	strb.w	r2, [r0, #61]	; 0x3d
      hi2c->Mode = HAL_I2C_MODE_NONE;
 8003ee8:	f880 303e 	strb.w	r3, [r0, #62]	; 0x3e
    HAL_I2C_ErrorCallback(hi2c);
 8003eec:	f7ff ffb6 	bl	8003e5c <HAL_I2C_ErrorCallback>
}
 8003ef0:	b002      	add	sp, #8
 8003ef2:	bd70      	pop	{r4, r5, r6, pc}
  CLEAR_BIT(hi2c->Instance->CR1, I2C_CR1_ACK);
 8003ef4:	6815      	ldr	r5, [r2, #0]
 8003ef6:	f425 6580 	bic.w	r5, r5, #1024	; 0x400
 8003efa:	6015      	str	r5, [r2, #0]
  hi2c->XferCount = 0U;
 8003efc:	8543      	strh	r3, [r0, #42]	; 0x2a
    hi2c->hdmatx->XferAbortCallback = NULL;
 8003efe:	6523      	str	r3, [r4, #80]	; 0x50
  if (hi2c->hdmarx != NULL)
 8003f00:	e7e2      	b.n	8003ec8 <I2C_DMAAbort+0x64>
  if (hi2c->hdmarx != NULL)
 8003f02:	6b83      	ldr	r3, [r0, #56]	; 0x38
 8003f04:	b1f3      	cbz	r3, 8003f44 <I2C_DMAAbort+0xe0>
  CLEAR_BIT(hi2c->Instance->CR1, I2C_CR1_ACK);
 8003f06:	6815      	ldr	r5, [r2, #0]
    hi2c->hdmarx->XferCpltCallback = NULL;
 8003f08:	63dc      	str	r4, [r3, #60]	; 0x3c
  CLEAR_BIT(hi2c->Instance->CR1, I2C_CR1_ACK);
 8003f0a:	f425 6580 	bic.w	r5, r5, #1024	; 0x400
 8003f0e:	6015      	str	r5, [r2, #0]
  hi2c->XferCount = 0U;
 8003f10:	8544      	strh	r4, [r0, #42]	; 0x2a
  if (hi2c->hdmatx != NULL)
 8003f12:	e7d7      	b.n	8003ec4 <I2C_DMAAbort+0x60>
      __HAL_I2C_ENABLE(hi2c);
 8003f14:	6813      	ldr	r3, [r2, #0]
 8003f16:	f043 0301 	orr.w	r3, r3, #1
 8003f1a:	6013      	str	r3, [r2, #0]
      SET_BIT(hi2c->Instance->CR1, I2C_CR1_ACK);
 8003f1c:	6813      	ldr	r3, [r2, #0]
      hi2c->PreviousState = I2C_STATE_NONE;
 8003f1e:	2400      	movs	r4, #0
      SET_BIT(hi2c->Instance->CR1, I2C_CR1_ACK);
 8003f20:	f443 6380 	orr.w	r3, r3, #1024	; 0x400
 8003f24:	6013      	str	r3, [r2, #0]
      hi2c->PreviousState = I2C_STATE_NONE;
 8003f26:	6304      	str	r4, [r0, #48]	; 0x30
      hi2c->State = HAL_I2C_STATE_LISTEN;
 8003f28:	f880 103d 	strb.w	r1, [r0, #61]	; 0x3d
 8003f2c:	e7de      	b.n	8003eec <I2C_DMAAbort+0x88>
    hi2c->Mode          = HAL_I2C_MODE_NONE;
 8003f2e:	2300      	movs	r3, #0
    hi2c->State         = HAL_I2C_STATE_READY;
 8003f30:	2220      	movs	r2, #32
 8003f32:	f880 203d 	strb.w	r2, [r0, #61]	; 0x3d
    hi2c->Mode          = HAL_I2C_MODE_NONE;
 8003f36:	f880 303e 	strb.w	r3, [r0, #62]	; 0x3e
    hi2c->ErrorCode     = HAL_I2C_ERROR_NONE;
 8003f3a:	6403      	str	r3, [r0, #64]	; 0x40
    HAL_I2C_AbortCpltCallback(hi2c);
 8003f3c:	f7ff ff90 	bl	8003e60 <HAL_I2C_AbortCpltCallback>
}
 8003f40:	b002      	add	sp, #8
 8003f42:	bd70      	pop	{r4, r5, r6, pc}
  CLEAR_BIT(hi2c->Instance->CR1, I2C_CR1_ACK);
 8003f44:	6814      	ldr	r4, [r2, #0]
 8003f46:	f424 6480 	bic.w	r4, r4, #1024	; 0x400
 8003f4a:	6014      	str	r4, [r2, #0]
  hi2c->XferCount = 0U;
 8003f4c:	8543      	strh	r3, [r0, #42]	; 0x2a
  if (hi2c->hdmatx != NULL)
 8003f4e:	e7bb      	b.n	8003ec8 <I2C_DMAAbort+0x64>
 8003f50:	20000040 	.word	0x20000040
 8003f54:	14f8b589 	.word	0x14f8b589

08003f58 <I2C_ITError>:
{
 8003f58:	b510      	push	{r4, lr}
  HAL_I2C_StateTypeDef CurrentState = hi2c->State;
 8003f5a:	f890 203d 	ldrb.w	r2, [r0, #61]	; 0x3d
  HAL_I2C_ModeTypeDef CurrentMode = hi2c->Mode;
 8003f5e:	f890 303e 	ldrb.w	r3, [r0, #62]	; 0x3e
  if (((CurrentMode == HAL_I2C_MODE_MASTER) || (CurrentMode == HAL_I2C_MODE_MEM)) && (CurrentState == HAL_I2C_STATE_BUSY_RX))
 8003f62:	2b10      	cmp	r3, #16
{
 8003f64:	4604      	mov	r4, r0
  HAL_I2C_StateTypeDef CurrentState = hi2c->State;
 8003f66:	b2d2      	uxtb	r2, r2
  if (((CurrentMode == HAL_I2C_MODE_MASTER) || (CurrentMode == HAL_I2C_MODE_MEM)) && (CurrentState == HAL_I2C_STATE_BUSY_RX))
 8003f68:	d039      	beq.n	8003fde <I2C_ITError+0x86>
 8003f6a:	b2d9      	uxtb	r1, r3
 8003f6c:	2940      	cmp	r1, #64	; 0x40
 8003f6e:	d036      	beq.n	8003fde <I2C_ITError+0x86>
  if (((uint32_t)CurrentState & (uint32_t)HAL_I2C_STATE_LISTEN) == (uint32_t)HAL_I2C_STATE_LISTEN)
 8003f70:	f002 0128 	and.w	r1, r2, #40	; 0x28
 8003f74:	2928      	cmp	r1, #40	; 0x28
 8003f76:	d03d      	beq.n	8003ff4 <I2C_ITError+0x9c>
    hi2c->Instance->CR1 &= ~I2C_CR1_POS;
 8003f78:	6823      	ldr	r3, [r4, #0]
    if ((READ_BIT(hi2c->Instance->CR2, I2C_CR2_DMAEN) != I2C_CR2_DMAEN) && (CurrentState != HAL_I2C_STATE_ABORT))
 8003f7a:	6859      	ldr	r1, [r3, #4]
 8003f7c:	0508      	lsls	r0, r1, #20
 8003f7e:	d407      	bmi.n	8003f90 <I2C_ITError+0x38>
 8003f80:	2a60      	cmp	r2, #96	; 0x60
 8003f82:	d005      	beq.n	8003f90 <I2C_ITError+0x38>
      hi2c->State = HAL_I2C_STATE_READY;
 8003f84:	2120      	movs	r1, #32
      hi2c->Mode = HAL_I2C_MODE_NONE;
 8003f86:	2200      	movs	r2, #0
      hi2c->State = HAL_I2C_STATE_READY;
 8003f88:	f884 103d 	strb.w	r1, [r4, #61]	; 0x3d
      hi2c->Mode = HAL_I2C_MODE_NONE;
 8003f8c:	f884 203e 	strb.w	r2, [r4, #62]	; 0x3e
    hi2c->PreviousState = I2C_STATE_NONE;
 8003f90:	2200      	movs	r2, #0
 8003f92:	6322      	str	r2, [r4, #48]	; 0x30
  if (READ_BIT(hi2c->Instance->CR2, I2C_CR2_DMAEN) == I2C_CR2_DMAEN)
 8003f94:	685a      	ldr	r2, [r3, #4]
 8003f96:	f412 6200 	ands.w	r2, r2, #2048	; 0x800
 8003f9a:	d134      	bne.n	8004006 <I2C_ITError+0xae>
  else if (hi2c->State == HAL_I2C_STATE_ABORT)
 8003f9c:	f894 103d 	ldrb.w	r1, [r4, #61]	; 0x3d
 8003fa0:	2960      	cmp	r1, #96	; 0x60
 8003fa2:	d075      	beq.n	8004090 <I2C_ITError+0x138>
    if (__HAL_I2C_GET_FLAG(hi2c, I2C_FLAG_RXNE) == SET)
 8003fa4:	695a      	ldr	r2, [r3, #20]
 8003fa6:	0650      	lsls	r0, r2, #25
 8003fa8:	d505      	bpl.n	8003fb6 <I2C_ITError+0x5e>
      *hi2c->pBuffPtr = (uint8_t)hi2c->Instance->DR;
 8003faa:	6a62      	ldr	r2, [r4, #36]	; 0x24
 8003fac:	691b      	ldr	r3, [r3, #16]
 8003fae:	7013      	strb	r3, [r2, #0]
      hi2c->pBuffPtr++;
 8003fb0:	6a63      	ldr	r3, [r4, #36]	; 0x24
 8003fb2:	3301      	adds	r3, #1
 8003fb4:	6263      	str	r3, [r4, #36]	; 0x24
    HAL_I2C_ErrorCallback(hi2c);
 8003fb6:	4620      	mov	r0, r4
 8003fb8:	f7ff ff50 	bl	8003e5c <HAL_I2C_ErrorCallback>
  CurrentError = hi2c->ErrorCode;
 8003fbc:	6c23      	ldr	r3, [r4, #64]	; 0x40
  if (((CurrentError & HAL_I2C_ERROR_BERR) == HAL_I2C_ERROR_BERR) || \
 8003fbe:	0719      	lsls	r1, r3, #28
 8003fc0:	d004      	beq.n	8003fcc <I2C_ITError+0x74>
    __HAL_I2C_DISABLE_IT(hi2c, I2C_IT_EVT | I2C_IT_BUF | I2C_IT_ERR);
 8003fc2:	6822      	ldr	r2, [r4, #0]
 8003fc4:	6853      	ldr	r3, [r2, #4]
 8003fc6:	f423 63e0 	bic.w	r3, r3, #1792	; 0x700
 8003fca:	6053      	str	r3, [r2, #4]
  CurrentState = hi2c->State;
 8003fcc:	f894 303d 	ldrb.w	r3, [r4, #61]	; 0x3d
  if (((hi2c->ErrorCode & HAL_I2C_ERROR_AF) == HAL_I2C_ERROR_AF) && (CurrentState == HAL_I2C_STATE_LISTEN))
 8003fd0:	6c22      	ldr	r2, [r4, #64]	; 0x40
 8003fd2:	0752      	lsls	r2, r2, #29
  CurrentState = hi2c->State;
 8003fd4:	b2db      	uxtb	r3, r3
  if (((hi2c->ErrorCode & HAL_I2C_ERROR_AF) == HAL_I2C_ERROR_AF) && (CurrentState == HAL_I2C_STATE_LISTEN))
 8003fd6:	d501      	bpl.n	8003fdc <I2C_ITError+0x84>
 8003fd8:	2b28      	cmp	r3, #40	; 0x28
 8003fda:	d02f      	beq.n	800403c <I2C_ITError+0xe4>
}
 8003fdc:	bd10      	pop	{r4, pc}
  if (((CurrentMode == HAL_I2C_MODE_MASTER) || (CurrentMode == HAL_I2C_MODE_MEM)) && (CurrentState == HAL_I2C_STATE_BUSY_RX))
 8003fde:	2a22      	cmp	r2, #34	; 0x22
 8003fe0:	d1c6      	bne.n	8003f70 <I2C_ITError+0x18>
    hi2c->Instance->CR1 &= ~I2C_CR1_POS;
 8003fe2:	6823      	ldr	r3, [r4, #0]
 8003fe4:	681a      	ldr	r2, [r3, #0]
 8003fe6:	f422 6200 	bic.w	r2, r2, #2048	; 0x800
 8003fea:	601a      	str	r2, [r3, #0]
    if ((READ_BIT(hi2c->Instance->CR2, I2C_CR2_DMAEN) != I2C_CR2_DMAEN) && (CurrentState != HAL_I2C_STATE_ABORT))
 8003fec:	685a      	ldr	r2, [r3, #4]
 8003fee:	0512      	lsls	r2, r2, #20
 8003ff0:	d5c8      	bpl.n	8003f84 <I2C_ITError+0x2c>
 8003ff2:	e7cd      	b.n	8003f90 <I2C_ITError+0x38>
    hi2c->PreviousState = I2C_STATE_NONE;
 8003ff4:	2300      	movs	r3, #0
 8003ff6:	6323      	str	r3, [r4, #48]	; 0x30
    hi2c->Instance->CR1 &= ~I2C_CR1_POS;
 8003ff8:	6823      	ldr	r3, [r4, #0]
    hi2c->State = HAL_I2C_STATE_LISTEN;
 8003ffa:	f884 103d 	strb.w	r1, [r4, #61]	; 0x3d
  if (READ_BIT(hi2c->Instance->CR2, I2C_CR2_DMAEN) == I2C_CR2_DMAEN)
 8003ffe:	685a      	ldr	r2, [r3, #4]
 8004000:	f412 6200 	ands.w	r2, r2, #2048	; 0x800
 8004004:	d0ca      	beq.n	8003f9c <I2C_ITError+0x44>
    hi2c->Instance->CR2 &= ~I2C_CR2_DMAEN;
 8004006:	685a      	ldr	r2, [r3, #4]
    if (hi2c->hdmatx->State != HAL_DMA_STATE_READY)
 8004008:	6b60      	ldr	r0, [r4, #52]	; 0x34
    hi2c->Instance->CR2 &= ~I2C_CR2_DMAEN;
 800400a:	f422 6200 	bic.w	r2, r2, #2048	; 0x800
 800400e:	605a      	str	r2, [r3, #4]
    if (hi2c->hdmatx->State != HAL_DMA_STATE_READY)
 8004010:	f890 3035 	ldrb.w	r3, [r0, #53]	; 0x35
 8004014:	2b01      	cmp	r3, #1
 8004016:	d01e      	beq.n	8004056 <I2C_ITError+0xfe>
      hi2c->hdmatx->XferAbortCallback = I2C_DMAAbort;
 8004018:	4b28      	ldr	r3, [pc, #160]	; (80040bc <I2C_ITError+0x164>)
 800401a:	6503      	str	r3, [r0, #80]	; 0x50
      if (HAL_DMA_Abort_IT(hi2c->hdmatx) != HAL_OK)
 800401c:	f7fe fee4 	bl	8002de8 <HAL_DMA_Abort_IT>
 8004020:	2800      	cmp	r0, #0
 8004022:	d0cb      	beq.n	8003fbc <I2C_ITError+0x64>
        __HAL_I2C_DISABLE(hi2c);
 8004024:	6822      	ldr	r2, [r4, #0]
        hi2c->hdmatx->XferAbortCallback(hi2c->hdmatx);
 8004026:	6b60      	ldr	r0, [r4, #52]	; 0x34
        __HAL_I2C_DISABLE(hi2c);
 8004028:	6813      	ldr	r3, [r2, #0]
        hi2c->State = HAL_I2C_STATE_READY;
 800402a:	2120      	movs	r1, #32
        __HAL_I2C_DISABLE(hi2c);
 800402c:	f023 0301 	bic.w	r3, r3, #1
 8004030:	6013      	str	r3, [r2, #0]
        hi2c->State = HAL_I2C_STATE_READY;
 8004032:	f884 103d 	strb.w	r1, [r4, #61]	; 0x3d
        hi2c->hdmatx->XferAbortCallback(hi2c->hdmatx);
 8004036:	6d03      	ldr	r3, [r0, #80]	; 0x50
 8004038:	4798      	blx	r3
 800403a:	e7bf      	b.n	8003fbc <I2C_ITError+0x64>
    hi2c->PreviousState = I2C_STATE_NONE;
 800403c:	2300      	movs	r3, #0
    hi2c->XferOptions   = I2C_NO_OPTION_FRAME;
 800403e:	4920      	ldr	r1, [pc, #128]	; (80040c0 <I2C_ITError+0x168>)
 8004040:	62e1      	str	r1, [r4, #44]	; 0x2c
    hi2c->State         = HAL_I2C_STATE_READY;
 8004042:	2220      	movs	r2, #32
    hi2c->PreviousState = I2C_STATE_NONE;
 8004044:	6323      	str	r3, [r4, #48]	; 0x30
    HAL_I2C_ListenCpltCallback(hi2c);
 8004046:	4620      	mov	r0, r4
    hi2c->State         = HAL_I2C_STATE_READY;
 8004048:	f884 203d 	strb.w	r2, [r4, #61]	; 0x3d
    hi2c->Mode          = HAL_I2C_MODE_NONE;
 800404c:	f884 303e 	strb.w	r3, [r4, #62]	; 0x3e
    HAL_I2C_ListenCpltCallback(hi2c);
 8004050:	f7ff fea0 	bl	8003d94 <HAL_I2C_ListenCpltCallback>
}
 8004054:	bd10      	pop	{r4, pc}
      hi2c->hdmarx->XferAbortCallback = I2C_DMAAbort;
 8004056:	6ba0      	ldr	r0, [r4, #56]	; 0x38
 8004058:	4b18      	ldr	r3, [pc, #96]	; (80040bc <I2C_ITError+0x164>)
 800405a:	6503      	str	r3, [r0, #80]	; 0x50
      if (HAL_DMA_Abort_IT(hi2c->hdmarx) != HAL_OK)
 800405c:	f7fe fec4 	bl	8002de8 <HAL_DMA_Abort_IT>
 8004060:	2800      	cmp	r0, #0
 8004062:	d0ab      	beq.n	8003fbc <I2C_ITError+0x64>
        if (__HAL_I2C_GET_FLAG(hi2c, I2C_FLAG_RXNE) == SET)
 8004064:	6823      	ldr	r3, [r4, #0]
 8004066:	695a      	ldr	r2, [r3, #20]
 8004068:	0651      	lsls	r1, r2, #25
 800406a:	d506      	bpl.n	800407a <I2C_ITError+0x122>
          *hi2c->pBuffPtr = (uint8_t)hi2c->Instance->DR;
 800406c:	6a62      	ldr	r2, [r4, #36]	; 0x24
 800406e:	691b      	ldr	r3, [r3, #16]
 8004070:	7013      	strb	r3, [r2, #0]
          hi2c->pBuffPtr++;
 8004072:	6a62      	ldr	r2, [r4, #36]	; 0x24
        __HAL_I2C_DISABLE(hi2c);
 8004074:	6823      	ldr	r3, [r4, #0]
          hi2c->pBuffPtr++;
 8004076:	3201      	adds	r2, #1
 8004078:	6262      	str	r2, [r4, #36]	; 0x24
        __HAL_I2C_DISABLE(hi2c);
 800407a:	681a      	ldr	r2, [r3, #0]
        hi2c->hdmarx->XferAbortCallback(hi2c->hdmarx);
 800407c:	6ba0      	ldr	r0, [r4, #56]	; 0x38
        __HAL_I2C_DISABLE(hi2c);
 800407e:	f022 0201 	bic.w	r2, r2, #1
        hi2c->State = HAL_I2C_STATE_READY;
 8004082:	2120      	movs	r1, #32
        __HAL_I2C_DISABLE(hi2c);
 8004084:	601a      	str	r2, [r3, #0]
        hi2c->State = HAL_I2C_STATE_READY;
 8004086:	f884 103d 	strb.w	r1, [r4, #61]	; 0x3d
        hi2c->hdmarx->XferAbortCallback(hi2c->hdmarx);
 800408a:	6d03      	ldr	r3, [r0, #80]	; 0x50
 800408c:	4798      	blx	r3
 800408e:	e795      	b.n	8003fbc <I2C_ITError+0x64>
    hi2c->State = HAL_I2C_STATE_READY;
 8004090:	2120      	movs	r1, #32
 8004092:	f884 103d 	strb.w	r1, [r4, #61]	; 0x3d
    hi2c->ErrorCode = HAL_I2C_ERROR_NONE;
 8004096:	6422      	str	r2, [r4, #64]	; 0x40
    if (__HAL_I2C_GET_FLAG(hi2c, I2C_FLAG_RXNE) == SET)
 8004098:	695a      	ldr	r2, [r3, #20]
 800409a:	0652      	lsls	r2, r2, #25
 800409c:	d506      	bpl.n	80040ac <I2C_ITError+0x154>
      *hi2c->pBuffPtr = (uint8_t)hi2c->Instance->DR;
 800409e:	6a62      	ldr	r2, [r4, #36]	; 0x24
 80040a0:	691b      	ldr	r3, [r3, #16]
 80040a2:	7013      	strb	r3, [r2, #0]
      hi2c->pBuffPtr++;
 80040a4:	6a62      	ldr	r2, [r4, #36]	; 0x24
    __HAL_I2C_DISABLE(hi2c);
 80040a6:	6823      	ldr	r3, [r4, #0]
      hi2c->pBuffPtr++;
 80040a8:	3201      	adds	r2, #1
 80040aa:	6262      	str	r2, [r4, #36]	; 0x24
    __HAL_I2C_DISABLE(hi2c);
 80040ac:	681a      	ldr	r2, [r3, #0]
 80040ae:	f022 0201 	bic.w	r2, r2, #1
    HAL_I2C_AbortCpltCallback(hi2c);
 80040b2:	4620      	mov	r0, r4
    __HAL_I2C_DISABLE(hi2c);
 80040b4:	601a      	str	r2, [r3, #0]
    HAL_I2C_AbortCpltCallback(hi2c);
 80040b6:	f7ff fed3 	bl	8003e60 <HAL_I2C_AbortCpltCallback>
 80040ba:	e77f      	b.n	8003fbc <I2C_ITError+0x64>
 80040bc:	08003e65 	.word	0x08003e65
 80040c0:	ffff0000 	.word	0xffff0000

080040c4 <HAL_I2C_EV_IRQHandler>:
{
 80040c4:	b570      	push	{r4, r5, r6, lr}
  uint32_t itsources                = READ_REG(hi2c->Instance->CR2);
 80040c6:	6803      	ldr	r3, [r0, #0]
{
 80040c8:	4604      	mov	r4, r0
  uint32_t itsources                = READ_REG(hi2c->Instance->CR2);
 80040ca:	6858      	ldr	r0, [r3, #4]
  uint32_t CurrentXferOptions       = hi2c->XferOptions;
 80040cc:	6ae5      	ldr	r5, [r4, #44]	; 0x2c
  HAL_I2C_ModeTypeDef CurrentMode   = hi2c->Mode;
 80040ce:	f894 103e 	ldrb.w	r1, [r4, #62]	; 0x3e
  HAL_I2C_StateTypeDef CurrentState = hi2c->State;
 80040d2:	f894 203d 	ldrb.w	r2, [r4, #61]	; 0x3d
  if ((CurrentMode == HAL_I2C_MODE_MASTER) || (CurrentMode == HAL_I2C_MODE_MEM))
 80040d6:	2910      	cmp	r1, #16
{
 80040d8:	b08e      	sub	sp, #56	; 0x38
  HAL_I2C_StateTypeDef CurrentState = hi2c->State;
 80040da:	b2d2      	uxtb	r2, r2
  HAL_I2C_ModeTypeDef CurrentMode   = hi2c->Mode;
 80040dc:	fa5f fc81 	uxtb.w	ip, r1
  if ((CurrentMode == HAL_I2C_MODE_MASTER) || (CurrentMode == HAL_I2C_MODE_MEM))
 80040e0:	d024      	beq.n	800412c <HAL_I2C_EV_IRQHandler+0x68>
 80040e2:	f1bc 0f40 	cmp.w	ip, #64	; 0x40
 80040e6:	d021      	beq.n	800412c <HAL_I2C_EV_IRQHandler+0x68>
    if (hi2c->ErrorCode != HAL_I2C_ERROR_NONE)
 80040e8:	6c21      	ldr	r1, [r4, #64]	; 0x40
 80040ea:	2900      	cmp	r1, #0
 80040ec:	f000 8096 	beq.w	800421c <HAL_I2C_EV_IRQHandler+0x158>
      sr1itflags   = READ_REG(hi2c->Instance->SR1);
 80040f0:	6959      	ldr	r1, [r3, #20]
  uint32_t sr2itflags               = 0U;
 80040f2:	2500      	movs	r5, #0
    if ((I2C_CHECK_FLAG(sr1itflags, I2C_FLAG_ADDR) != RESET) && (I2C_CHECK_IT_SOURCE(itsources, I2C_IT_EVT) != RESET))
 80040f4:	f011 0f02 	tst.w	r1, #2
 80040f8:	f3c1 0640 	ubfx	r6, r1, #1, #1
 80040fc:	d059      	beq.n	80041b2 <HAL_I2C_EV_IRQHandler+0xee>
 80040fe:	0586      	lsls	r6, r0, #22
 8004100:	d559      	bpl.n	80041b6 <HAL_I2C_EV_IRQHandler+0xf2>
      if (hi2c->ErrorCode != HAL_I2C_ERROR_NONE)
 8004102:	6c22      	ldr	r2, [r4, #64]	; 0x40
 8004104:	b102      	cbz	r2, 8004108 <HAL_I2C_EV_IRQHandler+0x44>
        sr2itflags   = READ_REG(hi2c->Instance->SR2);
 8004106:	699d      	ldr	r5, [r3, #24]
  if (((uint32_t)hi2c->State & (uint32_t)HAL_I2C_STATE_LISTEN) == (uint32_t)HAL_I2C_STATE_LISTEN)
 8004108:	f894 203d 	ldrb.w	r2, [r4, #61]	; 0x3d
 800410c:	f002 0228 	and.w	r2, r2, #40	; 0x28
 8004110:	2a28      	cmp	r2, #40	; 0x28
 8004112:	f000 821f 	beq.w	8004554 <HAL_I2C_EV_IRQHandler+0x490>
    __HAL_I2C_CLEAR_ADDRFLAG(hi2c);
 8004116:	2200      	movs	r2, #0
 8004118:	920c      	str	r2, [sp, #48]	; 0x30
 800411a:	6959      	ldr	r1, [r3, #20]
 800411c:	910c      	str	r1, [sp, #48]	; 0x30
 800411e:	699b      	ldr	r3, [r3, #24]
 8004120:	930c      	str	r3, [sp, #48]	; 0x30
 8004122:	9b0c      	ldr	r3, [sp, #48]	; 0x30
    __HAL_UNLOCK(hi2c);
 8004124:	f884 203c 	strb.w	r2, [r4, #60]	; 0x3c
}
 8004128:	b00e      	add	sp, #56	; 0x38
 800412a:	bd70      	pop	{r4, r5, r6, pc}
    sr2itflags   = READ_REG(hi2c->Instance->SR2);
 800412c:	699e      	ldr	r6, [r3, #24]
    sr1itflags   = READ_REG(hi2c->Instance->SR1);
 800412e:	6959      	ldr	r1, [r3, #20]
    if ((I2C_CHECK_FLAG(sr1itflags, I2C_FLAG_SB) == RESET) && (IS_I2C_TRANSFER_OTHER_OPTIONS_REQUEST(CurrentXferOptions) == 1U))
 8004130:	f011 0f01 	tst.w	r1, #1
 8004134:	d11a      	bne.n	800416c <HAL_I2C_EV_IRQHandler+0xa8>
 8004136:	f5b5 0f2a 	cmp.w	r5, #11141120	; 0xaa0000
 800413a:	d0f5      	beq.n	8004128 <HAL_I2C_EV_IRQHandler+0x64>
 800413c:	f1b5 4f2a 	cmp.w	r5, #2852126720	; 0xaa000000
 8004140:	d0f2      	beq.n	8004128 <HAL_I2C_EV_IRQHandler+0x64>
    else if ((I2C_CHECK_FLAG(sr1itflags, I2C_FLAG_ADD10) != RESET) && (I2C_CHECK_IT_SOURCE(itsources, I2C_IT_EVT) != RESET))
 8004142:	070d      	lsls	r5, r1, #28
 8004144:	d56d      	bpl.n	8004222 <HAL_I2C_EV_IRQHandler+0x15e>
 8004146:	0585      	lsls	r5, r0, #22
 8004148:	f140 8083 	bpl.w	8004252 <HAL_I2C_EV_IRQHandler+0x18e>
  hi2c->Instance->DR = I2C_10BIT_ADDRESS(hi2c->Devaddress);
 800414c:	6c62      	ldr	r2, [r4, #68]	; 0x44
  if (((hi2c->hdmatx != NULL) && (hi2c->hdmatx->XferCpltCallback != NULL))
 800414e:	6b61      	ldr	r1, [r4, #52]	; 0x34
 8004150:	b2d2      	uxtb	r2, r2
  hi2c->Instance->DR = I2C_10BIT_ADDRESS(hi2c->Devaddress);
 8004152:	611a      	str	r2, [r3, #16]
  if (((hi2c->hdmatx != NULL) && (hi2c->hdmatx->XferCpltCallback != NULL))
 8004154:	2900      	cmp	r1, #0
 8004156:	f000 81e4 	beq.w	8004522 <HAL_I2C_EV_IRQHandler+0x45e>
 800415a:	6bca      	ldr	r2, [r1, #60]	; 0x3c
 800415c:	2a00      	cmp	r2, #0
 800415e:	f000 81e0 	beq.w	8004522 <HAL_I2C_EV_IRQHandler+0x45e>
    SET_BIT(hi2c->Instance->CR2, I2C_CR2_DMAEN);
 8004162:	685a      	ldr	r2, [r3, #4]
 8004164:	f442 6200 	orr.w	r2, r2, #2048	; 0x800
 8004168:	605a      	str	r2, [r3, #4]
 800416a:	e7dd      	b.n	8004128 <HAL_I2C_EV_IRQHandler+0x64>
    if ((I2C_CHECK_FLAG(sr1itflags, I2C_FLAG_SB) != RESET) && (I2C_CHECK_IT_SOURCE(itsources, I2C_IT_EVT) != RESET))
 800416c:	0585      	lsls	r5, r0, #22
 800416e:	d56e      	bpl.n	800424e <HAL_I2C_EV_IRQHandler+0x18a>
static void I2C_ConvertOtherXferOptions(I2C_HandleTypeDef *hi2c)
{
  /* if user set XferOptions to I2C_OTHER_FRAME            */
  /* it request implicitly to generate a restart condition */
  /* set XferOptions to I2C_FIRST_FRAME                    */
  if (hi2c->XferOptions == I2C_OTHER_FRAME)
 8004170:	6ae2      	ldr	r2, [r4, #44]	; 0x2c
 8004172:	f5b2 0f2a 	cmp.w	r2, #11141120	; 0xaa0000
 8004176:	f000 81ea 	beq.w	800454e <HAL_I2C_EV_IRQHandler+0x48a>
  }
  /* else if user set XferOptions to I2C_OTHER_AND_LAST_FRAME */
  /* it request implicitly to generate a restart condition    */
  /* then generate a stop condition at the end of transfer    */
  /* set XferOptions to I2C_FIRST_AND_LAST_FRAME              */
  else if (hi2c->XferOptions == I2C_OTHER_AND_LAST_FRAME)
 800417a:	6ae2      	ldr	r2, [r4, #44]	; 0x2c
 800417c:	f1b2 4f2a 	cmp.w	r2, #2852126720	; 0xaa000000
  {
    hi2c->XferOptions = I2C_FIRST_AND_LAST_FRAME;
 8004180:	bf04      	itt	eq
 8004182:	2208      	moveq	r2, #8
 8004184:	62e2      	streq	r2, [r4, #44]	; 0x2c
  if (hi2c->Mode == HAL_I2C_MODE_MEM)
 8004186:	f894 203e 	ldrb.w	r2, [r4, #62]	; 0x3e
 800418a:	2a40      	cmp	r2, #64	; 0x40
 800418c:	f000 81d8 	beq.w	8004540 <HAL_I2C_EV_IRQHandler+0x47c>
    if (hi2c->Init.AddressingMode == I2C_ADDRESSINGMODE_7BIT)
 8004190:	6922      	ldr	r2, [r4, #16]
 8004192:	f5b2 4f80 	cmp.w	r2, #16384	; 0x4000
 8004196:	f000 81b3 	beq.w	8004500 <HAL_I2C_EV_IRQHandler+0x43c>
      if (hi2c->EventCount == 0U)
 800419a:	6d22      	ldr	r2, [r4, #80]	; 0x50
 800419c:	2a00      	cmp	r2, #0
 800419e:	f040 81ef 	bne.w	8004580 <HAL_I2C_EV_IRQHandler+0x4bc>
        hi2c->Instance->DR = I2C_10BIT_HEADER_WRITE(hi2c->Devaddress);
 80041a2:	6c62      	ldr	r2, [r4, #68]	; 0x44
 80041a4:	11d2      	asrs	r2, r2, #7
 80041a6:	f002 0206 	and.w	r2, r2, #6
 80041aa:	f042 02f0 	orr.w	r2, r2, #240	; 0xf0
 80041ae:	611a      	str	r2, [r3, #16]
 80041b0:	e7ba      	b.n	8004128 <HAL_I2C_EV_IRQHandler+0x64>
    else if ((I2C_CHECK_FLAG(sr1itflags, I2C_FLAG_STOPF) != RESET) && (I2C_CHECK_IT_SOURCE(itsources, I2C_IT_EVT) != RESET))
 80041b2:	06cd      	lsls	r5, r1, #27
 80041b4:	d47c      	bmi.n	80042b0 <HAL_I2C_EV_IRQHandler+0x1ec>
    else if ((CurrentState == HAL_I2C_STATE_BUSY_TX) || (CurrentState == HAL_I2C_STATE_BUSY_TX_LISTEN))
 80041b6:	f002 02f7 	and.w	r2, r2, #247	; 0xf7
 80041ba:	2a21      	cmp	r2, #33	; 0x21
 80041bc:	f000 80f5 	beq.w	80043aa <HAL_I2C_EV_IRQHandler+0x2e6>
      if ((I2C_CHECK_FLAG(sr1itflags, I2C_FLAG_RXNE) != RESET) && (I2C_CHECK_IT_SOURCE(itsources, I2C_IT_BUF) != RESET) && (I2C_CHECK_FLAG(sr1itflags, I2C_FLAG_BTF) == RESET))
 80041c0:	064e      	lsls	r6, r1, #25
 80041c2:	f140 8132 	bpl.w	800442a <HAL_I2C_EV_IRQHandler+0x366>
 80041c6:	0545      	lsls	r5, r0, #21
 80041c8:	f140 812f 	bpl.w	800442a <HAL_I2C_EV_IRQHandler+0x366>
 80041cc:	0749      	lsls	r1, r1, #29
 80041ce:	f100 812f 	bmi.w	8004430 <HAL_I2C_EV_IRQHandler+0x36c>
  HAL_I2C_StateTypeDef CurrentState = hi2c->State;
 80041d2:	f894 103d 	ldrb.w	r1, [r4, #61]	; 0x3d
  if (hi2c->XferCount != 0U)
 80041d6:	8d62      	ldrh	r2, [r4, #42]	; 0x2a
 80041d8:	b292      	uxth	r2, r2
  HAL_I2C_StateTypeDef CurrentState = hi2c->State;
 80041da:	b2c9      	uxtb	r1, r1
  if (hi2c->XferCount != 0U)
 80041dc:	2a00      	cmp	r2, #0
 80041de:	d0a3      	beq.n	8004128 <HAL_I2C_EV_IRQHandler+0x64>
    *hi2c->pBuffPtr = (uint8_t)hi2c->Instance->DR;
 80041e0:	6a62      	ldr	r2, [r4, #36]	; 0x24
 80041e2:	691b      	ldr	r3, [r3, #16]
 80041e4:	7013      	strb	r3, [r2, #0]
    hi2c->XferCount--;
 80041e6:	8d63      	ldrh	r3, [r4, #42]	; 0x2a
    hi2c->pBuffPtr++;
 80041e8:	6a62      	ldr	r2, [r4, #36]	; 0x24
    hi2c->XferCount--;
 80041ea:	3b01      	subs	r3, #1
 80041ec:	b29b      	uxth	r3, r3
 80041ee:	8563      	strh	r3, [r4, #42]	; 0x2a
    if ((hi2c->XferCount == 0U) && (CurrentState == HAL_I2C_STATE_BUSY_RX_LISTEN))
 80041f0:	8d63      	ldrh	r3, [r4, #42]	; 0x2a
    hi2c->pBuffPtr++;
 80041f2:	3201      	adds	r2, #1
    if ((hi2c->XferCount == 0U) && (CurrentState == HAL_I2C_STATE_BUSY_RX_LISTEN))
 80041f4:	b29b      	uxth	r3, r3
    hi2c->pBuffPtr++;
 80041f6:	6262      	str	r2, [r4, #36]	; 0x24
    if ((hi2c->XferCount == 0U) && (CurrentState == HAL_I2C_STATE_BUSY_RX_LISTEN))
 80041f8:	2b00      	cmp	r3, #0
 80041fa:	d195      	bne.n	8004128 <HAL_I2C_EV_IRQHandler+0x64>
 80041fc:	292a      	cmp	r1, #42	; 0x2a
 80041fe:	d193      	bne.n	8004128 <HAL_I2C_EV_IRQHandler+0x64>
      __HAL_I2C_DISABLE_IT(hi2c, I2C_IT_BUF);
 8004200:	6822      	ldr	r2, [r4, #0]
 8004202:	6853      	ldr	r3, [r2, #4]
      hi2c->PreviousState = I2C_STATE_SLAVE_BUSY_RX;
 8004204:	2522      	movs	r5, #34	; 0x22
      hi2c->State = HAL_I2C_STATE_LISTEN;
 8004206:	2128      	movs	r1, #40	; 0x28
      __HAL_I2C_DISABLE_IT(hi2c, I2C_IT_BUF);
 8004208:	f423 6380 	bic.w	r3, r3, #1024	; 0x400
 800420c:	6053      	str	r3, [r2, #4]
      HAL_I2C_SlaveRxCpltCallback(hi2c);
 800420e:	4620      	mov	r0, r4
      hi2c->PreviousState = I2C_STATE_SLAVE_BUSY_RX;
 8004210:	6325      	str	r5, [r4, #48]	; 0x30
      hi2c->State = HAL_I2C_STATE_LISTEN;
 8004212:	f884 103d 	strb.w	r1, [r4, #61]	; 0x3d
      HAL_I2C_SlaveRxCpltCallback(hi2c);
 8004216:	f7ff fdb9 	bl	8003d8c <HAL_I2C_SlaveRxCpltCallback>
 800421a:	e785      	b.n	8004128 <HAL_I2C_EV_IRQHandler+0x64>
      sr2itflags   = READ_REG(hi2c->Instance->SR2);
 800421c:	699d      	ldr	r5, [r3, #24]
      sr1itflags   = READ_REG(hi2c->Instance->SR1);
 800421e:	6959      	ldr	r1, [r3, #20]
 8004220:	e768      	b.n	80040f4 <HAL_I2C_EV_IRQHandler+0x30>
    else if ((I2C_CHECK_FLAG(sr1itflags, I2C_FLAG_ADDR) != RESET) && (I2C_CHECK_IT_SOURCE(itsources, I2C_IT_EVT) != RESET))
 8004222:	078d      	lsls	r5, r1, #30
 8004224:	d515      	bpl.n	8004252 <HAL_I2C_EV_IRQHandler+0x18e>
 8004226:	0585      	lsls	r5, r0, #22
 8004228:	d513      	bpl.n	8004252 <HAL_I2C_EV_IRQHandler+0x18e>
  HAL_I2C_ModeTypeDef CurrentMode       = hi2c->Mode;
 800422a:	f894 203e 	ldrb.w	r2, [r4, #62]	; 0x3e
  uint32_t CurrentXferOptions           = hi2c->XferOptions;
 800422e:	6ae0      	ldr	r0, [r4, #44]	; 0x2c
  uint32_t Prev_State                   = hi2c->PreviousState;
 8004230:	6b25      	ldr	r5, [r4, #48]	; 0x30
  if (hi2c->State == HAL_I2C_STATE_BUSY_RX)
 8004232:	f894 103d 	ldrb.w	r1, [r4, #61]	; 0x3d
 8004236:	2922      	cmp	r1, #34	; 0x22
  HAL_I2C_ModeTypeDef CurrentMode       = hi2c->Mode;
 8004238:	b2d2      	uxtb	r2, r2
  if (hi2c->State == HAL_I2C_STATE_BUSY_RX)
 800423a:	f000 81b3 	beq.w	80045a4 <HAL_I2C_EV_IRQHandler+0x4e0>
    __HAL_I2C_CLEAR_ADDRFLAG(hi2c);
 800423e:	2200      	movs	r2, #0
 8004240:	920a      	str	r2, [sp, #40]	; 0x28
 8004242:	695a      	ldr	r2, [r3, #20]
 8004244:	920a      	str	r2, [sp, #40]	; 0x28
 8004246:	699b      	ldr	r3, [r3, #24]
 8004248:	930a      	str	r3, [sp, #40]	; 0x28
 800424a:	9b0a      	ldr	r3, [sp, #40]	; 0x28
 800424c:	e76c      	b.n	8004128 <HAL_I2C_EV_IRQHandler+0x64>
    else if ((I2C_CHECK_FLAG(sr1itflags, I2C_FLAG_ADD10) != RESET) && (I2C_CHECK_IT_SOURCE(itsources, I2C_IT_EVT) != RESET))
 800424e:	070d      	lsls	r5, r1, #28
 8004250:	d5e7      	bpl.n	8004222 <HAL_I2C_EV_IRQHandler+0x15e>
    else if (I2C_CHECK_FLAG(sr2itflags, I2C_FLAG_TRA) != RESET)
 8004252:	0775      	lsls	r5, r6, #29
 8004254:	f140 80f5 	bpl.w	8004442 <HAL_I2C_EV_IRQHandler+0x37e>
      if (READ_BIT(hi2c->Instance->CR2, I2C_CR2_DMAEN) != I2C_CR2_DMAEN)
 8004258:	685d      	ldr	r5, [r3, #4]
 800425a:	052e      	lsls	r6, r5, #20
 800425c:	f53f af64 	bmi.w	8004128 <HAL_I2C_EV_IRQHandler+0x64>
        if ((I2C_CHECK_FLAG(sr1itflags, I2C_FLAG_TXE) != RESET) && (I2C_CHECK_IT_SOURCE(itsources, I2C_IT_BUF) != RESET) && (I2C_CHECK_FLAG(sr1itflags, I2C_FLAG_BTF) == RESET))
 8004260:	060d      	lsls	r5, r1, #24
 8004262:	f140 8115 	bpl.w	8004490 <HAL_I2C_EV_IRQHandler+0x3cc>
 8004266:	0546      	lsls	r6, r0, #21
 8004268:	f140 8112 	bpl.w	8004490 <HAL_I2C_EV_IRQHandler+0x3cc>
 800426c:	074d      	lsls	r5, r1, #29
 800426e:	f100 8112 	bmi.w	8004496 <HAL_I2C_EV_IRQHandler+0x3d2>
  HAL_I2C_StateTypeDef CurrentState = hi2c->State;
 8004272:	f894 203d 	ldrb.w	r2, [r4, #61]	; 0x3d
  if ((hi2c->XferSize == 0U) && (CurrentState == HAL_I2C_STATE_BUSY_TX))
 8004276:	8d20      	ldrh	r0, [r4, #40]	; 0x28
  HAL_I2C_ModeTypeDef CurrentMode   = hi2c->Mode;
 8004278:	f894 103e 	ldrb.w	r1, [r4, #62]	; 0x3e
  uint32_t CurrentXferOptions       = hi2c->XferOptions;
 800427c:	6ae5      	ldr	r5, [r4, #44]	; 0x2c
  HAL_I2C_StateTypeDef CurrentState = hi2c->State;
 800427e:	b2d2      	uxtb	r2, r2
  HAL_I2C_ModeTypeDef CurrentMode   = hi2c->Mode;
 8004280:	b2c9      	uxtb	r1, r1
  if ((hi2c->XferSize == 0U) && (CurrentState == HAL_I2C_STATE_BUSY_TX))
 8004282:	2800      	cmp	r0, #0
 8004284:	f040 823b 	bne.w	80046fe <HAL_I2C_EV_IRQHandler+0x63a>
 8004288:	2a21      	cmp	r2, #33	; 0x21
 800428a:	f000 8341 	beq.w	8004910 <HAL_I2C_EV_IRQHandler+0x84c>
  else if ((CurrentState == HAL_I2C_STATE_BUSY_TX) || \
 800428e:	2940      	cmp	r1, #64	; 0x40
 8004290:	f47f af4a 	bne.w	8004128 <HAL_I2C_EV_IRQHandler+0x64>
           ((CurrentMode == HAL_I2C_MODE_MEM) && (CurrentState == HAL_I2C_STATE_BUSY_RX)))
 8004294:	2a22      	cmp	r2, #34	; 0x22
 8004296:	f47f af47 	bne.w	8004128 <HAL_I2C_EV_IRQHandler+0x64>
    if (hi2c->XferCount == 0U)
 800429a:	8d62      	ldrh	r2, [r4, #42]	; 0x2a
 800429c:	b292      	uxth	r2, r2
 800429e:	2a00      	cmp	r2, #0
 80042a0:	f000 8270 	beq.w	8004784 <HAL_I2C_EV_IRQHandler+0x6c0>
      if (hi2c->Mode == HAL_I2C_MODE_MEM)
 80042a4:	f894 203e 	ldrb.w	r2, [r4, #62]	; 0x3e
 80042a8:	2a40      	cmp	r2, #64	; 0x40
 80042aa:	f040 80b4 	bne.w	8004416 <HAL_I2C_EV_IRQHandler+0x352>
 80042ae:	e0fc      	b.n	80044aa <HAL_I2C_EV_IRQHandler+0x3e6>
    else if ((I2C_CHECK_FLAG(sr1itflags, I2C_FLAG_STOPF) != RESET) && (I2C_CHECK_IT_SOURCE(itsources, I2C_IT_EVT) != RESET))
 80042b0:	0585      	lsls	r5, r0, #22
 80042b2:	d580      	bpl.n	80041b6 <HAL_I2C_EV_IRQHandler+0xf2>
  HAL_I2C_StateTypeDef CurrentState = hi2c->State;
 80042b4:	f894 503d 	ldrb.w	r5, [r4, #61]	; 0x3d
  __HAL_I2C_DISABLE_IT(hi2c, I2C_IT_EVT | I2C_IT_BUF | I2C_IT_ERR);
 80042b8:	685a      	ldr	r2, [r3, #4]
 80042ba:	f422 62e0 	bic.w	r2, r2, #1792	; 0x700
 80042be:	605a      	str	r2, [r3, #4]
  __HAL_I2C_CLEAR_STOPFLAG(hi2c);
 80042c0:	960d      	str	r6, [sp, #52]	; 0x34
 80042c2:	695a      	ldr	r2, [r3, #20]
 80042c4:	920d      	str	r2, [sp, #52]	; 0x34
 80042c6:	681a      	ldr	r2, [r3, #0]
 80042c8:	f042 0201 	orr.w	r2, r2, #1
 80042cc:	601a      	str	r2, [r3, #0]
 80042ce:	9a0d      	ldr	r2, [sp, #52]	; 0x34
  CLEAR_BIT(hi2c->Instance->CR1, I2C_CR1_ACK);
 80042d0:	681a      	ldr	r2, [r3, #0]
 80042d2:	f422 6280 	bic.w	r2, r2, #1024	; 0x400
 80042d6:	601a      	str	r2, [r3, #0]
  if ((hi2c->Instance->CR2 & I2C_CR2_DMAEN) == I2C_CR2_DMAEN)
 80042d8:	685a      	ldr	r2, [r3, #4]
 80042da:	0511      	lsls	r1, r2, #20
  HAL_I2C_StateTypeDef CurrentState = hi2c->State;
 80042dc:	b2ed      	uxtb	r5, r5
  if ((hi2c->Instance->CR2 & I2C_CR2_DMAEN) == I2C_CR2_DMAEN)
 80042de:	d521      	bpl.n	8004324 <HAL_I2C_EV_IRQHandler+0x260>
    if ((CurrentState == HAL_I2C_STATE_BUSY_RX) || (CurrentState == HAL_I2C_STATE_BUSY_RX_LISTEN))
 80042e0:	f005 02f7 	and.w	r2, r5, #247	; 0xf7
 80042e4:	2a22      	cmp	r2, #34	; 0x22
 80042e6:	f000 817a 	beq.w	80045de <HAL_I2C_EV_IRQHandler+0x51a>
      hi2c->XferCount = (uint16_t)(__HAL_DMA_GET_COUNTER(hi2c->hdmatx));
 80042ea:	6b60      	ldr	r0, [r4, #52]	; 0x34
 80042ec:	6802      	ldr	r2, [r0, #0]
 80042ee:	6852      	ldr	r2, [r2, #4]
 80042f0:	b292      	uxth	r2, r2
 80042f2:	8562      	strh	r2, [r4, #42]	; 0x2a
      if (hi2c->XferCount != 0U)
 80042f4:	8d62      	ldrh	r2, [r4, #42]	; 0x2a
 80042f6:	b292      	uxth	r2, r2
 80042f8:	b11a      	cbz	r2, 8004302 <HAL_I2C_EV_IRQHandler+0x23e>
        hi2c->ErrorCode |= HAL_I2C_ERROR_AF;
 80042fa:	6c22      	ldr	r2, [r4, #64]	; 0x40
 80042fc:	f042 0204 	orr.w	r2, r2, #4
 8004300:	6422      	str	r2, [r4, #64]	; 0x40
      CLEAR_BIT(hi2c->Instance->CR2, I2C_CR2_DMAEN);
 8004302:	685a      	ldr	r2, [r3, #4]
 8004304:	f422 6200 	bic.w	r2, r2, #2048	; 0x800
 8004308:	605a      	str	r2, [r3, #4]
      if (HAL_DMA_GetState(hi2c->hdmatx) != HAL_DMA_STATE_READY)
 800430a:	f7fe fe6f 	bl	8002fec <HAL_DMA_GetState>
 800430e:	2801      	cmp	r0, #1
 8004310:	d008      	beq.n	8004324 <HAL_I2C_EV_IRQHandler+0x260>
        hi2c->hdmatx->XferAbortCallback = I2C_DMAAbort;
 8004312:	6b60      	ldr	r0, [r4, #52]	; 0x34
 8004314:	4b99      	ldr	r3, [pc, #612]	; (800457c <HAL_I2C_EV_IRQHandler+0x4b8>)
 8004316:	6503      	str	r3, [r0, #80]	; 0x50
        if (HAL_DMA_Abort_IT(hi2c->hdmatx) != HAL_OK)
 8004318:	f7fe fd66 	bl	8002de8 <HAL_DMA_Abort_IT>
 800431c:	b110      	cbz	r0, 8004324 <HAL_I2C_EV_IRQHandler+0x260>
          hi2c->hdmatx->XferAbortCallback(hi2c->hdmatx);
 800431e:	6b60      	ldr	r0, [r4, #52]	; 0x34
 8004320:	6d03      	ldr	r3, [r0, #80]	; 0x50
 8004322:	4798      	blx	r3
  if (hi2c->XferCount != 0U)
 8004324:	8d63      	ldrh	r3, [r4, #42]	; 0x2a
 8004326:	b29b      	uxth	r3, r3
 8004328:	b313      	cbz	r3, 8004370 <HAL_I2C_EV_IRQHandler+0x2ac>
    if (__HAL_I2C_GET_FLAG(hi2c, I2C_FLAG_BTF) == SET)
 800432a:	6823      	ldr	r3, [r4, #0]
 800432c:	695a      	ldr	r2, [r3, #20]
 800432e:	0752      	lsls	r2, r2, #29
 8004330:	d50a      	bpl.n	8004348 <HAL_I2C_EV_IRQHandler+0x284>
      *hi2c->pBuffPtr = (uint8_t)hi2c->Instance->DR;
 8004332:	6a62      	ldr	r2, [r4, #36]	; 0x24
 8004334:	691b      	ldr	r3, [r3, #16]
 8004336:	7013      	strb	r3, [r2, #0]
      hi2c->XferCount--;
 8004338:	8d62      	ldrh	r2, [r4, #42]	; 0x2a
      hi2c->pBuffPtr++;
 800433a:	6a63      	ldr	r3, [r4, #36]	; 0x24
      hi2c->XferCount--;
 800433c:	3a01      	subs	r2, #1
      hi2c->pBuffPtr++;
 800433e:	1c59      	adds	r1, r3, #1
      hi2c->XferCount--;
 8004340:	b292      	uxth	r2, r2
    if (__HAL_I2C_GET_FLAG(hi2c, I2C_FLAG_RXNE) == SET)
 8004342:	6823      	ldr	r3, [r4, #0]
      hi2c->pBuffPtr++;
 8004344:	6261      	str	r1, [r4, #36]	; 0x24
      hi2c->XferCount--;
 8004346:	8562      	strh	r2, [r4, #42]	; 0x2a
    if (__HAL_I2C_GET_FLAG(hi2c, I2C_FLAG_RXNE) == SET)
 8004348:	695a      	ldr	r2, [r3, #20]
 800434a:	0656      	lsls	r6, r2, #25
 800434c:	d509      	bpl.n	8004362 <HAL_I2C_EV_IRQHandler+0x29e>
      *hi2c->pBuffPtr = (uint8_t)hi2c->Instance->DR;
 800434e:	6a62      	ldr	r2, [r4, #36]	; 0x24
 8004350:	691b      	ldr	r3, [r3, #16]
 8004352:	7013      	strb	r3, [r2, #0]
      hi2c->XferCount--;
 8004354:	8d63      	ldrh	r3, [r4, #42]	; 0x2a
      hi2c->pBuffPtr++;
 8004356:	6a62      	ldr	r2, [r4, #36]	; 0x24
      hi2c->XferCount--;
 8004358:	3b01      	subs	r3, #1
      hi2c->pBuffPtr++;
 800435a:	3201      	adds	r2, #1
      hi2c->XferCount--;
 800435c:	b29b      	uxth	r3, r3
      hi2c->pBuffPtr++;
 800435e:	6262      	str	r2, [r4, #36]	; 0x24
      hi2c->XferCount--;
 8004360:	8563      	strh	r3, [r4, #42]	; 0x2a
    if (hi2c->XferCount != 0U)
 8004362:	8d63      	ldrh	r3, [r4, #42]	; 0x2a
 8004364:	b29b      	uxth	r3, r3
 8004366:	b11b      	cbz	r3, 8004370 <HAL_I2C_EV_IRQHandler+0x2ac>
      hi2c->ErrorCode |= HAL_I2C_ERROR_AF;
 8004368:	6c23      	ldr	r3, [r4, #64]	; 0x40
 800436a:	f043 0304 	orr.w	r3, r3, #4
 800436e:	6423      	str	r3, [r4, #64]	; 0x40
  if (hi2c->ErrorCode != HAL_I2C_ERROR_NONE)
 8004370:	6c23      	ldr	r3, [r4, #64]	; 0x40
 8004372:	2b00      	cmp	r3, #0
 8004374:	f040 80de 	bne.w	8004534 <HAL_I2C_EV_IRQHandler+0x470>
    if (CurrentState == HAL_I2C_STATE_BUSY_RX_LISTEN)
 8004378:	2d2a      	cmp	r5, #42	; 0x2a
 800437a:	f000 8151 	beq.w	8004620 <HAL_I2C_EV_IRQHandler+0x55c>
    if (hi2c->State == HAL_I2C_STATE_LISTEN)
 800437e:	f894 303d 	ldrb.w	r3, [r4, #61]	; 0x3d
 8004382:	2b28      	cmp	r3, #40	; 0x28
 8004384:	f000 8154 	beq.w	8004630 <HAL_I2C_EV_IRQHandler+0x56c>
      if ((hi2c->PreviousState  == I2C_STATE_SLAVE_BUSY_RX) || (CurrentState == HAL_I2C_STATE_BUSY_RX))
 8004388:	6b23      	ldr	r3, [r4, #48]	; 0x30
 800438a:	2b22      	cmp	r3, #34	; 0x22
 800438c:	d002      	beq.n	8004394 <HAL_I2C_EV_IRQHandler+0x2d0>
 800438e:	2d22      	cmp	r5, #34	; 0x22
 8004390:	f47f aeca 	bne.w	8004128 <HAL_I2C_EV_IRQHandler+0x64>
        hi2c->PreviousState = I2C_STATE_NONE;
 8004394:	2300      	movs	r3, #0
        hi2c->State = HAL_I2C_STATE_READY;
 8004396:	2220      	movs	r2, #32
        hi2c->PreviousState = I2C_STATE_NONE;
 8004398:	6323      	str	r3, [r4, #48]	; 0x30
        HAL_I2C_SlaveRxCpltCallback(hi2c);
 800439a:	4620      	mov	r0, r4
        hi2c->State = HAL_I2C_STATE_READY;
 800439c:	f884 203d 	strb.w	r2, [r4, #61]	; 0x3d
        hi2c->Mode = HAL_I2C_MODE_NONE;
 80043a0:	f884 303e 	strb.w	r3, [r4, #62]	; 0x3e
        HAL_I2C_SlaveRxCpltCallback(hi2c);
 80043a4:	f7ff fcf2 	bl	8003d8c <HAL_I2C_SlaveRxCpltCallback>
 80043a8:	e6be      	b.n	8004128 <HAL_I2C_EV_IRQHandler+0x64>
      if ((I2C_CHECK_FLAG(sr1itflags, I2C_FLAG_TXE) != RESET) && (I2C_CHECK_IT_SOURCE(itsources, I2C_IT_BUF) != RESET) && (I2C_CHECK_FLAG(sr1itflags, I2C_FLAG_BTF) == RESET))
 80043aa:	060d      	lsls	r5, r1, #24
 80043ac:	d528      	bpl.n	8004400 <HAL_I2C_EV_IRQHandler+0x33c>
 80043ae:	0546      	lsls	r6, r0, #21
 80043b0:	d526      	bpl.n	8004400 <HAL_I2C_EV_IRQHandler+0x33c>
 80043b2:	074d      	lsls	r5, r1, #29
 80043b4:	d427      	bmi.n	8004406 <HAL_I2C_EV_IRQHandler+0x342>
  HAL_I2C_StateTypeDef CurrentState = hi2c->State;
 80043b6:	f894 003d 	ldrb.w	r0, [r4, #61]	; 0x3d
  if (hi2c->XferCount != 0U)
 80043ba:	8d61      	ldrh	r1, [r4, #42]	; 0x2a
 80043bc:	b289      	uxth	r1, r1
  HAL_I2C_StateTypeDef CurrentState = hi2c->State;
 80043be:	b2c0      	uxtb	r0, r0
  if (hi2c->XferCount != 0U)
 80043c0:	2900      	cmp	r1, #0
 80043c2:	f43f aeb1 	beq.w	8004128 <HAL_I2C_EV_IRQHandler+0x64>
    hi2c->Instance->DR = *hi2c->pBuffPtr;
 80043c6:	6a61      	ldr	r1, [r4, #36]	; 0x24
 80043c8:	f811 5b01 	ldrb.w	r5, [r1], #1
 80043cc:	611d      	str	r5, [r3, #16]
    hi2c->pBuffPtr++;
 80043ce:	6261      	str	r1, [r4, #36]	; 0x24
    hi2c->XferCount--;
 80043d0:	8d61      	ldrh	r1, [r4, #42]	; 0x2a
 80043d2:	3901      	subs	r1, #1
 80043d4:	b289      	uxth	r1, r1
 80043d6:	8561      	strh	r1, [r4, #42]	; 0x2a
    if ((hi2c->XferCount == 0U) && (CurrentState == HAL_I2C_STATE_BUSY_TX_LISTEN))
 80043d8:	8d61      	ldrh	r1, [r4, #42]	; 0x2a
 80043da:	b289      	uxth	r1, r1
 80043dc:	2900      	cmp	r1, #0
 80043de:	f47f aea3 	bne.w	8004128 <HAL_I2C_EV_IRQHandler+0x64>
 80043e2:	2829      	cmp	r0, #41	; 0x29
 80043e4:	f47f aea0 	bne.w	8004128 <HAL_I2C_EV_IRQHandler+0x64>
      __HAL_I2C_DISABLE_IT(hi2c, I2C_IT_BUF);
 80043e8:	6859      	ldr	r1, [r3, #4]
      hi2c->State = HAL_I2C_STATE_LISTEN;
 80043ea:	2528      	movs	r5, #40	; 0x28
      __HAL_I2C_DISABLE_IT(hi2c, I2C_IT_BUF);
 80043ec:	f421 6180 	bic.w	r1, r1, #1024	; 0x400
 80043f0:	6059      	str	r1, [r3, #4]
      HAL_I2C_SlaveTxCpltCallback(hi2c);
 80043f2:	4620      	mov	r0, r4
      hi2c->PreviousState = I2C_STATE_SLAVE_BUSY_TX;
 80043f4:	6322      	str	r2, [r4, #48]	; 0x30
      hi2c->State = HAL_I2C_STATE_LISTEN;
 80043f6:	f884 503d 	strb.w	r5, [r4, #61]	; 0x3d
      HAL_I2C_SlaveTxCpltCallback(hi2c);
 80043fa:	f7ff fcc5 	bl	8003d88 <HAL_I2C_SlaveTxCpltCallback>
 80043fe:	e693      	b.n	8004128 <HAL_I2C_EV_IRQHandler+0x64>
      else if ((I2C_CHECK_FLAG(sr1itflags, I2C_FLAG_BTF) != RESET) && (I2C_CHECK_IT_SOURCE(itsources, I2C_IT_EVT) != RESET))
 8004400:	0749      	lsls	r1, r1, #29
 8004402:	f57f ae91 	bpl.w	8004128 <HAL_I2C_EV_IRQHandler+0x64>
 8004406:	0582      	lsls	r2, r0, #22
 8004408:	f57f ae8e 	bpl.w	8004128 <HAL_I2C_EV_IRQHandler+0x64>
  if (hi2c->XferCount != 0U)
 800440c:	8d62      	ldrh	r2, [r4, #42]	; 0x2a
 800440e:	b292      	uxth	r2, r2
 8004410:	2a00      	cmp	r2, #0
 8004412:	f43f ae89 	beq.w	8004128 <HAL_I2C_EV_IRQHandler+0x64>
    hi2c->Instance->DR = *hi2c->pBuffPtr;
 8004416:	6a62      	ldr	r2, [r4, #36]	; 0x24
 8004418:	f812 1b01 	ldrb.w	r1, [r2], #1
 800441c:	6119      	str	r1, [r3, #16]
    hi2c->XferCount--;
 800441e:	8d63      	ldrh	r3, [r4, #42]	; 0x2a
    hi2c->pBuffPtr++;
 8004420:	6262      	str	r2, [r4, #36]	; 0x24
    hi2c->XferCount--;
 8004422:	3b01      	subs	r3, #1
 8004424:	b29b      	uxth	r3, r3
 8004426:	8563      	strh	r3, [r4, #42]	; 0x2a
 8004428:	e67e      	b.n	8004128 <HAL_I2C_EV_IRQHandler+0x64>
      else if ((I2C_CHECK_FLAG(sr1itflags, I2C_FLAG_BTF) != RESET) && (I2C_CHECK_IT_SOURCE(itsources, I2C_IT_EVT) != RESET))
 800442a:	074a      	lsls	r2, r1, #29
 800442c:	f57f ae7c 	bpl.w	8004128 <HAL_I2C_EV_IRQHandler+0x64>
 8004430:	0586      	lsls	r6, r0, #22
 8004432:	f57f ae79 	bpl.w	8004128 <HAL_I2C_EV_IRQHandler+0x64>
  if (hi2c->XferCount != 0U)
 8004436:	8d62      	ldrh	r2, [r4, #42]	; 0x2a
 8004438:	b292      	uxth	r2, r2
 800443a:	2a00      	cmp	r2, #0
 800443c:	f43f ae74 	beq.w	8004128 <HAL_I2C_EV_IRQHandler+0x64>
 8004440:	e01b      	b.n	800447a <HAL_I2C_EV_IRQHandler+0x3b6>
      if (READ_BIT(hi2c->Instance->CR2, I2C_CR2_DMAEN) != I2C_CR2_DMAEN)
 8004442:	685a      	ldr	r2, [r3, #4]
 8004444:	0515      	lsls	r5, r2, #20
 8004446:	f53f ae6f 	bmi.w	8004128 <HAL_I2C_EV_IRQHandler+0x64>
        if ((I2C_CHECK_FLAG(sr1itflags, I2C_FLAG_RXNE) != RESET) && (I2C_CHECK_IT_SOURCE(itsources, I2C_IT_BUF) != RESET) && (I2C_CHECK_FLAG(sr1itflags, I2C_FLAG_BTF) == RESET))
 800444a:	064a      	lsls	r2, r1, #25
 800444c:	d433      	bmi.n	80044b6 <HAL_I2C_EV_IRQHandler+0x3f2>
        else if ((I2C_CHECK_FLAG(sr1itflags, I2C_FLAG_BTF) != RESET) && (I2C_CHECK_IT_SOURCE(itsources, I2C_IT_EVT) != RESET))
 800444e:	0749      	lsls	r1, r1, #29
 8004450:	f57f ae6a 	bpl.w	8004128 <HAL_I2C_EV_IRQHandler+0x64>
 8004454:	0582      	lsls	r2, r0, #22
 8004456:	f57f ae67 	bpl.w	8004128 <HAL_I2C_EV_IRQHandler+0x64>
  uint32_t CurrentXferOptions = hi2c->XferOptions;
 800445a:	6ae1      	ldr	r1, [r4, #44]	; 0x2c
  if (hi2c->XferCount == 4U)
 800445c:	8d62      	ldrh	r2, [r4, #42]	; 0x2a
 800445e:	b292      	uxth	r2, r2
 8004460:	2a04      	cmp	r2, #4
 8004462:	f000 8119 	beq.w	8004698 <HAL_I2C_EV_IRQHandler+0x5d4>
  else if (hi2c->XferCount == 3U)
 8004466:	8d62      	ldrh	r2, [r4, #42]	; 0x2a
 8004468:	b292      	uxth	r2, r2
 800446a:	2a03      	cmp	r2, #3
 800446c:	f000 8159 	beq.w	8004722 <HAL_I2C_EV_IRQHandler+0x65e>
  else if (hi2c->XferCount == 2U)
 8004470:	8d62      	ldrh	r2, [r4, #42]	; 0x2a
 8004472:	b292      	uxth	r2, r2
 8004474:	2a02      	cmp	r2, #2
 8004476:	f000 818a 	beq.w	800478e <HAL_I2C_EV_IRQHandler+0x6ca>
    *hi2c->pBuffPtr = (uint8_t)hi2c->Instance->DR;
 800447a:	6a62      	ldr	r2, [r4, #36]	; 0x24
 800447c:	691b      	ldr	r3, [r3, #16]
 800447e:	7013      	strb	r3, [r2, #0]
    hi2c->XferCount--;
 8004480:	8d63      	ldrh	r3, [r4, #42]	; 0x2a
    hi2c->pBuffPtr++;
 8004482:	6a62      	ldr	r2, [r4, #36]	; 0x24
    hi2c->XferCount--;
 8004484:	3b01      	subs	r3, #1
    hi2c->pBuffPtr++;
 8004486:	3201      	adds	r2, #1
    hi2c->XferCount--;
 8004488:	b29b      	uxth	r3, r3
    hi2c->pBuffPtr++;
 800448a:	6262      	str	r2, [r4, #36]	; 0x24
    hi2c->XferCount--;
 800448c:	8563      	strh	r3, [r4, #42]	; 0x2a
      }
 800448e:	e64b      	b.n	8004128 <HAL_I2C_EV_IRQHandler+0x64>
        else if ((I2C_CHECK_FLAG(sr1itflags, I2C_FLAG_BTF) != RESET) && (I2C_CHECK_IT_SOURCE(itsources, I2C_IT_EVT) != RESET))
 8004490:	0749      	lsls	r1, r1, #29
 8004492:	f57f ae49 	bpl.w	8004128 <HAL_I2C_EV_IRQHandler+0x64>
 8004496:	0586      	lsls	r6, r0, #22
 8004498:	f57f ae46 	bpl.w	8004128 <HAL_I2C_EV_IRQHandler+0x64>
          if (CurrentState == HAL_I2C_STATE_BUSY_TX)
 800449c:	2a21      	cmp	r2, #33	; 0x21
 800449e:	f000 8103 	beq.w	80046a8 <HAL_I2C_EV_IRQHandler+0x5e4>
            if (CurrentMode == HAL_I2C_MODE_MEM)
 80044a2:	f1bc 0f40 	cmp.w	ip, #64	; 0x40
 80044a6:	f47f ae3f 	bne.w	8004128 <HAL_I2C_EV_IRQHandler+0x64>
        I2C_MemoryTransmit_TXE_BTF(hi2c);
 80044aa:	4620      	mov	r0, r4
}
 80044ac:	b00e      	add	sp, #56	; 0x38
 80044ae:	e8bd 4070 	ldmia.w	sp!, {r4, r5, r6, lr}
        I2C_MemoryTransmit_TXE_BTF(hi2c);
 80044b2:	f7ff bc73 	b.w	8003d9c <I2C_MemoryTransmit_TXE_BTF>
        if ((I2C_CHECK_FLAG(sr1itflags, I2C_FLAG_RXNE) != RESET) && (I2C_CHECK_IT_SOURCE(itsources, I2C_IT_BUF) != RESET) && (I2C_CHECK_FLAG(sr1itflags, I2C_FLAG_BTF) == RESET))
 80044b6:	0546      	lsls	r6, r0, #21
 80044b8:	d5c9      	bpl.n	800444e <HAL_I2C_EV_IRQHandler+0x38a>
 80044ba:	074d      	lsls	r5, r1, #29
 80044bc:	f3c1 0280 	ubfx	r2, r1, #2, #1
 80044c0:	d4c8      	bmi.n	8004454 <HAL_I2C_EV_IRQHandler+0x390>
  if (hi2c->State == HAL_I2C_STATE_BUSY_RX)
 80044c2:	f894 103d 	ldrb.w	r1, [r4, #61]	; 0x3d
 80044c6:	2922      	cmp	r1, #34	; 0x22
 80044c8:	f47f ae2e 	bne.w	8004128 <HAL_I2C_EV_IRQHandler+0x64>
    tmp = hi2c->XferCount;
 80044cc:	8d61      	ldrh	r1, [r4, #42]	; 0x2a
 80044ce:	b289      	uxth	r1, r1
    if (tmp > 3U)
 80044d0:	2903      	cmp	r1, #3
 80044d2:	f240 81cc 	bls.w	800486e <HAL_I2C_EV_IRQHandler+0x7aa>
      *hi2c->pBuffPtr = (uint8_t)hi2c->Instance->DR;
 80044d6:	6a62      	ldr	r2, [r4, #36]	; 0x24
 80044d8:	691b      	ldr	r3, [r3, #16]
 80044da:	7013      	strb	r3, [r2, #0]
      hi2c->XferCount--;
 80044dc:	8d63      	ldrh	r3, [r4, #42]	; 0x2a
      hi2c->pBuffPtr++;
 80044de:	6a62      	ldr	r2, [r4, #36]	; 0x24
      hi2c->XferCount--;
 80044e0:	3b01      	subs	r3, #1
 80044e2:	b29b      	uxth	r3, r3
 80044e4:	8563      	strh	r3, [r4, #42]	; 0x2a
      if (hi2c->XferCount == (uint16_t)3)
 80044e6:	8d63      	ldrh	r3, [r4, #42]	; 0x2a
 80044e8:	b29b      	uxth	r3, r3
      hi2c->pBuffPtr++;
 80044ea:	3201      	adds	r2, #1
      if (hi2c->XferCount == (uint16_t)3)
 80044ec:	2b03      	cmp	r3, #3
      hi2c->pBuffPtr++;
 80044ee:	6262      	str	r2, [r4, #36]	; 0x24
      if (hi2c->XferCount == (uint16_t)3)
 80044f0:	f47f ae1a 	bne.w	8004128 <HAL_I2C_EV_IRQHandler+0x64>
        __HAL_I2C_DISABLE_IT(hi2c, I2C_IT_BUF);
 80044f4:	6822      	ldr	r2, [r4, #0]
 80044f6:	6853      	ldr	r3, [r2, #4]
 80044f8:	f423 6380 	bic.w	r3, r3, #1024	; 0x400
 80044fc:	6053      	str	r3, [r2, #4]
 80044fe:	e613      	b.n	8004128 <HAL_I2C_EV_IRQHandler+0x64>
      if (hi2c->State == HAL_I2C_STATE_BUSY_TX)
 8004500:	f894 203d 	ldrb.w	r2, [r4, #61]	; 0x3d
 8004504:	2a21      	cmp	r2, #33	; 0x21
        hi2c->Instance->DR = I2C_7BIT_ADD_WRITE(hi2c->Devaddress);
 8004506:	6c62      	ldr	r2, [r4, #68]	; 0x44
        hi2c->Instance->DR = I2C_7BIT_ADD_READ(hi2c->Devaddress);
 8004508:	bf16      	itet	ne
 800450a:	f042 0201 	orrne.w	r2, r2, #1
        hi2c->Instance->DR = I2C_7BIT_ADD_WRITE(hi2c->Devaddress);
 800450e:	f002 02fe 	andeq.w	r2, r2, #254	; 0xfe
        hi2c->Instance->DR = I2C_7BIT_ADD_READ(hi2c->Devaddress);
 8004512:	b2d2      	uxtbne	r2, r2
 8004514:	611a      	str	r2, [r3, #16]
      if (((hi2c->hdmatx != NULL) && (hi2c->hdmatx->XferCpltCallback != NULL))
 8004516:	6b62      	ldr	r2, [r4, #52]	; 0x34
 8004518:	b11a      	cbz	r2, 8004522 <HAL_I2C_EV_IRQHandler+0x45e>
 800451a:	6bd2      	ldr	r2, [r2, #60]	; 0x3c
 800451c:	2a00      	cmp	r2, #0
 800451e:	f47f ae20 	bne.w	8004162 <HAL_I2C_EV_IRQHandler+0x9e>
      || ((hi2c->hdmarx != NULL) && (hi2c->hdmarx->XferCpltCallback != NULL)))
 8004522:	6ba2      	ldr	r2, [r4, #56]	; 0x38
 8004524:	2a00      	cmp	r2, #0
 8004526:	f43f adff 	beq.w	8004128 <HAL_I2C_EV_IRQHandler+0x64>
 800452a:	6bd2      	ldr	r2, [r2, #60]	; 0x3c
 800452c:	2a00      	cmp	r2, #0
 800452e:	f47f ae18 	bne.w	8004162 <HAL_I2C_EV_IRQHandler+0x9e>
 8004532:	e5f9      	b.n	8004128 <HAL_I2C_EV_IRQHandler+0x64>
    I2C_ITError(hi2c);
 8004534:	4620      	mov	r0, r4
}
 8004536:	b00e      	add	sp, #56	; 0x38
 8004538:	e8bd 4070 	ldmia.w	sp!, {r4, r5, r6, lr}
    I2C_ITError(hi2c);
 800453c:	f7ff bd0c 	b.w	8003f58 <I2C_ITError>
    if (hi2c->EventCount == 0U)
 8004540:	6d22      	ldr	r2, [r4, #80]	; 0x50
 8004542:	bb4a      	cbnz	r2, 8004598 <HAL_I2C_EV_IRQHandler+0x4d4>
      hi2c->Instance->DR = I2C_7BIT_ADD_WRITE(hi2c->Devaddress);
 8004544:	6c62      	ldr	r2, [r4, #68]	; 0x44
 8004546:	f002 02fe 	and.w	r2, r2, #254	; 0xfe
 800454a:	611a      	str	r2, [r3, #16]
 800454c:	e5ec      	b.n	8004128 <HAL_I2C_EV_IRQHandler+0x64>
    hi2c->XferOptions = I2C_FIRST_FRAME;
 800454e:	2201      	movs	r2, #1
 8004550:	62e2      	str	r2, [r4, #44]	; 0x2c
 8004552:	e618      	b.n	8004186 <HAL_I2C_EV_IRQHandler+0xc2>
    __HAL_I2C_DISABLE_IT(hi2c, (I2C_IT_BUF));
 8004554:	685a      	ldr	r2, [r3, #4]
 8004556:	f422 6280 	bic.w	r2, r2, #1024	; 0x400
 800455a:	605a      	str	r2, [r3, #4]
    if (I2C_CHECK_FLAG(IT2Flags, I2C_FLAG_DUALF) == RESET)
 800455c:	062e      	lsls	r6, r5, #24
    if (I2C_CHECK_FLAG(IT2Flags, I2C_FLAG_TRA) == RESET)
 800455e:	ea6f 0195 	mvn.w	r1, r5, lsr #2
    __HAL_UNLOCK(hi2c);
 8004562:	f04f 0300 	mov.w	r3, #0
      SlaveAddrCode = (uint16_t)hi2c->Init.OwnAddress1;
 8004566:	bf54      	ite	pl
 8004568:	89a2      	ldrhpl	r2, [r4, #12]
      SlaveAddrCode = (uint16_t)hi2c->Init.OwnAddress2;
 800456a:	8b22      	ldrhmi	r2, [r4, #24]
    __HAL_UNLOCK(hi2c);
 800456c:	f884 303c 	strb.w	r3, [r4, #60]	; 0x3c
    if (I2C_CHECK_FLAG(IT2Flags, I2C_FLAG_TRA) == RESET)
 8004570:	f001 0101 	and.w	r1, r1, #1
    HAL_I2C_AddrCallback(hi2c, TransferDirection, SlaveAddrCode);
 8004574:	4620      	mov	r0, r4
 8004576:	f7ff fc0b 	bl	8003d90 <HAL_I2C_AddrCallback>
 800457a:	e5d5      	b.n	8004128 <HAL_I2C_EV_IRQHandler+0x64>
 800457c:	08003e65 	.word	0x08003e65
      else if (hi2c->EventCount == 1U)
 8004580:	6d22      	ldr	r2, [r4, #80]	; 0x50
 8004582:	2a01      	cmp	r2, #1
 8004584:	f47f add0 	bne.w	8004128 <HAL_I2C_EV_IRQHandler+0x64>
        hi2c->Instance->DR = I2C_10BIT_HEADER_READ(hi2c->Devaddress);
 8004588:	6c62      	ldr	r2, [r4, #68]	; 0x44
 800458a:	11d2      	asrs	r2, r2, #7
 800458c:	f002 0206 	and.w	r2, r2, #6
 8004590:	f042 02f1 	orr.w	r2, r2, #241	; 0xf1
 8004594:	611a      	str	r2, [r3, #16]
 8004596:	e5c7      	b.n	8004128 <HAL_I2C_EV_IRQHandler+0x64>
      hi2c->Instance->DR = I2C_7BIT_ADD_READ(hi2c->Devaddress);
 8004598:	6c62      	ldr	r2, [r4, #68]	; 0x44
 800459a:	f042 0201 	orr.w	r2, r2, #1
 800459e:	b2d2      	uxtb	r2, r2
 80045a0:	611a      	str	r2, [r3, #16]
 80045a2:	e5c1      	b.n	8004128 <HAL_I2C_EV_IRQHandler+0x64>
    if ((hi2c->EventCount == 0U) && (CurrentMode == HAL_I2C_MODE_MEM))
 80045a4:	6d21      	ldr	r1, [r4, #80]	; 0x50
 80045a6:	b911      	cbnz	r1, 80045ae <HAL_I2C_EV_IRQHandler+0x4ea>
 80045a8:	2a40      	cmp	r2, #64	; 0x40
 80045aa:	f000 80a1 	beq.w	80046f0 <HAL_I2C_EV_IRQHandler+0x62c>
    else if ((hi2c->EventCount == 0U) && (hi2c->Init.AddressingMode == I2C_ADDRESSINGMODE_10BIT))
 80045ae:	6d22      	ldr	r2, [r4, #80]	; 0x50
 80045b0:	b922      	cbnz	r2, 80045bc <HAL_I2C_EV_IRQHandler+0x4f8>
 80045b2:	6921      	ldr	r1, [r4, #16]
 80045b4:	f5b1 4f40 	cmp.w	r1, #49152	; 0xc000
 80045b8:	f000 80a5 	beq.w	8004706 <HAL_I2C_EV_IRQHandler+0x642>
      if (hi2c->XferCount == 0U)
 80045bc:	8d62      	ldrh	r2, [r4, #42]	; 0x2a
 80045be:	b292      	uxth	r2, r2
 80045c0:	2a00      	cmp	r2, #0
 80045c2:	d142      	bne.n	800464a <HAL_I2C_EV_IRQHandler+0x586>
        __HAL_I2C_CLEAR_ADDRFLAG(hi2c);
 80045c4:	9203      	str	r2, [sp, #12]
 80045c6:	695a      	ldr	r2, [r3, #20]
 80045c8:	9203      	str	r2, [sp, #12]
 80045ca:	699a      	ldr	r2, [r3, #24]
 80045cc:	9203      	str	r2, [sp, #12]
 80045ce:	9a03      	ldr	r2, [sp, #12]
        SET_BIT(hi2c->Instance->CR1, I2C_CR1_STOP);
 80045d0:	681a      	ldr	r2, [r3, #0]
 80045d2:	f442 7200 	orr.w	r2, r2, #512	; 0x200
 80045d6:	601a      	str	r2, [r3, #0]
      hi2c->EventCount = 0U;
 80045d8:	2300      	movs	r3, #0
 80045da:	6523      	str	r3, [r4, #80]	; 0x50
 80045dc:	e5a4      	b.n	8004128 <HAL_I2C_EV_IRQHandler+0x64>
      hi2c->XferCount = (uint16_t)(__HAL_DMA_GET_COUNTER(hi2c->hdmarx));
 80045de:	6ba0      	ldr	r0, [r4, #56]	; 0x38
 80045e0:	6802      	ldr	r2, [r0, #0]
 80045e2:	6852      	ldr	r2, [r2, #4]
 80045e4:	b292      	uxth	r2, r2
 80045e6:	8562      	strh	r2, [r4, #42]	; 0x2a
      if (hi2c->XferCount != 0U)
 80045e8:	8d62      	ldrh	r2, [r4, #42]	; 0x2a
 80045ea:	b292      	uxth	r2, r2
 80045ec:	b11a      	cbz	r2, 80045f6 <HAL_I2C_EV_IRQHandler+0x532>
        hi2c->ErrorCode |= HAL_I2C_ERROR_AF;
 80045ee:	6c22      	ldr	r2, [r4, #64]	; 0x40
 80045f0:	f042 0204 	orr.w	r2, r2, #4
 80045f4:	6422      	str	r2, [r4, #64]	; 0x40
      CLEAR_BIT(hi2c->Instance->CR2, I2C_CR2_DMAEN);
 80045f6:	685a      	ldr	r2, [r3, #4]
 80045f8:	f422 6200 	bic.w	r2, r2, #2048	; 0x800
 80045fc:	605a      	str	r2, [r3, #4]
      if (HAL_DMA_GetState(hi2c->hdmarx) != HAL_DMA_STATE_READY)
 80045fe:	f7fe fcf5 	bl	8002fec <HAL_DMA_GetState>
 8004602:	2801      	cmp	r0, #1
 8004604:	f43f ae8e 	beq.w	8004324 <HAL_I2C_EV_IRQHandler+0x260>
        hi2c->hdmarx->XferAbortCallback = I2C_DMAAbort;
 8004608:	6ba0      	ldr	r0, [r4, #56]	; 0x38
 800460a:	4ba1      	ldr	r3, [pc, #644]	; (8004890 <HAL_I2C_EV_IRQHandler+0x7cc>)
 800460c:	6503      	str	r3, [r0, #80]	; 0x50
        if (HAL_DMA_Abort_IT(hi2c->hdmarx) != HAL_OK)
 800460e:	f7fe fbeb 	bl	8002de8 <HAL_DMA_Abort_IT>
 8004612:	2800      	cmp	r0, #0
 8004614:	f43f ae86 	beq.w	8004324 <HAL_I2C_EV_IRQHandler+0x260>
          hi2c->hdmarx->XferAbortCallback(hi2c->hdmarx);
 8004618:	6ba0      	ldr	r0, [r4, #56]	; 0x38
 800461a:	6d03      	ldr	r3, [r0, #80]	; 0x50
 800461c:	4798      	blx	r3
 800461e:	e681      	b.n	8004324 <HAL_I2C_EV_IRQHandler+0x260>
      hi2c->State = HAL_I2C_STATE_LISTEN;
 8004620:	2228      	movs	r2, #40	; 0x28
      hi2c->PreviousState = I2C_STATE_NONE;
 8004622:	6323      	str	r3, [r4, #48]	; 0x30
      HAL_I2C_SlaveRxCpltCallback(hi2c);
 8004624:	4620      	mov	r0, r4
      hi2c->State = HAL_I2C_STATE_LISTEN;
 8004626:	f884 203d 	strb.w	r2, [r4, #61]	; 0x3d
      HAL_I2C_SlaveRxCpltCallback(hi2c);
 800462a:	f7ff fbaf 	bl	8003d8c <HAL_I2C_SlaveRxCpltCallback>
 800462e:	e6a6      	b.n	800437e <HAL_I2C_EV_IRQHandler+0x2ba>
      hi2c->PreviousState = I2C_STATE_NONE;
 8004630:	2300      	movs	r3, #0
      hi2c->XferOptions = I2C_NO_OPTION_FRAME;
 8004632:	4998      	ldr	r1, [pc, #608]	; (8004894 <HAL_I2C_EV_IRQHandler+0x7d0>)
 8004634:	62e1      	str	r1, [r4, #44]	; 0x2c
      hi2c->State = HAL_I2C_STATE_READY;
 8004636:	2220      	movs	r2, #32
      hi2c->PreviousState = I2C_STATE_NONE;
 8004638:	6323      	str	r3, [r4, #48]	; 0x30
      HAL_I2C_ListenCpltCallback(hi2c);
 800463a:	4620      	mov	r0, r4
      hi2c->State = HAL_I2C_STATE_READY;
 800463c:	f884 203d 	strb.w	r2, [r4, #61]	; 0x3d
      hi2c->Mode = HAL_I2C_MODE_NONE;
 8004640:	f884 303e 	strb.w	r3, [r4, #62]	; 0x3e
      HAL_I2C_ListenCpltCallback(hi2c);
 8004644:	f7ff fba6 	bl	8003d94 <HAL_I2C_ListenCpltCallback>
 8004648:	e56e      	b.n	8004128 <HAL_I2C_EV_IRQHandler+0x64>
      else if (hi2c->XferCount == 1U)
 800464a:	8d62      	ldrh	r2, [r4, #42]	; 0x2a
 800464c:	b292      	uxth	r2, r2
 800464e:	2a01      	cmp	r2, #1
 8004650:	d076      	beq.n	8004740 <HAL_I2C_EV_IRQHandler+0x67c>
      else if (hi2c->XferCount == 2U)
 8004652:	8d62      	ldrh	r2, [r4, #42]	; 0x2a
 8004654:	b292      	uxth	r2, r2
 8004656:	2a02      	cmp	r2, #2
 8004658:	f000 80eb 	beq.w	8004832 <HAL_I2C_EV_IRQHandler+0x76e>
        SET_BIT(hi2c->Instance->CR1, I2C_CR1_ACK);
 800465c:	681a      	ldr	r2, [r3, #0]
 800465e:	f442 6280 	orr.w	r2, r2, #1024	; 0x400
 8004662:	601a      	str	r2, [r3, #0]
        if (((hi2c->Instance->CR2 & I2C_CR2_DMAEN) == I2C_CR2_DMAEN) && ((CurrentXferOptions == I2C_NO_OPTION_FRAME) || (CurrentXferOptions == I2C_FIRST_FRAME) || (CurrentXferOptions == I2C_FIRST_AND_LAST_FRAME) || (CurrentXferOptions == I2C_LAST_FRAME_NO_STOP) || (CurrentXferOptions == I2C_LAST_FRAME)))
 8004664:	685a      	ldr	r2, [r3, #4]
 8004666:	0512      	lsls	r2, r2, #20
 8004668:	d50e      	bpl.n	8004688 <HAL_I2C_EV_IRQHandler+0x5c4>
 800466a:	f510 3f80 	cmn.w	r0, #65536	; 0x10000
 800466e:	d007      	beq.n	8004680 <HAL_I2C_EV_IRQHandler+0x5bc>
 8004670:	3801      	subs	r0, #1
 8004672:	281f      	cmp	r0, #31
 8004674:	d808      	bhi.n	8004688 <HAL_I2C_EV_IRQHandler+0x5c4>
 8004676:	4a88      	ldr	r2, [pc, #544]	; (8004898 <HAL_I2C_EV_IRQHandler+0x7d4>)
 8004678:	fa22 f000 	lsr.w	r0, r2, r0
 800467c:	07c6      	lsls	r6, r0, #31
 800467e:	d503      	bpl.n	8004688 <HAL_I2C_EV_IRQHandler+0x5c4>
          SET_BIT(hi2c->Instance->CR2, I2C_CR2_LAST);
 8004680:	685a      	ldr	r2, [r3, #4]
 8004682:	f442 5280 	orr.w	r2, r2, #4096	; 0x1000
 8004686:	605a      	str	r2, [r3, #4]
        __HAL_I2C_CLEAR_ADDRFLAG(hi2c);
 8004688:	2200      	movs	r2, #0
 800468a:	9209      	str	r2, [sp, #36]	; 0x24
 800468c:	695a      	ldr	r2, [r3, #20]
 800468e:	9209      	str	r2, [sp, #36]	; 0x24
 8004690:	699b      	ldr	r3, [r3, #24]
 8004692:	9309      	str	r3, [sp, #36]	; 0x24
 8004694:	9b09      	ldr	r3, [sp, #36]	; 0x24
 8004696:	e79f      	b.n	80045d8 <HAL_I2C_EV_IRQHandler+0x514>
    __HAL_I2C_DISABLE_IT(hi2c, I2C_IT_BUF);
 8004698:	685a      	ldr	r2, [r3, #4]
    *hi2c->pBuffPtr = (uint8_t)hi2c->Instance->DR;
 800469a:	6a61      	ldr	r1, [r4, #36]	; 0x24
    __HAL_I2C_DISABLE_IT(hi2c, I2C_IT_BUF);
 800469c:	f422 6280 	bic.w	r2, r2, #1024	; 0x400
 80046a0:	605a      	str	r2, [r3, #4]
    *hi2c->pBuffPtr = (uint8_t)hi2c->Instance->DR;
 80046a2:	691b      	ldr	r3, [r3, #16]
 80046a4:	700b      	strb	r3, [r1, #0]
    hi2c->pBuffPtr++;
 80046a6:	e6eb      	b.n	8004480 <HAL_I2C_EV_IRQHandler+0x3bc>
  uint32_t CurrentXferOptions = hi2c->XferOptions;
 80046a8:	6ae1      	ldr	r1, [r4, #44]	; 0x2c
  if (hi2c->State == HAL_I2C_STATE_BUSY_TX)
 80046aa:	f894 203d 	ldrb.w	r2, [r4, #61]	; 0x3d
 80046ae:	2a21      	cmp	r2, #33	; 0x21
 80046b0:	f47f ad3a 	bne.w	8004128 <HAL_I2C_EV_IRQHandler+0x64>
    if (hi2c->XferCount != 0U)
 80046b4:	8d62      	ldrh	r2, [r4, #42]	; 0x2a
 80046b6:	b292      	uxth	r2, r2
 80046b8:	2a00      	cmp	r2, #0
 80046ba:	f47f aeac 	bne.w	8004416 <HAL_I2C_EV_IRQHandler+0x352>
      if ((CurrentXferOptions != I2C_FIRST_AND_LAST_FRAME) && (CurrentXferOptions != I2C_LAST_FRAME) && (CurrentXferOptions != I2C_NO_OPTION_FRAME))
 80046be:	2908      	cmp	r1, #8
 80046c0:	f000 809f 	beq.w	8004802 <HAL_I2C_EV_IRQHandler+0x73e>
 80046c4:	2920      	cmp	r1, #32
 80046c6:	f000 809c 	beq.w	8004802 <HAL_I2C_EV_IRQHandler+0x73e>
 80046ca:	f511 3f80 	cmn.w	r1, #65536	; 0x10000
 80046ce:	f000 8098 	beq.w	8004802 <HAL_I2C_EV_IRQHandler+0x73e>
        __HAL_I2C_DISABLE_IT(hi2c, I2C_IT_EVT | I2C_IT_BUF | I2C_IT_ERR);
 80046d2:	6859      	ldr	r1, [r3, #4]
 80046d4:	f421 61e0 	bic.w	r1, r1, #1792	; 0x700
 80046d8:	6059      	str	r1, [r3, #4]
        hi2c->PreviousState = I2C_STATE_MASTER_BUSY_TX;
 80046da:	2011      	movs	r0, #17
        hi2c->State = HAL_I2C_STATE_READY;
 80046dc:	2320      	movs	r3, #32
        hi2c->PreviousState = I2C_STATE_MASTER_BUSY_TX;
 80046de:	6320      	str	r0, [r4, #48]	; 0x30
        hi2c->Mode = HAL_I2C_MODE_NONE;
 80046e0:	f884 203e 	strb.w	r2, [r4, #62]	; 0x3e
        HAL_I2C_MasterTxCpltCallback(hi2c);
 80046e4:	4620      	mov	r0, r4
        hi2c->State = HAL_I2C_STATE_READY;
 80046e6:	f884 303d 	strb.w	r3, [r4, #61]	; 0x3d
        HAL_I2C_MasterTxCpltCallback(hi2c);
 80046ea:	f7ff fb49 	bl	8003d80 <HAL_I2C_MasterTxCpltCallback>
 80046ee:	e51b      	b.n	8004128 <HAL_I2C_EV_IRQHandler+0x64>
      __HAL_I2C_CLEAR_ADDRFLAG(hi2c);
 80046f0:	9101      	str	r1, [sp, #4]
 80046f2:	695a      	ldr	r2, [r3, #20]
 80046f4:	9201      	str	r2, [sp, #4]
 80046f6:	699b      	ldr	r3, [r3, #24]
 80046f8:	9301      	str	r3, [sp, #4]
 80046fa:	9b01      	ldr	r3, [sp, #4]
 80046fc:	e514      	b.n	8004128 <HAL_I2C_EV_IRQHandler+0x64>
  else if ((CurrentState == HAL_I2C_STATE_BUSY_TX) || \
 80046fe:	2a21      	cmp	r2, #33	; 0x21
 8004700:	f43f adcb 	beq.w	800429a <HAL_I2C_EV_IRQHandler+0x1d6>
 8004704:	e5c3      	b.n	800428e <HAL_I2C_EV_IRQHandler+0x1ca>
      __HAL_I2C_CLEAR_ADDRFLAG(hi2c);
 8004706:	9202      	str	r2, [sp, #8]
 8004708:	695a      	ldr	r2, [r3, #20]
 800470a:	9202      	str	r2, [sp, #8]
 800470c:	699a      	ldr	r2, [r3, #24]
 800470e:	9202      	str	r2, [sp, #8]
 8004710:	9a02      	ldr	r2, [sp, #8]
      SET_BIT(hi2c->Instance->CR1, I2C_CR1_START);
 8004712:	681a      	ldr	r2, [r3, #0]
 8004714:	f442 7280 	orr.w	r2, r2, #256	; 0x100
 8004718:	601a      	str	r2, [r3, #0]
      hi2c->EventCount++;
 800471a:	6d23      	ldr	r3, [r4, #80]	; 0x50
 800471c:	3301      	adds	r3, #1
 800471e:	6523      	str	r3, [r4, #80]	; 0x50
 8004720:	e502      	b.n	8004128 <HAL_I2C_EV_IRQHandler+0x64>
    __HAL_I2C_DISABLE_IT(hi2c, I2C_IT_BUF);
 8004722:	685a      	ldr	r2, [r3, #4]
    if ((CurrentXferOptions != I2C_NEXT_FRAME) && (CurrentXferOptions != I2C_FIRST_AND_NEXT_FRAME))
 8004724:	2904      	cmp	r1, #4
    __HAL_I2C_DISABLE_IT(hi2c, I2C_IT_BUF);
 8004726:	f422 6280 	bic.w	r2, r2, #1024	; 0x400
 800472a:	605a      	str	r2, [r3, #4]
    if ((CurrentXferOptions != I2C_NEXT_FRAME) && (CurrentXferOptions != I2C_FIRST_AND_NEXT_FRAME))
 800472c:	f43f aea5 	beq.w	800447a <HAL_I2C_EV_IRQHandler+0x3b6>
 8004730:	2902      	cmp	r1, #2
 8004732:	f43f aea2 	beq.w	800447a <HAL_I2C_EV_IRQHandler+0x3b6>
      CLEAR_BIT(hi2c->Instance->CR1, I2C_CR1_ACK);
 8004736:	681a      	ldr	r2, [r3, #0]
 8004738:	f422 6280 	bic.w	r2, r2, #1024	; 0x400
 800473c:	601a      	str	r2, [r3, #0]
 800473e:	e69c      	b.n	800447a <HAL_I2C_EV_IRQHandler+0x3b6>
        if (CurrentXferOptions == I2C_NO_OPTION_FRAME)
 8004740:	f510 3f80 	cmn.w	r0, #65536	; 0x10000
 8004744:	f000 8103 	beq.w	800494e <HAL_I2C_EV_IRQHandler+0x88a>
        else if ((CurrentXferOptions != I2C_FIRST_AND_LAST_FRAME) && (CurrentXferOptions != I2C_LAST_FRAME) \
 8004748:	2808      	cmp	r0, #8
 800474a:	f000 80d1 	beq.w	80048f0 <HAL_I2C_EV_IRQHandler+0x82c>
 800474e:	2820      	cmp	r0, #32
 8004750:	f000 80ce 	beq.w	80048f0 <HAL_I2C_EV_IRQHandler+0x82c>
                 && ((Prev_State != I2C_STATE_MASTER_BUSY_RX) || (CurrentXferOptions == I2C_FIRST_FRAME)))
 8004754:	2d12      	cmp	r5, #18
 8004756:	f000 813d 	beq.w	80049d4 <HAL_I2C_EV_IRQHandler+0x910>
          if ((CurrentXferOptions != I2C_NEXT_FRAME) && (CurrentXferOptions != I2C_FIRST_AND_NEXT_FRAME) && (CurrentXferOptions != I2C_LAST_FRAME_NO_STOP))
 800475a:	2810      	cmp	r0, #16
 800475c:	f200 813c 	bhi.w	80049d8 <HAL_I2C_EV_IRQHandler+0x914>
 8004760:	4a4e      	ldr	r2, [pc, #312]	; (800489c <HAL_I2C_EV_IRQHandler+0x7d8>)
 8004762:	fa22 f000 	lsr.w	r0, r2, r0
 8004766:	07c1      	lsls	r1, r0, #31
 8004768:	f140 8136 	bpl.w	80049d8 <HAL_I2C_EV_IRQHandler+0x914>
            SET_BIT(hi2c->Instance->CR1, I2C_CR1_ACK);
 800476c:	681a      	ldr	r2, [r3, #0]
 800476e:	f442 6280 	orr.w	r2, r2, #1024	; 0x400
 8004772:	601a      	str	r2, [r3, #0]
          __HAL_I2C_CLEAR_ADDRFLAG(hi2c);
 8004774:	2200      	movs	r2, #0
 8004776:	9206      	str	r2, [sp, #24]
 8004778:	695a      	ldr	r2, [r3, #20]
 800477a:	9206      	str	r2, [sp, #24]
 800477c:	699b      	ldr	r3, [r3, #24]
 800477e:	9306      	str	r3, [sp, #24]
 8004780:	9b06      	ldr	r3, [sp, #24]
 8004782:	e729      	b.n	80045d8 <HAL_I2C_EV_IRQHandler+0x514>
      __HAL_I2C_DISABLE_IT(hi2c, I2C_IT_BUF);
 8004784:	685a      	ldr	r2, [r3, #4]
 8004786:	f422 6280 	bic.w	r2, r2, #1024	; 0x400
 800478a:	605a      	str	r2, [r3, #4]
 800478c:	e4cc      	b.n	8004128 <HAL_I2C_EV_IRQHandler+0x64>
    if ((CurrentXferOptions == I2C_FIRST_FRAME) || (CurrentXferOptions == I2C_LAST_FRAME_NO_STOP))
 800478e:	2901      	cmp	r1, #1
      CLEAR_BIT(hi2c->Instance->CR1, I2C_CR1_ACK);
 8004790:	681a      	ldr	r2, [r3, #0]
    if ((CurrentXferOptions == I2C_FIRST_FRAME) || (CurrentXferOptions == I2C_LAST_FRAME_NO_STOP))
 8004792:	f000 80d8 	beq.w	8004946 <HAL_I2C_EV_IRQHandler+0x882>
 8004796:	2910      	cmp	r1, #16
 8004798:	f000 80d5 	beq.w	8004946 <HAL_I2C_EV_IRQHandler+0x882>
    else if ((CurrentXferOptions == I2C_NEXT_FRAME) || (CurrentXferOptions == I2C_FIRST_AND_NEXT_FRAME))
 800479c:	2904      	cmp	r1, #4
 800479e:	f000 810a 	beq.w	80049b6 <HAL_I2C_EV_IRQHandler+0x8f2>
 80047a2:	2902      	cmp	r1, #2
 80047a4:	f000 8107 	beq.w	80049b6 <HAL_I2C_EV_IRQHandler+0x8f2>
      SET_BIT(hi2c->Instance->CR1, I2C_CR1_STOP);
 80047a8:	f442 7200 	orr.w	r2, r2, #512	; 0x200
 80047ac:	601a      	str	r2, [r3, #0]
    *hi2c->pBuffPtr = (uint8_t)hi2c->Instance->DR;
 80047ae:	6a62      	ldr	r2, [r4, #36]	; 0x24
 80047b0:	691b      	ldr	r3, [r3, #16]
 80047b2:	7013      	strb	r3, [r2, #0]
    hi2c->XferCount--;
 80047b4:	8d63      	ldrh	r3, [r4, #42]	; 0x2a
    hi2c->pBuffPtr++;
 80047b6:	6a62      	ldr	r2, [r4, #36]	; 0x24
    *hi2c->pBuffPtr = (uint8_t)hi2c->Instance->DR;
 80047b8:	6821      	ldr	r1, [r4, #0]
    hi2c->XferCount--;
 80047ba:	3b01      	subs	r3, #1
 80047bc:	b29b      	uxth	r3, r3
 80047be:	8563      	strh	r3, [r4, #42]	; 0x2a
    *hi2c->pBuffPtr = (uint8_t)hi2c->Instance->DR;
 80047c0:	690b      	ldr	r3, [r1, #16]
    hi2c->pBuffPtr++;
 80047c2:	1c51      	adds	r1, r2, #1
 80047c4:	6261      	str	r1, [r4, #36]	; 0x24
    *hi2c->pBuffPtr = (uint8_t)hi2c->Instance->DR;
 80047c6:	7053      	strb	r3, [r2, #1]
    hi2c->XferCount--;
 80047c8:	8d63      	ldrh	r3, [r4, #42]	; 0x2a
    __HAL_I2C_DISABLE_IT(hi2c, I2C_IT_EVT | I2C_IT_ERR);
 80047ca:	6821      	ldr	r1, [r4, #0]
    hi2c->pBuffPtr++;
 80047cc:	6a62      	ldr	r2, [r4, #36]	; 0x24
    hi2c->XferCount--;
 80047ce:	3b01      	subs	r3, #1
 80047d0:	b29b      	uxth	r3, r3
 80047d2:	8563      	strh	r3, [r4, #42]	; 0x2a
    __HAL_I2C_DISABLE_IT(hi2c, I2C_IT_EVT | I2C_IT_ERR);
 80047d4:	684b      	ldr	r3, [r1, #4]
    hi2c->pBuffPtr++;
 80047d6:	3201      	adds	r2, #1
    __HAL_I2C_DISABLE_IT(hi2c, I2C_IT_EVT | I2C_IT_ERR);
 80047d8:	f423 7340 	bic.w	r3, r3, #768	; 0x300
    hi2c->State = HAL_I2C_STATE_READY;
 80047dc:	2020      	movs	r0, #32
    hi2c->pBuffPtr++;
 80047de:	6262      	str	r2, [r4, #36]	; 0x24
    __HAL_I2C_DISABLE_IT(hi2c, I2C_IT_EVT | I2C_IT_ERR);
 80047e0:	604b      	str	r3, [r1, #4]
    hi2c->State = HAL_I2C_STATE_READY;
 80047e2:	f884 003d 	strb.w	r0, [r4, #61]	; 0x3d
    if (hi2c->Mode == HAL_I2C_MODE_MEM)
 80047e6:	f894 303e 	ldrb.w	r3, [r4, #62]	; 0x3e
 80047ea:	2b40      	cmp	r3, #64	; 0x40
 80047ec:	f000 80c3 	beq.w	8004976 <HAL_I2C_EV_IRQHandler+0x8b2>
      hi2c->Mode = HAL_I2C_MODE_NONE;
 80047f0:	2200      	movs	r2, #0
      hi2c->PreviousState = I2C_STATE_MASTER_BUSY_RX;
 80047f2:	2312      	movs	r3, #18
      hi2c->Mode = HAL_I2C_MODE_NONE;
 80047f4:	f884 203e 	strb.w	r2, [r4, #62]	; 0x3e
      HAL_I2C_MasterRxCpltCallback(hi2c);
 80047f8:	4620      	mov	r0, r4
      hi2c->PreviousState = I2C_STATE_MASTER_BUSY_RX;
 80047fa:	6323      	str	r3, [r4, #48]	; 0x30
      HAL_I2C_MasterRxCpltCallback(hi2c);
 80047fc:	f7ff fac2 	bl	8003d84 <HAL_I2C_MasterRxCpltCallback>
 8004800:	e492      	b.n	8004128 <HAL_I2C_EV_IRQHandler+0x64>
        __HAL_I2C_DISABLE_IT(hi2c, I2C_IT_EVT | I2C_IT_BUF | I2C_IT_ERR);
 8004802:	6859      	ldr	r1, [r3, #4]
 8004804:	f421 61e0 	bic.w	r1, r1, #1792	; 0x700
 8004808:	6059      	str	r1, [r3, #4]
        SET_BIT(hi2c->Instance->CR1, I2C_CR1_STOP);
 800480a:	6819      	ldr	r1, [r3, #0]
        hi2c->PreviousState = I2C_STATE_NONE;
 800480c:	2200      	movs	r2, #0
        hi2c->State = HAL_I2C_STATE_READY;
 800480e:	2020      	movs	r0, #32
        SET_BIT(hi2c->Instance->CR1, I2C_CR1_STOP);
 8004810:	f441 7100 	orr.w	r1, r1, #512	; 0x200
 8004814:	6019      	str	r1, [r3, #0]
        hi2c->PreviousState = I2C_STATE_NONE;
 8004816:	6322      	str	r2, [r4, #48]	; 0x30
        hi2c->State = HAL_I2C_STATE_READY;
 8004818:	f884 003d 	strb.w	r0, [r4, #61]	; 0x3d
        if (hi2c->Mode == HAL_I2C_MODE_MEM)
 800481c:	f894 303e 	ldrb.w	r3, [r4, #62]	; 0x3e
          hi2c->Mode = HAL_I2C_MODE_NONE;
 8004820:	f884 203e 	strb.w	r2, [r4, #62]	; 0x3e
        if (hi2c->Mode == HAL_I2C_MODE_MEM)
 8004824:	2b40      	cmp	r3, #64	; 0x40
          HAL_I2C_MemTxCpltCallback(hi2c);
 8004826:	4620      	mov	r0, r4
        if (hi2c->Mode == HAL_I2C_MODE_MEM)
 8004828:	f47f af5f 	bne.w	80046ea <HAL_I2C_EV_IRQHandler+0x626>
          HAL_I2C_MemTxCpltCallback(hi2c);
 800482c:	f7ff fab4 	bl	8003d98 <HAL_I2C_MemTxCpltCallback>
 8004830:	e47a      	b.n	8004128 <HAL_I2C_EV_IRQHandler+0x64>
        if ((CurrentXferOptions != I2C_NEXT_FRAME) && (CurrentXferOptions != I2C_FIRST_AND_NEXT_FRAME) && (CurrentXferOptions != I2C_LAST_FRAME_NO_STOP))
 8004832:	2810      	cmp	r0, #16
 8004834:	f240 80a8 	bls.w	8004988 <HAL_I2C_EV_IRQHandler+0x8c4>
          CLEAR_BIT(hi2c->Instance->CR1, I2C_CR1_ACK);
 8004838:	681a      	ldr	r2, [r3, #0]
 800483a:	f422 6280 	bic.w	r2, r2, #1024	; 0x400
 800483e:	601a      	str	r2, [r3, #0]
          SET_BIT(hi2c->Instance->CR1, I2C_CR1_POS);
 8004840:	681a      	ldr	r2, [r3, #0]
 8004842:	f442 6200 	orr.w	r2, r2, #2048	; 0x800
 8004846:	601a      	str	r2, [r3, #0]
        if (((hi2c->Instance->CR2 & I2C_CR2_DMAEN) == I2C_CR2_DMAEN) && ((CurrentXferOptions == I2C_NO_OPTION_FRAME) || (CurrentXferOptions == I2C_FIRST_FRAME) || (CurrentXferOptions == I2C_FIRST_AND_LAST_FRAME) || (CurrentXferOptions == I2C_LAST_FRAME_NO_STOP) || (CurrentXferOptions == I2C_LAST_FRAME)))
 8004848:	685a      	ldr	r2, [r3, #4]
 800484a:	0516      	lsls	r6, r2, #20
 800484c:	d507      	bpl.n	800485e <HAL_I2C_EV_IRQHandler+0x79a>
 800484e:	f510 3f80 	cmn.w	r0, #65536	; 0x10000
 8004852:	f040 80a6 	bne.w	80049a2 <HAL_I2C_EV_IRQHandler+0x8de>
          SET_BIT(hi2c->Instance->CR2, I2C_CR2_LAST);
 8004856:	685a      	ldr	r2, [r3, #4]
 8004858:	f442 5280 	orr.w	r2, r2, #4096	; 0x1000
 800485c:	605a      	str	r2, [r3, #4]
        __HAL_I2C_CLEAR_ADDRFLAG(hi2c);
 800485e:	2200      	movs	r2, #0
 8004860:	9208      	str	r2, [sp, #32]
 8004862:	695a      	ldr	r2, [r3, #20]
 8004864:	9208      	str	r2, [sp, #32]
 8004866:	699b      	ldr	r3, [r3, #24]
 8004868:	9308      	str	r3, [sp, #32]
 800486a:	9b08      	ldr	r3, [sp, #32]
 800486c:	e6b4      	b.n	80045d8 <HAL_I2C_EV_IRQHandler+0x514>
    else if ((hi2c->XferOptions != I2C_FIRST_AND_NEXT_FRAME) && ((tmp == 1U) || (tmp == 0U)))
 800486e:	6ae0      	ldr	r0, [r4, #44]	; 0x2c
 8004870:	2802      	cmp	r0, #2
 8004872:	d087      	beq.n	8004784 <HAL_I2C_EV_IRQHandler+0x6c0>
 8004874:	2901      	cmp	r1, #1
 8004876:	d885      	bhi.n	8004784 <HAL_I2C_EV_IRQHandler+0x6c0>
  count = I2C_TIMEOUT_STOP_FLAG * (SystemCoreClock / 25U / 1000U);
 8004878:	4909      	ldr	r1, [pc, #36]	; (80048a0 <HAL_I2C_EV_IRQHandler+0x7dc>)
  __IO uint32_t count = 0U;
 800487a:	920b      	str	r2, [sp, #44]	; 0x2c
  count = I2C_TIMEOUT_STOP_FLAG * (SystemCoreClock / 25U / 1000U);
 800487c:	6809      	ldr	r1, [r1, #0]
 800487e:	f246 10a8 	movw	r0, #25000	; 0x61a8
 8004882:	fbb1 f1f0 	udiv	r1, r1, r0
 8004886:	eb01 0181 	add.w	r1, r1, r1, lsl #2
 800488a:	910b      	str	r1, [sp, #44]	; 0x2c
 800488c:	e00f      	b.n	80048ae <HAL_I2C_EV_IRQHandler+0x7ea>
 800488e:	bf00      	nop
 8004890:	08003e65 	.word	0x08003e65
 8004894:	ffff0000 	.word	0xffff0000
 8004898:	80008081 	.word	0x80008081
 800489c:	00010014 	.word	0x00010014
 80048a0:	20000040 	.word	0x20000040
  while (READ_BIT(hi2c->Instance->CR1, I2C_CR1_STOP) == I2C_CR1_STOP);
 80048a4:	681a      	ldr	r2, [r3, #0]
 80048a6:	f412 7200 	ands.w	r2, r2, #512	; 0x200
 80048aa:	f000 809a 	beq.w	80049e2 <HAL_I2C_EV_IRQHandler+0x91e>
    count--;
 80048ae:	9a0b      	ldr	r2, [sp, #44]	; 0x2c
 80048b0:	3a01      	subs	r2, #1
 80048b2:	920b      	str	r2, [sp, #44]	; 0x2c
    if (count == 0U)
 80048b4:	990b      	ldr	r1, [sp, #44]	; 0x2c
 80048b6:	2900      	cmp	r1, #0
 80048b8:	d1f4      	bne.n	80048a4 <HAL_I2C_EV_IRQHandler+0x7e0>
      hi2c->ErrorCode           |= HAL_I2C_ERROR_TIMEOUT;
 80048ba:	6c22      	ldr	r2, [r4, #64]	; 0x40
        *hi2c->pBuffPtr = (uint8_t)hi2c->Instance->DR;
 80048bc:	6a60      	ldr	r0, [r4, #36]	; 0x24
      hi2c->ErrorCode           |= HAL_I2C_ERROR_TIMEOUT;
 80048be:	f042 0220 	orr.w	r2, r2, #32
 80048c2:	6422      	str	r2, [r4, #64]	; 0x40
        __HAL_I2C_DISABLE_IT(hi2c, I2C_IT_EVT | I2C_IT_BUF | I2C_IT_ERR);
 80048c4:	685a      	ldr	r2, [r3, #4]
 80048c6:	f422 62e0 	bic.w	r2, r2, #1792	; 0x700
 80048ca:	605a      	str	r2, [r3, #4]
        *hi2c->pBuffPtr = (uint8_t)hi2c->Instance->DR;
 80048cc:	691b      	ldr	r3, [r3, #16]
 80048ce:	7003      	strb	r3, [r0, #0]
        hi2c->XferCount--;
 80048d0:	8d63      	ldrh	r3, [r4, #42]	; 0x2a
        hi2c->pBuffPtr++;
 80048d2:	6a62      	ldr	r2, [r4, #36]	; 0x24
        hi2c->XferCount--;
 80048d4:	3b01      	subs	r3, #1
        hi2c->pBuffPtr++;
 80048d6:	3201      	adds	r2, #1
        hi2c->XferCount--;
 80048d8:	b29b      	uxth	r3, r3
        hi2c->State = HAL_I2C_STATE_READY;
 80048da:	2020      	movs	r0, #32
        hi2c->XferCount--;
 80048dc:	8563      	strh	r3, [r4, #42]	; 0x2a
        hi2c->pBuffPtr++;
 80048de:	6262      	str	r2, [r4, #36]	; 0x24
        hi2c->State = HAL_I2C_STATE_READY;
 80048e0:	f884 003d 	strb.w	r0, [r4, #61]	; 0x3d
        HAL_I2C_ErrorCallback(hi2c);
 80048e4:	4620      	mov	r0, r4
        hi2c->Mode = HAL_I2C_MODE_NONE;
 80048e6:	f884 103e 	strb.w	r1, [r4, #62]	; 0x3e
        HAL_I2C_ErrorCallback(hi2c);
 80048ea:	f7ff fab7 	bl	8003e5c <HAL_I2C_ErrorCallback>
 80048ee:	e41b      	b.n	8004128 <HAL_I2C_EV_IRQHandler+0x64>
          CLEAR_BIT(hi2c->Instance->CR1, I2C_CR1_ACK);
 80048f0:	681a      	ldr	r2, [r3, #0]
          __HAL_I2C_CLEAR_ADDRFLAG(hi2c);
 80048f2:	2100      	movs	r1, #0
          CLEAR_BIT(hi2c->Instance->CR1, I2C_CR1_ACK);
 80048f4:	f422 6280 	bic.w	r2, r2, #1024	; 0x400
 80048f8:	601a      	str	r2, [r3, #0]
          __HAL_I2C_CLEAR_ADDRFLAG(hi2c);
 80048fa:	9107      	str	r1, [sp, #28]
 80048fc:	695a      	ldr	r2, [r3, #20]
 80048fe:	9207      	str	r2, [sp, #28]
 8004900:	699a      	ldr	r2, [r3, #24]
 8004902:	9207      	str	r2, [sp, #28]
 8004904:	9a07      	ldr	r2, [sp, #28]
          SET_BIT(hi2c->Instance->CR1, I2C_CR1_STOP);
 8004906:	681a      	ldr	r2, [r3, #0]
 8004908:	f442 7200 	orr.w	r2, r2, #512	; 0x200
 800490c:	601a      	str	r2, [r3, #0]
 800490e:	e663      	b.n	80045d8 <HAL_I2C_EV_IRQHandler+0x514>
    if ((CurrentXferOptions != I2C_FIRST_AND_LAST_FRAME) && (CurrentXferOptions != I2C_LAST_FRAME) && (CurrentXferOptions != I2C_NO_OPTION_FRAME))
 8004910:	2d08      	cmp	r5, #8
 8004912:	f43f af76 	beq.w	8004802 <HAL_I2C_EV_IRQHandler+0x73e>
 8004916:	2d20      	cmp	r5, #32
 8004918:	f43f af73 	beq.w	8004802 <HAL_I2C_EV_IRQHandler+0x73e>
 800491c:	f515 3f80 	cmn.w	r5, #65536	; 0x10000
 8004920:	f43f af6f 	beq.w	8004802 <HAL_I2C_EV_IRQHandler+0x73e>
      __HAL_I2C_DISABLE_IT(hi2c, I2C_IT_EVT | I2C_IT_BUF | I2C_IT_ERR);
 8004924:	685a      	ldr	r2, [r3, #4]
 8004926:	f422 62e0 	bic.w	r2, r2, #1792	; 0x700
 800492a:	605a      	str	r2, [r3, #4]
      hi2c->PreviousState = I2C_STATE_MASTER_BUSY_TX;
 800492c:	2011      	movs	r0, #17
      hi2c->Mode = HAL_I2C_MODE_NONE;
 800492e:	2100      	movs	r1, #0
      hi2c->State = HAL_I2C_STATE_READY;
 8004930:	2320      	movs	r3, #32
      hi2c->PreviousState = I2C_STATE_MASTER_BUSY_TX;
 8004932:	6320      	str	r0, [r4, #48]	; 0x30
      hi2c->Mode = HAL_I2C_MODE_NONE;
 8004934:	f884 103e 	strb.w	r1, [r4, #62]	; 0x3e
      HAL_I2C_MasterTxCpltCallback(hi2c);
 8004938:	4620      	mov	r0, r4
      hi2c->State = HAL_I2C_STATE_READY;
 800493a:	f884 303d 	strb.w	r3, [r4, #61]	; 0x3d
      HAL_I2C_MasterTxCpltCallback(hi2c);
 800493e:	f7ff fa1f 	bl	8003d80 <HAL_I2C_MasterTxCpltCallback>
 8004942:	f7ff bbf1 	b.w	8004128 <HAL_I2C_EV_IRQHandler+0x64>
      CLEAR_BIT(hi2c->Instance->CR1, I2C_CR1_ACK);
 8004946:	f422 6280 	bic.w	r2, r2, #1024	; 0x400
 800494a:	601a      	str	r2, [r3, #0]
 800494c:	e72f      	b.n	80047ae <HAL_I2C_EV_IRQHandler+0x6ea>
          CLEAR_BIT(hi2c->Instance->CR1, I2C_CR1_ACK);
 800494e:	681a      	ldr	r2, [r3, #0]
 8004950:	f422 6280 	bic.w	r2, r2, #1024	; 0x400
 8004954:	601a      	str	r2, [r3, #0]
          if ((hi2c->Instance->CR2 & I2C_CR2_DMAEN) == I2C_CR2_DMAEN)
 8004956:	685a      	ldr	r2, [r3, #4]
 8004958:	f412 6200 	ands.w	r2, r2, #2048	; 0x800
 800495c:	d02f      	beq.n	80049be <HAL_I2C_EV_IRQHandler+0x8fa>
            CLEAR_BIT(hi2c->Instance->CR1, I2C_CR1_ACK);
 800495e:	681a      	ldr	r2, [r3, #0]
            __HAL_I2C_CLEAR_ADDRFLAG(hi2c);
 8004960:	2100      	movs	r1, #0
            CLEAR_BIT(hi2c->Instance->CR1, I2C_CR1_ACK);
 8004962:	f422 6280 	bic.w	r2, r2, #1024	; 0x400
 8004966:	601a      	str	r2, [r3, #0]
            __HAL_I2C_CLEAR_ADDRFLAG(hi2c);
 8004968:	9104      	str	r1, [sp, #16]
 800496a:	695a      	ldr	r2, [r3, #20]
 800496c:	9204      	str	r2, [sp, #16]
 800496e:	699b      	ldr	r3, [r3, #24]
 8004970:	9304      	str	r3, [sp, #16]
 8004972:	9b04      	ldr	r3, [sp, #16]
 8004974:	e630      	b.n	80045d8 <HAL_I2C_EV_IRQHandler+0x514>
      hi2c->Mode = HAL_I2C_MODE_NONE;
 8004976:	2300      	movs	r3, #0
 8004978:	f884 303e 	strb.w	r3, [r4, #62]	; 0x3e
      HAL_I2C_MemRxCpltCallback(hi2c);
 800497c:	4620      	mov	r0, r4
      hi2c->PreviousState = I2C_STATE_NONE;
 800497e:	6323      	str	r3, [r4, #48]	; 0x30
      HAL_I2C_MemRxCpltCallback(hi2c);
 8004980:	f7ff fa6a 	bl	8003e58 <HAL_I2C_MemRxCpltCallback>
 8004984:	f7ff bbd0 	b.w	8004128 <HAL_I2C_EV_IRQHandler+0x64>
        if ((CurrentXferOptions != I2C_NEXT_FRAME) && (CurrentXferOptions != I2C_FIRST_AND_NEXT_FRAME) && (CurrentXferOptions != I2C_LAST_FRAME_NO_STOP))
 8004988:	4a27      	ldr	r2, [pc, #156]	; (8004a28 <HAL_I2C_EV_IRQHandler+0x964>)
 800498a:	40c2      	lsrs	r2, r0
 800498c:	07d2      	lsls	r2, r2, #31
 800498e:	f57f af53 	bpl.w	8004838 <HAL_I2C_EV_IRQHandler+0x774>
          SET_BIT(hi2c->Instance->CR1, I2C_CR1_ACK);
 8004992:	681a      	ldr	r2, [r3, #0]
 8004994:	f442 6280 	orr.w	r2, r2, #1024	; 0x400
 8004998:	601a      	str	r2, [r3, #0]
        if (((hi2c->Instance->CR2 & I2C_CR2_DMAEN) == I2C_CR2_DMAEN) && ((CurrentXferOptions == I2C_NO_OPTION_FRAME) || (CurrentXferOptions == I2C_FIRST_FRAME) || (CurrentXferOptions == I2C_FIRST_AND_LAST_FRAME) || (CurrentXferOptions == I2C_LAST_FRAME_NO_STOP) || (CurrentXferOptions == I2C_LAST_FRAME)))
 800499a:	685a      	ldr	r2, [r3, #4]
 800499c:	0515      	lsls	r5, r2, #20
 800499e:	f57f af5e 	bpl.w	800485e <HAL_I2C_EV_IRQHandler+0x79a>
 80049a2:	3801      	subs	r0, #1
 80049a4:	281f      	cmp	r0, #31
 80049a6:	f63f af5a 	bhi.w	800485e <HAL_I2C_EV_IRQHandler+0x79a>
 80049aa:	4a20      	ldr	r2, [pc, #128]	; (8004a2c <HAL_I2C_EV_IRQHandler+0x968>)
 80049ac:	40c2      	lsrs	r2, r0
 80049ae:	07d1      	lsls	r1, r2, #31
 80049b0:	f57f af55 	bpl.w	800485e <HAL_I2C_EV_IRQHandler+0x79a>
 80049b4:	e74f      	b.n	8004856 <HAL_I2C_EV_IRQHandler+0x792>
      SET_BIT(hi2c->Instance->CR1, I2C_CR1_ACK);
 80049b6:	f442 6280 	orr.w	r2, r2, #1024	; 0x400
 80049ba:	601a      	str	r2, [r3, #0]
 80049bc:	e6f7      	b.n	80047ae <HAL_I2C_EV_IRQHandler+0x6ea>
            __HAL_I2C_CLEAR_ADDRFLAG(hi2c);
 80049be:	9205      	str	r2, [sp, #20]
 80049c0:	695a      	ldr	r2, [r3, #20]
 80049c2:	9205      	str	r2, [sp, #20]
 80049c4:	699a      	ldr	r2, [r3, #24]
 80049c6:	9205      	str	r2, [sp, #20]
 80049c8:	9a05      	ldr	r2, [sp, #20]
            SET_BIT(hi2c->Instance->CR1, I2C_CR1_STOP);
 80049ca:	681a      	ldr	r2, [r3, #0]
 80049cc:	f442 7200 	orr.w	r2, r2, #512	; 0x200
 80049d0:	601a      	str	r2, [r3, #0]
 80049d2:	e601      	b.n	80045d8 <HAL_I2C_EV_IRQHandler+0x514>
                 && ((Prev_State != I2C_STATE_MASTER_BUSY_RX) || (CurrentXferOptions == I2C_FIRST_FRAME)))
 80049d4:	2801      	cmp	r0, #1
 80049d6:	d18b      	bne.n	80048f0 <HAL_I2C_EV_IRQHandler+0x82c>
            CLEAR_BIT(hi2c->Instance->CR1, I2C_CR1_ACK);
 80049d8:	681a      	ldr	r2, [r3, #0]
 80049da:	f422 6280 	bic.w	r2, r2, #1024	; 0x400
 80049de:	601a      	str	r2, [r3, #0]
 80049e0:	e6c8      	b.n	8004774 <HAL_I2C_EV_IRQHandler+0x6b0>
        CLEAR_BIT(hi2c->Instance->CR1, I2C_CR1_ACK);
 80049e2:	6819      	ldr	r1, [r3, #0]
        *hi2c->pBuffPtr = (uint8_t)hi2c->Instance->DR;
 80049e4:	6a60      	ldr	r0, [r4, #36]	; 0x24
        CLEAR_BIT(hi2c->Instance->CR1, I2C_CR1_ACK);
 80049e6:	f421 6180 	bic.w	r1, r1, #1024	; 0x400
 80049ea:	6019      	str	r1, [r3, #0]
        __HAL_I2C_DISABLE_IT(hi2c, I2C_IT_EVT | I2C_IT_BUF | I2C_IT_ERR);
 80049ec:	6859      	ldr	r1, [r3, #4]
 80049ee:	f421 61e0 	bic.w	r1, r1, #1792	; 0x700
 80049f2:	6059      	str	r1, [r3, #4]
        *hi2c->pBuffPtr = (uint8_t)hi2c->Instance->DR;
 80049f4:	691b      	ldr	r3, [r3, #16]
 80049f6:	7003      	strb	r3, [r0, #0]
        hi2c->XferCount--;
 80049f8:	8d63      	ldrh	r3, [r4, #42]	; 0x2a
 80049fa:	3b01      	subs	r3, #1
        hi2c->State = HAL_I2C_STATE_READY;
 80049fc:	2120      	movs	r1, #32
        hi2c->XferCount--;
 80049fe:	b29b      	uxth	r3, r3
 8004a00:	8563      	strh	r3, [r4, #42]	; 0x2a
        hi2c->State = HAL_I2C_STATE_READY;
 8004a02:	f884 103d 	strb.w	r1, [r4, #61]	; 0x3d
        hi2c->pBuffPtr++;
 8004a06:	6a63      	ldr	r3, [r4, #36]	; 0x24
        if (hi2c->Mode == HAL_I2C_MODE_MEM)
 8004a08:	f894 103e 	ldrb.w	r1, [r4, #62]	; 0x3e
        hi2c->pBuffPtr++;
 8004a0c:	3301      	adds	r3, #1
        if (hi2c->Mode == HAL_I2C_MODE_MEM)
 8004a0e:	2940      	cmp	r1, #64	; 0x40
        hi2c->pBuffPtr++;
 8004a10:	6263      	str	r3, [r4, #36]	; 0x24
        if (hi2c->Mode == HAL_I2C_MODE_MEM)
 8004a12:	f47f aeee 	bne.w	80047f2 <HAL_I2C_EV_IRQHandler+0x72e>
          hi2c->Mode = HAL_I2C_MODE_NONE;
 8004a16:	f884 203e 	strb.w	r2, [r4, #62]	; 0x3e
          HAL_I2C_MemRxCpltCallback(hi2c);
 8004a1a:	4620      	mov	r0, r4
          hi2c->PreviousState = I2C_STATE_NONE;
 8004a1c:	6322      	str	r2, [r4, #48]	; 0x30
          HAL_I2C_MemRxCpltCallback(hi2c);
 8004a1e:	f7ff fa1b 	bl	8003e58 <HAL_I2C_MemRxCpltCallback>
 8004a22:	f7ff bb81 	b.w	8004128 <HAL_I2C_EV_IRQHandler+0x64>
 8004a26:	bf00      	nop
 8004a28:	00010014 	.word	0x00010014
 8004a2c:	80008081 	.word	0x80008081

08004a30 <HAL_I2C_ER_IRQHandler>:
{
 8004a30:	b530      	push	{r4, r5, lr}
  uint32_t sr1itflags = READ_REG(hi2c->Instance->SR1);
 8004a32:	6803      	ldr	r3, [r0, #0]
 8004a34:	695c      	ldr	r4, [r3, #20]
  uint32_t itsources  = READ_REG(hi2c->Instance->CR2);
 8004a36:	685a      	ldr	r2, [r3, #4]
  HAL_I2C_ModeTypeDef CurrentMode   = hi2c->Mode;
 8004a38:	f890 103e 	ldrb.w	r1, [r0, #62]	; 0x3e
  if ((I2C_CHECK_FLAG(sr1itflags, I2C_FLAG_BERR) != RESET) && (I2C_CHECK_IT_SOURCE(itsources, I2C_IT_ERR) != RESET))
 8004a3c:	05e5      	lsls	r5, r4, #23
{
 8004a3e:	b083      	sub	sp, #12
  HAL_I2C_ModeTypeDef CurrentMode   = hi2c->Mode;
 8004a40:	fa5f fc81 	uxtb.w	ip, r1
  if ((I2C_CHECK_FLAG(sr1itflags, I2C_FLAG_BERR) != RESET) && (I2C_CHECK_IT_SOURCE(itsources, I2C_IT_ERR) != RESET))
 8004a44:	d533      	bpl.n	8004aae <HAL_I2C_ER_IRQHandler+0x7e>
 8004a46:	05d1      	lsls	r1, r2, #23
 8004a48:	ea4f 2e12 	mov.w	lr, r2, lsr #8
 8004a4c:	d52f      	bpl.n	8004aae <HAL_I2C_ER_IRQHandler+0x7e>
    __HAL_I2C_CLEAR_FLAG(hi2c, I2C_FLAG_BERR);
 8004a4e:	f46f 7280 	mvn.w	r2, #256	; 0x100
 8004a52:	615a      	str	r2, [r3, #20]
  if ((I2C_CHECK_FLAG(sr1itflags, I2C_FLAG_ARLO) != RESET) && (I2C_CHECK_IT_SOURCE(itsources, I2C_IT_ERR) != RESET))
 8004a54:	05a2      	lsls	r2, r4, #22
 8004a56:	d43c      	bmi.n	8004ad2 <HAL_I2C_ER_IRQHandler+0xa2>
  if ((I2C_CHECK_FLAG(sr1itflags, I2C_FLAG_AF) != RESET) && (I2C_CHECK_IT_SOURCE(itsources, I2C_IT_ERR) != RESET))
 8004a58:	0562      	lsls	r2, r4, #21
 8004a5a:	d572      	bpl.n	8004b42 <HAL_I2C_ER_IRQHandler+0x112>
    error |= HAL_I2C_ERROR_BERR;
 8004a5c:	2101      	movs	r1, #1
    tmp2 = hi2c->XferCount;
 8004a5e:	8d42      	ldrh	r2, [r0, #42]	; 0x2a
    tmp3 = hi2c->State;
 8004a60:	f890 e03d 	ldrb.w	lr, [r0, #61]	; 0x3d
    tmp4 = hi2c->PreviousState;
 8004a64:	6b05      	ldr	r5, [r0, #48]	; 0x30
    if ((tmp1 == HAL_I2C_MODE_SLAVE) && (tmp2 == 0U) && \
 8004a66:	f1bc 0f20 	cmp.w	ip, #32
    tmp2 = hi2c->XferCount;
 8004a6a:	b292      	uxth	r2, r2
    tmp3 = hi2c->State;
 8004a6c:	fa5f fe8e 	uxtb.w	lr, lr
    if ((tmp1 == HAL_I2C_MODE_SLAVE) && (tmp2 == 0U) && \
 8004a70:	d03d      	beq.n	8004aee <HAL_I2C_ER_IRQHandler+0xbe>
      __HAL_I2C_CLEAR_FLAG(hi2c, I2C_FLAG_AF);
 8004a72:	f46f 6280 	mvn.w	r2, #1024	; 0x400
      if ((CurrentMode == HAL_I2C_MODE_MASTER) || (CurrentMode == HAL_I2C_MODE_MEM))
 8004a76:	f1bc 0f10 	cmp.w	ip, #16
      error |= HAL_I2C_ERROR_AF;
 8004a7a:	f041 0104 	orr.w	r1, r1, #4
      __HAL_I2C_CLEAR_FLAG(hi2c, I2C_FLAG_AF);
 8004a7e:	615a      	str	r2, [r3, #20]
      if ((CurrentMode == HAL_I2C_MODE_MASTER) || (CurrentMode == HAL_I2C_MODE_MEM))
 8004a80:	d002      	beq.n	8004a88 <HAL_I2C_ER_IRQHandler+0x58>
 8004a82:	f1bc 0f40 	cmp.w	ip, #64	; 0x40
 8004a86:	d103      	bne.n	8004a90 <HAL_I2C_ER_IRQHandler+0x60>
        SET_BIT(hi2c->Instance->CR1, I2C_CR1_STOP);
 8004a88:	681a      	ldr	r2, [r3, #0]
 8004a8a:	f442 7200 	orr.w	r2, r2, #512	; 0x200
 8004a8e:	601a      	str	r2, [r3, #0]
  if ((I2C_CHECK_FLAG(sr1itflags, I2C_FLAG_OVR) != RESET) && (I2C_CHECK_IT_SOURCE(itsources, I2C_IT_ERR) != RESET))
 8004a90:	0522      	lsls	r2, r4, #20
 8004a92:	d504      	bpl.n	8004a9e <HAL_I2C_ER_IRQHandler+0x6e>
    __HAL_I2C_CLEAR_FLAG(hi2c, I2C_FLAG_OVR);
 8004a94:	f46f 6200 	mvn.w	r2, #2048	; 0x800
    error |= HAL_I2C_ERROR_OVR;
 8004a98:	f041 0108 	orr.w	r1, r1, #8
    __HAL_I2C_CLEAR_FLAG(hi2c, I2C_FLAG_OVR);
 8004a9c:	615a      	str	r2, [r3, #20]
    hi2c->ErrorCode |= error;
 8004a9e:	6c03      	ldr	r3, [r0, #64]	; 0x40
 8004aa0:	4319      	orrs	r1, r3
 8004aa2:	6401      	str	r1, [r0, #64]	; 0x40
}
 8004aa4:	b003      	add	sp, #12
 8004aa6:	e8bd 4030 	ldmia.w	sp!, {r4, r5, lr}
    I2C_ITError(hi2c);
 8004aaa:	f7ff ba55 	b.w	8003f58 <I2C_ITError>
  if ((I2C_CHECK_FLAG(sr1itflags, I2C_FLAG_ARLO) != RESET) && (I2C_CHECK_IT_SOURCE(itsources, I2C_IT_ERR) != RESET))
 8004aae:	05a5      	lsls	r5, r4, #22
 8004ab0:	d503      	bpl.n	8004aba <HAL_I2C_ER_IRQHandler+0x8a>
 8004ab2:	05d1      	lsls	r1, r2, #23
 8004ab4:	ea4f 2e12 	mov.w	lr, r2, lsr #8
 8004ab8:	d417      	bmi.n	8004aea <HAL_I2C_ER_IRQHandler+0xba>
  if ((I2C_CHECK_FLAG(sr1itflags, I2C_FLAG_AF) != RESET) && (I2C_CHECK_IT_SOURCE(itsources, I2C_IT_ERR) != RESET))
 8004aba:	0565      	lsls	r5, r4, #21
 8004abc:	f3c4 2180 	ubfx	r1, r4, #10, #1
 8004ac0:	d403      	bmi.n	8004aca <HAL_I2C_ER_IRQHandler+0x9a>
  if ((I2C_CHECK_FLAG(sr1itflags, I2C_FLAG_OVR) != RESET) && (I2C_CHECK_IT_SOURCE(itsources, I2C_IT_ERR) != RESET))
 8004ac2:	0524      	lsls	r4, r4, #20
 8004ac4:	d434      	bmi.n	8004b30 <HAL_I2C_ER_IRQHandler+0x100>
}
 8004ac6:	b003      	add	sp, #12
 8004ac8:	bd30      	pop	{r4, r5, pc}
  if ((I2C_CHECK_FLAG(sr1itflags, I2C_FLAG_AF) != RESET) && (I2C_CHECK_IT_SOURCE(itsources, I2C_IT_ERR) != RESET))
 8004aca:	05d1      	lsls	r1, r2, #23
 8004acc:	d5fb      	bpl.n	8004ac6 <HAL_I2C_ER_IRQHandler+0x96>
 8004ace:	2100      	movs	r1, #0
 8004ad0:	e7c5      	b.n	8004a5e <HAL_I2C_ER_IRQHandler+0x2e>
  if ((I2C_CHECK_FLAG(sr1itflags, I2C_FLAG_ARLO) != RESET) && (I2C_CHECK_IT_SOURCE(itsources, I2C_IT_ERR) != RESET))
 8004ad2:	2103      	movs	r1, #3
    __HAL_I2C_CLEAR_FLAG(hi2c, I2C_FLAG_ARLO);
 8004ad4:	f46f 7200 	mvn.w	r2, #512	; 0x200
 8004ad8:	615a      	str	r2, [r3, #20]
  if ((I2C_CHECK_FLAG(sr1itflags, I2C_FLAG_AF) != RESET) && (I2C_CHECK_IT_SOURCE(itsources, I2C_IT_ERR) != RESET))
 8004ada:	0562      	lsls	r2, r4, #21
 8004adc:	d4bf      	bmi.n	8004a5e <HAL_I2C_ER_IRQHandler+0x2e>
  if ((I2C_CHECK_FLAG(sr1itflags, I2C_FLAG_OVR) != RESET) && (I2C_CHECK_IT_SOURCE(itsources, I2C_IT_ERR) != RESET))
 8004ade:	0524      	lsls	r4, r4, #20
 8004ae0:	d5dd      	bpl.n	8004a9e <HAL_I2C_ER_IRQHandler+0x6e>
 8004ae2:	f01e 0f01 	tst.w	lr, #1
 8004ae6:	d1d5      	bne.n	8004a94 <HAL_I2C_ER_IRQHandler+0x64>
 8004ae8:	e7d9      	b.n	8004a9e <HAL_I2C_ER_IRQHandler+0x6e>
 8004aea:	2102      	movs	r1, #2
 8004aec:	e7f2      	b.n	8004ad4 <HAL_I2C_ER_IRQHandler+0xa4>
    if ((tmp1 == HAL_I2C_MODE_SLAVE) && (tmp2 == 0U) && \
 8004aee:	b9ca      	cbnz	r2, 8004b24 <HAL_I2C_ER_IRQHandler+0xf4>
 8004af0:	f00e 02f7 	and.w	r2, lr, #247	; 0xf7
 8004af4:	2a21      	cmp	r2, #33	; 0x21
 8004af6:	d004      	beq.n	8004b02 <HAL_I2C_ER_IRQHandler+0xd2>
        ((tmp3 == HAL_I2C_STATE_BUSY_TX) || (tmp3 == HAL_I2C_STATE_BUSY_TX_LISTEN) || \
 8004af8:	f1be 0f28 	cmp.w	lr, #40	; 0x28
 8004afc:	d112      	bne.n	8004b24 <HAL_I2C_ER_IRQHandler+0xf4>
         ((tmp3 == HAL_I2C_STATE_LISTEN) && (tmp4 == I2C_STATE_SLAVE_BUSY_TX))))
 8004afe:	2d21      	cmp	r5, #33	; 0x21
 8004b00:	d110      	bne.n	8004b24 <HAL_I2C_ER_IRQHandler+0xf4>
  HAL_I2C_StateTypeDef CurrentState = hi2c->State;
 8004b02:	f890 203d 	ldrb.w	r2, [r0, #61]	; 0x3d
  uint32_t CurrentXferOptions       = hi2c->XferOptions;
 8004b06:	6ac5      	ldr	r5, [r0, #44]	; 0x2c
  if (((CurrentXferOptions ==  I2C_FIRST_AND_LAST_FRAME) || (CurrentXferOptions == I2C_LAST_FRAME)) && \
 8004b08:	2d08      	cmp	r5, #8
  HAL_I2C_StateTypeDef CurrentState = hi2c->State;
 8004b0a:	b2d2      	uxtb	r2, r2
  if (((CurrentXferOptions ==  I2C_FIRST_AND_LAST_FRAME) || (CurrentXferOptions == I2C_LAST_FRAME)) && \
 8004b0c:	d01e      	beq.n	8004b4c <HAL_I2C_ER_IRQHandler+0x11c>
 8004b0e:	2d20      	cmp	r5, #32
 8004b10:	d01c      	beq.n	8004b4c <HAL_I2C_ER_IRQHandler+0x11c>
  else if (CurrentState == HAL_I2C_STATE_BUSY_TX)
 8004b12:	2a21      	cmp	r2, #33	; 0x21
 8004b14:	d037      	beq.n	8004b86 <HAL_I2C_ER_IRQHandler+0x156>
    __HAL_I2C_CLEAR_FLAG(hi2c, I2C_FLAG_AF);
 8004b16:	f46f 6280 	mvn.w	r2, #1024	; 0x400
 8004b1a:	615a      	str	r2, [r3, #20]
  if ((I2C_CHECK_FLAG(sr1itflags, I2C_FLAG_OVR) != RESET) && (I2C_CHECK_IT_SOURCE(itsources, I2C_IT_ERR) != RESET))
 8004b1c:	0525      	lsls	r5, r4, #20
 8004b1e:	d50c      	bpl.n	8004b3a <HAL_I2C_ER_IRQHandler+0x10a>
    __HAL_I2C_CLEAR_FLAG(hi2c, I2C_FLAG_OVR);
 8004b20:	6803      	ldr	r3, [r0, #0]
 8004b22:	e7b7      	b.n	8004a94 <HAL_I2C_ER_IRQHandler+0x64>
      __HAL_I2C_CLEAR_FLAG(hi2c, I2C_FLAG_AF);
 8004b24:	f46f 6280 	mvn.w	r2, #1024	; 0x400
 8004b28:	615a      	str	r2, [r3, #20]
      error |= HAL_I2C_ERROR_AF;
 8004b2a:	f041 0104 	orr.w	r1, r1, #4
      if ((CurrentMode == HAL_I2C_MODE_MASTER) || (CurrentMode == HAL_I2C_MODE_MEM))
 8004b2e:	e7af      	b.n	8004a90 <HAL_I2C_ER_IRQHandler+0x60>
 8004b30:	ea4f 2e12 	mov.w	lr, r2, lsr #8
  if ((I2C_CHECK_FLAG(sr1itflags, I2C_FLAG_OVR) != RESET) && (I2C_CHECK_IT_SOURCE(itsources, I2C_IT_ERR) != RESET))
 8004b34:	f01e 0f01 	tst.w	lr, #1
 8004b38:	d1ac      	bne.n	8004a94 <HAL_I2C_ER_IRQHandler+0x64>
  if (error != HAL_I2C_ERROR_NONE)
 8004b3a:	2900      	cmp	r1, #0
 8004b3c:	d1af      	bne.n	8004a9e <HAL_I2C_ER_IRQHandler+0x6e>
}
 8004b3e:	b003      	add	sp, #12
 8004b40:	bd30      	pop	{r4, r5, pc}
  if ((I2C_CHECK_FLAG(sr1itflags, I2C_FLAG_OVR) != RESET) && (I2C_CHECK_IT_SOURCE(itsources, I2C_IT_ERR) != RESET))
 8004b42:	0525      	lsls	r5, r4, #20
    error |= HAL_I2C_ERROR_BERR;
 8004b44:	f04f 0101 	mov.w	r1, #1
  if ((I2C_CHECK_FLAG(sr1itflags, I2C_FLAG_OVR) != RESET) && (I2C_CHECK_IT_SOURCE(itsources, I2C_IT_ERR) != RESET))
 8004b48:	d4f4      	bmi.n	8004b34 <HAL_I2C_ER_IRQHandler+0x104>
 8004b4a:	e7a8      	b.n	8004a9e <HAL_I2C_ER_IRQHandler+0x6e>
  if (((CurrentXferOptions ==  I2C_FIRST_AND_LAST_FRAME) || (CurrentXferOptions == I2C_LAST_FRAME)) && \
 8004b4c:	2a28      	cmp	r2, #40	; 0x28
 8004b4e:	d1e0      	bne.n	8004b12 <HAL_I2C_ER_IRQHandler+0xe2>
    hi2c->XferOptions = I2C_NO_OPTION_FRAME;
 8004b50:	4a1a      	ldr	r2, [pc, #104]	; (8004bbc <HAL_I2C_ER_IRQHandler+0x18c>)
 8004b52:	62c2      	str	r2, [r0, #44]	; 0x2c
    __HAL_I2C_DISABLE_IT(hi2c, I2C_IT_EVT | I2C_IT_BUF | I2C_IT_ERR);
 8004b54:	685a      	ldr	r2, [r3, #4]
 8004b56:	9101      	str	r1, [sp, #4]
 8004b58:	f422 62e0 	bic.w	r2, r2, #1792	; 0x700
 8004b5c:	605a      	str	r2, [r3, #4]
    __HAL_I2C_CLEAR_FLAG(hi2c, I2C_FLAG_AF);
 8004b5e:	f46f 6280 	mvn.w	r2, #1024	; 0x400
 8004b62:	615a      	str	r2, [r3, #20]
    CLEAR_BIT(hi2c->Instance->CR1, I2C_CR1_ACK);
 8004b64:	681a      	ldr	r2, [r3, #0]
    hi2c->Mode          = HAL_I2C_MODE_NONE;
 8004b66:	9000      	str	r0, [sp, #0]
    CLEAR_BIT(hi2c->Instance->CR1, I2C_CR1_ACK);
 8004b68:	f422 6280 	bic.w	r2, r2, #1024	; 0x400
 8004b6c:	601a      	str	r2, [r3, #0]
    hi2c->PreviousState = I2C_STATE_NONE;
 8004b6e:	2300      	movs	r3, #0
    hi2c->State         = HAL_I2C_STATE_READY;
 8004b70:	2220      	movs	r2, #32
    hi2c->PreviousState = I2C_STATE_NONE;
 8004b72:	6303      	str	r3, [r0, #48]	; 0x30
    hi2c->State         = HAL_I2C_STATE_READY;
 8004b74:	f880 203d 	strb.w	r2, [r0, #61]	; 0x3d
    hi2c->Mode          = HAL_I2C_MODE_NONE;
 8004b78:	f880 303e 	strb.w	r3, [r0, #62]	; 0x3e
    HAL_I2C_ListenCpltCallback(hi2c);
 8004b7c:	f7ff f90a 	bl	8003d94 <HAL_I2C_ListenCpltCallback>
 8004b80:	e9dd 0100 	ldrd	r0, r1, [sp]
 8004b84:	e7ca      	b.n	8004b1c <HAL_I2C_ER_IRQHandler+0xec>
    hi2c->XferOptions   = I2C_NO_OPTION_FRAME;
 8004b86:	4d0d      	ldr	r5, [pc, #52]	; (8004bbc <HAL_I2C_ER_IRQHandler+0x18c>)
 8004b88:	62c5      	str	r5, [r0, #44]	; 0x2c
    hi2c->PreviousState = I2C_STATE_SLAVE_BUSY_TX;
 8004b8a:	6302      	str	r2, [r0, #48]	; 0x30
    hi2c->State         = HAL_I2C_STATE_READY;
 8004b8c:	2220      	movs	r2, #32
 8004b8e:	f880 203d 	strb.w	r2, [r0, #61]	; 0x3d
    hi2c->Mode          = HAL_I2C_MODE_NONE;
 8004b92:	2200      	movs	r2, #0
 8004b94:	f880 203e 	strb.w	r2, [r0, #62]	; 0x3e
    __HAL_I2C_DISABLE_IT(hi2c, I2C_IT_EVT | I2C_IT_BUF | I2C_IT_ERR);
 8004b98:	685a      	ldr	r2, [r3, #4]
 8004b9a:	9101      	str	r1, [sp, #4]
 8004b9c:	f422 62e0 	bic.w	r2, r2, #1792	; 0x700
 8004ba0:	605a      	str	r2, [r3, #4]
    __HAL_I2C_CLEAR_FLAG(hi2c, I2C_FLAG_AF);
 8004ba2:	f46f 6280 	mvn.w	r2, #1024	; 0x400
 8004ba6:	615a      	str	r2, [r3, #20]
    CLEAR_BIT(hi2c->Instance->CR1, I2C_CR1_ACK);
 8004ba8:	681a      	ldr	r2, [r3, #0]
    HAL_I2C_SlaveTxCpltCallback(hi2c);
 8004baa:	9000      	str	r0, [sp, #0]
    CLEAR_BIT(hi2c->Instance->CR1, I2C_CR1_ACK);
 8004bac:	f422 6280 	bic.w	r2, r2, #1024	; 0x400
 8004bb0:	601a      	str	r2, [r3, #0]
    HAL_I2C_SlaveTxCpltCallback(hi2c);
 8004bb2:	f7ff f8e9 	bl	8003d88 <HAL_I2C_SlaveTxCpltCallback>
 8004bb6:	e9dd 0100 	ldrd	r0, r1, [sp]
 8004bba:	e7af      	b.n	8004b1c <HAL_I2C_ER_IRQHandler+0xec>
 8004bbc:	ffff0000 	.word	0xffff0000

08004bc0 <HAL_RCC_OscConfig>:
__weak HAL_StatusTypeDef HAL_RCC_OscConfig(RCC_OscInitTypeDef  *RCC_OscInitStruct)
{
  uint32_t tickstart, pll_config;

  /* Check Null pointer */
  if(RCC_OscInitStruct == NULL)
 8004bc0:	2800      	cmp	r0, #0
 8004bc2:	f000 81a2 	beq.w	8004f0a <HAL_RCC_OscConfig+0x34a>
{
 8004bc6:	e92d 41f0 	stmdb	sp!, {r4, r5, r6, r7, r8, lr}
  }

  /* Check the parameters */
  assert_param(IS_RCC_OSCILLATORTYPE(RCC_OscInitStruct->OscillatorType));
  /*------------------------------- HSE Configuration ------------------------*/
  if(((RCC_OscInitStruct->OscillatorType) & RCC_OSCILLATORTYPE_HSE) == RCC_OSCILLATORTYPE_HSE)
 8004bca:	6803      	ldr	r3, [r0, #0]
 8004bcc:	07dd      	lsls	r5, r3, #31
{
 8004bce:	b082      	sub	sp, #8
 8004bd0:	4604      	mov	r4, r0
  if(((RCC_OscInitStruct->OscillatorType) & RCC_OSCILLATORTYPE_HSE) == RCC_OSCILLATORTYPE_HSE)
 8004bd2:	d52f      	bpl.n	8004c34 <HAL_RCC_OscConfig+0x74>
  {
    /* Check the parameters */
    assert_param(IS_RCC_HSE(RCC_OscInitStruct->HSEState));
    /* When the HSE is used as system clock or clock source for PLL in these cases HSE will not disabled */
    if((__HAL_RCC_GET_SYSCLK_SOURCE() == RCC_CFGR_SWS_HSE) ||\
 8004bd4:	499e      	ldr	r1, [pc, #632]	; (8004e50 <HAL_RCC_OscConfig+0x290>)
 8004bd6:	688a      	ldr	r2, [r1, #8]
 8004bd8:	f002 020c 	and.w	r2, r2, #12
 8004bdc:	2a04      	cmp	r2, #4
 8004bde:	f000 80ed 	beq.w	8004dbc <HAL_RCC_OscConfig+0x1fc>
      ((__HAL_RCC_GET_SYSCLK_SOURCE() == RCC_CFGR_SWS_PLL) && ((RCC->PLLCFGR & RCC_PLLCFGR_PLLSRC) == RCC_PLLCFGR_PLLSRC_HSE)))
 8004be2:	688a      	ldr	r2, [r1, #8]
 8004be4:	f002 020c 	and.w	r2, r2, #12
    if((__HAL_RCC_GET_SYSCLK_SOURCE() == RCC_CFGR_SWS_HSE) ||\
 8004be8:	2a08      	cmp	r2, #8
 8004bea:	f000 80e3 	beq.w	8004db4 <HAL_RCC_OscConfig+0x1f4>
      }
    }
    else
    {
      /* Set the new HSE configuration ---------------------------------------*/
      __HAL_RCC_HSE_CONFIG(RCC_OscInitStruct->HSEState);
 8004bee:	6863      	ldr	r3, [r4, #4]
 8004bf0:	f5b3 3f80 	cmp.w	r3, #65536	; 0x10000
 8004bf4:	f000 80ec 	beq.w	8004dd0 <HAL_RCC_OscConfig+0x210>
 8004bf8:	f5b3 2fa0 	cmp.w	r3, #327680	; 0x50000
 8004bfc:	f000 8175 	beq.w	8004eea <HAL_RCC_OscConfig+0x32a>
 8004c00:	4d93      	ldr	r5, [pc, #588]	; (8004e50 <HAL_RCC_OscConfig+0x290>)
 8004c02:	682a      	ldr	r2, [r5, #0]
 8004c04:	f422 3280 	bic.w	r2, r2, #65536	; 0x10000
 8004c08:	602a      	str	r2, [r5, #0]
 8004c0a:	682a      	ldr	r2, [r5, #0]
 8004c0c:	f422 2280 	bic.w	r2, r2, #262144	; 0x40000
 8004c10:	602a      	str	r2, [r5, #0]

      /* Check the HSE State */
      if((RCC_OscInitStruct->HSEState) != RCC_HSE_OFF)
 8004c12:	2b00      	cmp	r3, #0
 8004c14:	f040 80e1 	bne.w	8004dda <HAL_RCC_OscConfig+0x21a>
        }
      }
      else
      {
        /* Get Start Tick */
        tickstart = HAL_GetTick();
 8004c18:	f7fd ff7e 	bl	8002b18 <HAL_GetTick>
 8004c1c:	4606      	mov	r6, r0

        /* Wait till HSE is bypassed or disabled */
        while(__HAL_RCC_GET_FLAG(RCC_FLAG_HSERDY) != RESET)
 8004c1e:	e005      	b.n	8004c2c <HAL_RCC_OscConfig+0x6c>
        {
          if((HAL_GetTick() - tickstart ) > HSE_TIMEOUT_VALUE)
 8004c20:	f7fd ff7a 	bl	8002b18 <HAL_GetTick>
 8004c24:	1b80      	subs	r0, r0, r6
 8004c26:	2864      	cmp	r0, #100	; 0x64
 8004c28:	f200 8101 	bhi.w	8004e2e <HAL_RCC_OscConfig+0x26e>
        while(__HAL_RCC_GET_FLAG(RCC_FLAG_HSERDY) != RESET)
 8004c2c:	682b      	ldr	r3, [r5, #0]
 8004c2e:	039b      	lsls	r3, r3, #14
 8004c30:	d4f6      	bmi.n	8004c20 <HAL_RCC_OscConfig+0x60>
        }
      }
    }
  }
  /*----------------------------- HSI Configuration --------------------------*/
  if(((RCC_OscInitStruct->OscillatorType) & RCC_OSCILLATORTYPE_HSI) == RCC_OSCILLATORTYPE_HSI)
 8004c32:	6823      	ldr	r3, [r4, #0]
 8004c34:	079f      	lsls	r7, r3, #30
 8004c36:	d528      	bpl.n	8004c8a <HAL_RCC_OscConfig+0xca>
    /* Check the parameters */
    assert_param(IS_RCC_HSI(RCC_OscInitStruct->HSIState));
    assert_param(IS_RCC_CALIBRATION_VALUE(RCC_OscInitStruct->HSICalibrationValue));

    /* Check if HSI is used as system clock or as PLL source when PLL is selected as system clock */
    if((__HAL_RCC_GET_SYSCLK_SOURCE() == RCC_CFGR_SWS_HSI) ||\
 8004c38:	4a85      	ldr	r2, [pc, #532]	; (8004e50 <HAL_RCC_OscConfig+0x290>)
 8004c3a:	6891      	ldr	r1, [r2, #8]
 8004c3c:	f011 0f0c 	tst.w	r1, #12
 8004c40:	f000 8090 	beq.w	8004d64 <HAL_RCC_OscConfig+0x1a4>
      ((__HAL_RCC_GET_SYSCLK_SOURCE() == RCC_CFGR_SWS_PLL) && ((RCC->PLLCFGR & RCC_PLLCFGR_PLLSRC) == RCC_PLLCFGR_PLLSRC_HSI)))
 8004c44:	6891      	ldr	r1, [r2, #8]
 8004c46:	f001 010c 	and.w	r1, r1, #12
    if((__HAL_RCC_GET_SYSCLK_SOURCE() == RCC_CFGR_SWS_HSI) ||\
 8004c4a:	2908      	cmp	r1, #8
 8004c4c:	f000 8086 	beq.w	8004d5c <HAL_RCC_OscConfig+0x19c>
      }
    }
    else
    {
      /* Check the HSI State */
      if((RCC_OscInitStruct->HSIState)!= RCC_HSI_OFF)
 8004c50:	68e3      	ldr	r3, [r4, #12]
 8004c52:	2b00      	cmp	r3, #0
 8004c54:	f000 810e 	beq.w	8004e74 <HAL_RCC_OscConfig+0x2b4>
      {
        /* Enable the Internal High Speed oscillator (HSI). */
        __HAL_RCC_HSI_ENABLE();
 8004c58:	4b7e      	ldr	r3, [pc, #504]	; (8004e54 <HAL_RCC_OscConfig+0x294>)

        /* Get Start Tick*/
        tickstart = HAL_GetTick();

        /* Wait till HSI is ready */
        while(__HAL_RCC_GET_FLAG(RCC_FLAG_HSIRDY) == RESET)
 8004c5a:	4e7d      	ldr	r6, [pc, #500]	; (8004e50 <HAL_RCC_OscConfig+0x290>)
        __HAL_RCC_HSI_ENABLE();
 8004c5c:	2201      	movs	r2, #1
 8004c5e:	601a      	str	r2, [r3, #0]
        tickstart = HAL_GetTick();
 8004c60:	f7fd ff5a 	bl	8002b18 <HAL_GetTick>
 8004c64:	4605      	mov	r5, r0
        while(__HAL_RCC_GET_FLAG(RCC_FLAG_HSIRDY) == RESET)
 8004c66:	e005      	b.n	8004c74 <HAL_RCC_OscConfig+0xb4>
        {
          if((HAL_GetTick() - tickstart ) > HSI_TIMEOUT_VALUE)
 8004c68:	f7fd ff56 	bl	8002b18 <HAL_GetTick>
 8004c6c:	1b40      	subs	r0, r0, r5
 8004c6e:	2802      	cmp	r0, #2
 8004c70:	f200 80dd 	bhi.w	8004e2e <HAL_RCC_OscConfig+0x26e>
        while(__HAL_RCC_GET_FLAG(RCC_FLAG_HSIRDY) == RESET)
 8004c74:	6833      	ldr	r3, [r6, #0]
 8004c76:	0798      	lsls	r0, r3, #30
 8004c78:	d5f6      	bpl.n	8004c68 <HAL_RCC_OscConfig+0xa8>
            return HAL_TIMEOUT;
          }
        }

        /* Adjusts the Internal High Speed oscillator (HSI) calibration value. */
        __HAL_RCC_HSI_CALIBRATIONVALUE_ADJUST(RCC_OscInitStruct->HSICalibrationValue);
 8004c7a:	6833      	ldr	r3, [r6, #0]
 8004c7c:	6922      	ldr	r2, [r4, #16]
 8004c7e:	f023 03f8 	bic.w	r3, r3, #248	; 0xf8
 8004c82:	ea43 03c2 	orr.w	r3, r3, r2, lsl #3
 8004c86:	6033      	str	r3, [r6, #0]
        }
      }
    }
  }
  /*------------------------------ LSI Configuration -------------------------*/
  if(((RCC_OscInitStruct->OscillatorType) & RCC_OSCILLATORTYPE_LSI) == RCC_OSCILLATORTYPE_LSI)
 8004c88:	6823      	ldr	r3, [r4, #0]
 8004c8a:	071a      	lsls	r2, r3, #28
 8004c8c:	d451      	bmi.n	8004d32 <HAL_RCC_OscConfig+0x172>
        }
      }
    }
  }
  /*------------------------------ LSE Configuration -------------------------*/
  if(((RCC_OscInitStruct->OscillatorType) & RCC_OSCILLATORTYPE_LSE) == RCC_OSCILLATORTYPE_LSE)
 8004c8e:	0758      	lsls	r0, r3, #29
 8004c90:	d52f      	bpl.n	8004cf2 <HAL_RCC_OscConfig+0x132>
    /* Check the parameters */
    assert_param(IS_RCC_LSE(RCC_OscInitStruct->LSEState));

    /* Update LSE configuration in Backup Domain control register    */
    /* Requires to enable write access to Backup Domain of necessary */
    if(__HAL_RCC_PWR_IS_CLK_DISABLED())
 8004c92:	4a6f      	ldr	r2, [pc, #444]	; (8004e50 <HAL_RCC_OscConfig+0x290>)
 8004c94:	6c13      	ldr	r3, [r2, #64]	; 0x40
 8004c96:	f013 5380 	ands.w	r3, r3, #268435456	; 0x10000000
 8004c9a:	d07f      	beq.n	8004d9c <HAL_RCC_OscConfig+0x1dc>
    FlagStatus       pwrclkchanged = RESET;
 8004c9c:	2500      	movs	r5, #0
    {
      __HAL_RCC_PWR_CLK_ENABLE();
      pwrclkchanged = SET;
    }

    if(HAL_IS_BIT_CLR(PWR->CR, PWR_CR_DBP))
 8004c9e:	4e6e      	ldr	r6, [pc, #440]	; (8004e58 <HAL_RCC_OscConfig+0x298>)
 8004ca0:	6833      	ldr	r3, [r6, #0]
 8004ca2:	05d9      	lsls	r1, r3, #23
 8004ca4:	f140 80b3 	bpl.w	8004e0e <HAL_RCC_OscConfig+0x24e>
        }
      }
    }

    /* Set the new LSE configuration -----------------------------------------*/
    __HAL_RCC_LSE_CONFIG(RCC_OscInitStruct->LSEState);
 8004ca8:	68a3      	ldr	r3, [r4, #8]
 8004caa:	2b01      	cmp	r3, #1
 8004cac:	f000 80c3 	beq.w	8004e36 <HAL_RCC_OscConfig+0x276>
 8004cb0:	2b05      	cmp	r3, #5
 8004cb2:	f000 812c 	beq.w	8004f0e <HAL_RCC_OscConfig+0x34e>
 8004cb6:	4e66      	ldr	r6, [pc, #408]	; (8004e50 <HAL_RCC_OscConfig+0x290>)
 8004cb8:	6f32      	ldr	r2, [r6, #112]	; 0x70
 8004cba:	f022 0201 	bic.w	r2, r2, #1
 8004cbe:	6732      	str	r2, [r6, #112]	; 0x70
 8004cc0:	6f32      	ldr	r2, [r6, #112]	; 0x70
 8004cc2:	f022 0204 	bic.w	r2, r2, #4
 8004cc6:	6732      	str	r2, [r6, #112]	; 0x70
    /* Check the LSE State */
    if((RCC_OscInitStruct->LSEState) != RCC_LSE_OFF)
 8004cc8:	2b00      	cmp	r3, #0
 8004cca:	f040 80b9 	bne.w	8004e40 <HAL_RCC_OscConfig+0x280>
      }
    }
    else
    {
      /* Get Start Tick */
      tickstart = HAL_GetTick();
 8004cce:	f7fd ff23 	bl	8002b18 <HAL_GetTick>

      /* Wait till LSE is ready */
      while(__HAL_RCC_GET_FLAG(RCC_FLAG_LSERDY) != RESET)
      {
        if((HAL_GetTick() - tickstart ) > RCC_LSE_TIMEOUT_VALUE)
 8004cd2:	f241 3888 	movw	r8, #5000	; 0x1388
      tickstart = HAL_GetTick();
 8004cd6:	4607      	mov	r7, r0
      while(__HAL_RCC_GET_FLAG(RCC_FLAG_LSERDY) != RESET)
 8004cd8:	e005      	b.n	8004ce6 <HAL_RCC_OscConfig+0x126>
        if((HAL_GetTick() - tickstart ) > RCC_LSE_TIMEOUT_VALUE)
 8004cda:	f7fd ff1d 	bl	8002b18 <HAL_GetTick>
 8004cde:	1bc0      	subs	r0, r0, r7
 8004ce0:	4540      	cmp	r0, r8
 8004ce2:	f200 80a4 	bhi.w	8004e2e <HAL_RCC_OscConfig+0x26e>
      while(__HAL_RCC_GET_FLAG(RCC_FLAG_LSERDY) != RESET)
 8004ce6:	6f33      	ldr	r3, [r6, #112]	; 0x70
 8004ce8:	0798      	lsls	r0, r3, #30
 8004cea:	d4f6      	bmi.n	8004cda <HAL_RCC_OscConfig+0x11a>
        }
      }
    }

    /* Restore clock configuration if changed */
    if(pwrclkchanged == SET)
 8004cec:	2d00      	cmp	r5, #0
 8004cee:	f040 8106 	bne.w	8004efe <HAL_RCC_OscConfig+0x33e>
    }
  }
  /*-------------------------------- PLL Configuration -----------------------*/
  /* Check the parameters */
  assert_param(IS_RCC_PLL(RCC_OscInitStruct->PLL.PLLState));
  if ((RCC_OscInitStruct->PLL.PLLState) != RCC_PLL_NONE)
 8004cf2:	69a0      	ldr	r0, [r4, #24]
 8004cf4:	b1c8      	cbz	r0, 8004d2a <HAL_RCC_OscConfig+0x16a>
  {
    /* Check if the PLL is used as system clock or not */
    if(__HAL_RCC_GET_SYSCLK_SOURCE() != RCC_CFGR_SWS_PLL)
 8004cf6:	4d56      	ldr	r5, [pc, #344]	; (8004e50 <HAL_RCC_OscConfig+0x290>)
 8004cf8:	68ab      	ldr	r3, [r5, #8]
 8004cfa:	f003 030c 	and.w	r3, r3, #12
 8004cfe:	2b08      	cmp	r3, #8
 8004d00:	f000 80c9 	beq.w	8004e96 <HAL_RCC_OscConfig+0x2d6>
        assert_param(IS_RCC_PLLN_VALUE(RCC_OscInitStruct->PLL.PLLN));
        assert_param(IS_RCC_PLLP_VALUE(RCC_OscInitStruct->PLL.PLLP));
        assert_param(IS_RCC_PLLQ_VALUE(RCC_OscInitStruct->PLL.PLLQ));

        /* Disable the main PLL. */
        __HAL_RCC_PLL_DISABLE();
 8004d04:	4b53      	ldr	r3, [pc, #332]	; (8004e54 <HAL_RCC_OscConfig+0x294>)
 8004d06:	2200      	movs	r2, #0
      if((RCC_OscInitStruct->PLL.PLLState) == RCC_PLL_ON)
 8004d08:	2802      	cmp	r0, #2
        __HAL_RCC_PLL_DISABLE();
 8004d0a:	661a      	str	r2, [r3, #96]	; 0x60
      if((RCC_OscInitStruct->PLL.PLLState) == RCC_PLL_ON)
 8004d0c:	f000 8109 	beq.w	8004f22 <HAL_RCC_OscConfig+0x362>
      {
        /* Disable the main PLL. */
        __HAL_RCC_PLL_DISABLE();

        /* Get Start Tick */
        tickstart = HAL_GetTick();
 8004d10:	f7fd ff02 	bl	8002b18 <HAL_GetTick>
 8004d14:	4604      	mov	r4, r0

        /* Wait till PLL is ready */
        while(__HAL_RCC_GET_FLAG(RCC_FLAG_PLLRDY) != RESET)
 8004d16:	e005      	b.n	8004d24 <HAL_RCC_OscConfig+0x164>
        {
          if((HAL_GetTick() - tickstart ) > PLL_TIMEOUT_VALUE)
 8004d18:	f7fd fefe 	bl	8002b18 <HAL_GetTick>
 8004d1c:	1b00      	subs	r0, r0, r4
 8004d1e:	2802      	cmp	r0, #2
 8004d20:	f200 8085 	bhi.w	8004e2e <HAL_RCC_OscConfig+0x26e>
        while(__HAL_RCC_GET_FLAG(RCC_FLAG_PLLRDY) != RESET)
 8004d24:	682b      	ldr	r3, [r5, #0]
 8004d26:	019b      	lsls	r3, r3, #6
 8004d28:	d4f6      	bmi.n	8004d18 <HAL_RCC_OscConfig+0x158>
          return HAL_ERROR;
        }
      }
    }
  }
  return HAL_OK;
 8004d2a:	2000      	movs	r0, #0
}
 8004d2c:	b002      	add	sp, #8
 8004d2e:	e8bd 81f0 	ldmia.w	sp!, {r4, r5, r6, r7, r8, pc}
    if((RCC_OscInitStruct->LSIState)!= RCC_LSI_OFF)
 8004d32:	6963      	ldr	r3, [r4, #20]
 8004d34:	b30b      	cbz	r3, 8004d7a <HAL_RCC_OscConfig+0x1ba>
      __HAL_RCC_LSI_ENABLE();
 8004d36:	4b47      	ldr	r3, [pc, #284]	; (8004e54 <HAL_RCC_OscConfig+0x294>)
      while(__HAL_RCC_GET_FLAG(RCC_FLAG_LSIRDY) == RESET)
 8004d38:	4e45      	ldr	r6, [pc, #276]	; (8004e50 <HAL_RCC_OscConfig+0x290>)
      __HAL_RCC_LSI_ENABLE();
 8004d3a:	2201      	movs	r2, #1
 8004d3c:	f8c3 2e80 	str.w	r2, [r3, #3712]	; 0xe80
      tickstart = HAL_GetTick();
 8004d40:	f7fd feea 	bl	8002b18 <HAL_GetTick>
 8004d44:	4605      	mov	r5, r0
      while(__HAL_RCC_GET_FLAG(RCC_FLAG_LSIRDY) == RESET)
 8004d46:	e004      	b.n	8004d52 <HAL_RCC_OscConfig+0x192>
        if((HAL_GetTick() - tickstart ) > LSI_TIMEOUT_VALUE)
 8004d48:	f7fd fee6 	bl	8002b18 <HAL_GetTick>
 8004d4c:	1b40      	subs	r0, r0, r5
 8004d4e:	2802      	cmp	r0, #2
 8004d50:	d86d      	bhi.n	8004e2e <HAL_RCC_OscConfig+0x26e>
      while(__HAL_RCC_GET_FLAG(RCC_FLAG_LSIRDY) == RESET)
 8004d52:	6f73      	ldr	r3, [r6, #116]	; 0x74
 8004d54:	079b      	lsls	r3, r3, #30
 8004d56:	d5f7      	bpl.n	8004d48 <HAL_RCC_OscConfig+0x188>
  if(((RCC_OscInitStruct->OscillatorType) & RCC_OSCILLATORTYPE_LSE) == RCC_OSCILLATORTYPE_LSE)
 8004d58:	6823      	ldr	r3, [r4, #0]
 8004d5a:	e798      	b.n	8004c8e <HAL_RCC_OscConfig+0xce>
      ((__HAL_RCC_GET_SYSCLK_SOURCE() == RCC_CFGR_SWS_PLL) && ((RCC->PLLCFGR & RCC_PLLCFGR_PLLSRC) == RCC_PLLCFGR_PLLSRC_HSI)))
 8004d5c:	6852      	ldr	r2, [r2, #4]
 8004d5e:	0256      	lsls	r6, r2, #9
 8004d60:	f53f af76 	bmi.w	8004c50 <HAL_RCC_OscConfig+0x90>
      if((__HAL_RCC_GET_FLAG(RCC_FLAG_HSIRDY) != RESET) && (RCC_OscInitStruct->HSIState != RCC_HSI_ON))
 8004d64:	4a3a      	ldr	r2, [pc, #232]	; (8004e50 <HAL_RCC_OscConfig+0x290>)
 8004d66:	6812      	ldr	r2, [r2, #0]
 8004d68:	0795      	lsls	r5, r2, #30
 8004d6a:	d544      	bpl.n	8004df6 <HAL_RCC_OscConfig+0x236>
 8004d6c:	68e2      	ldr	r2, [r4, #12]
 8004d6e:	2a01      	cmp	r2, #1
 8004d70:	d041      	beq.n	8004df6 <HAL_RCC_OscConfig+0x236>
        return HAL_ERROR;
 8004d72:	2001      	movs	r0, #1
}
 8004d74:	b002      	add	sp, #8
 8004d76:	e8bd 81f0 	ldmia.w	sp!, {r4, r5, r6, r7, r8, pc}
      __HAL_RCC_LSI_DISABLE();
 8004d7a:	4a36      	ldr	r2, [pc, #216]	; (8004e54 <HAL_RCC_OscConfig+0x294>)
      while(__HAL_RCC_GET_FLAG(RCC_FLAG_LSIRDY) != RESET)
 8004d7c:	4e34      	ldr	r6, [pc, #208]	; (8004e50 <HAL_RCC_OscConfig+0x290>)
      __HAL_RCC_LSI_DISABLE();
 8004d7e:	f8c2 3e80 	str.w	r3, [r2, #3712]	; 0xe80
      tickstart = HAL_GetTick();
 8004d82:	f7fd fec9 	bl	8002b18 <HAL_GetTick>
 8004d86:	4605      	mov	r5, r0
      while(__HAL_RCC_GET_FLAG(RCC_FLAG_LSIRDY) != RESET)
 8004d88:	e004      	b.n	8004d94 <HAL_RCC_OscConfig+0x1d4>
        if((HAL_GetTick() - tickstart ) > LSI_TIMEOUT_VALUE)
 8004d8a:	f7fd fec5 	bl	8002b18 <HAL_GetTick>
 8004d8e:	1b40      	subs	r0, r0, r5
 8004d90:	2802      	cmp	r0, #2
 8004d92:	d84c      	bhi.n	8004e2e <HAL_RCC_OscConfig+0x26e>
      while(__HAL_RCC_GET_FLAG(RCC_FLAG_LSIRDY) != RESET)
 8004d94:	6f73      	ldr	r3, [r6, #116]	; 0x74
 8004d96:	079f      	lsls	r7, r3, #30
 8004d98:	d4f7      	bmi.n	8004d8a <HAL_RCC_OscConfig+0x1ca>
 8004d9a:	e7dd      	b.n	8004d58 <HAL_RCC_OscConfig+0x198>
      __HAL_RCC_PWR_CLK_ENABLE();
 8004d9c:	9301      	str	r3, [sp, #4]
 8004d9e:	6c13      	ldr	r3, [r2, #64]	; 0x40
 8004da0:	f043 5380 	orr.w	r3, r3, #268435456	; 0x10000000
 8004da4:	6413      	str	r3, [r2, #64]	; 0x40
 8004da6:	6c13      	ldr	r3, [r2, #64]	; 0x40
 8004da8:	f003 5380 	and.w	r3, r3, #268435456	; 0x10000000
 8004dac:	9301      	str	r3, [sp, #4]
 8004dae:	9b01      	ldr	r3, [sp, #4]
      pwrclkchanged = SET;
 8004db0:	2501      	movs	r5, #1
 8004db2:	e774      	b.n	8004c9e <HAL_RCC_OscConfig+0xde>
      ((__HAL_RCC_GET_SYSCLK_SOURCE() == RCC_CFGR_SWS_PLL) && ((RCC->PLLCFGR & RCC_PLLCFGR_PLLSRC) == RCC_PLLCFGR_PLLSRC_HSE)))
 8004db4:	684a      	ldr	r2, [r1, #4]
 8004db6:	0250      	lsls	r0, r2, #9
 8004db8:	f57f af19 	bpl.w	8004bee <HAL_RCC_OscConfig+0x2e>
      if((__HAL_RCC_GET_FLAG(RCC_FLAG_HSERDY) != RESET) && (RCC_OscInitStruct->HSEState == RCC_HSE_OFF))
 8004dbc:	4a24      	ldr	r2, [pc, #144]	; (8004e50 <HAL_RCC_OscConfig+0x290>)
 8004dbe:	6812      	ldr	r2, [r2, #0]
 8004dc0:	0391      	lsls	r1, r2, #14
 8004dc2:	f57f af37 	bpl.w	8004c34 <HAL_RCC_OscConfig+0x74>
 8004dc6:	6862      	ldr	r2, [r4, #4]
 8004dc8:	2a00      	cmp	r2, #0
 8004dca:	f47f af33 	bne.w	8004c34 <HAL_RCC_OscConfig+0x74>
 8004dce:	e7d0      	b.n	8004d72 <HAL_RCC_OscConfig+0x1b2>
      __HAL_RCC_HSE_CONFIG(RCC_OscInitStruct->HSEState);
 8004dd0:	4a1f      	ldr	r2, [pc, #124]	; (8004e50 <HAL_RCC_OscConfig+0x290>)
 8004dd2:	6813      	ldr	r3, [r2, #0]
 8004dd4:	f443 3380 	orr.w	r3, r3, #65536	; 0x10000
 8004dd8:	6013      	str	r3, [r2, #0]
        tickstart = HAL_GetTick();
 8004dda:	f7fd fe9d 	bl	8002b18 <HAL_GetTick>
        while(__HAL_RCC_GET_FLAG(RCC_FLAG_HSERDY) == RESET)
 8004dde:	4e1c      	ldr	r6, [pc, #112]	; (8004e50 <HAL_RCC_OscConfig+0x290>)
        tickstart = HAL_GetTick();
 8004de0:	4605      	mov	r5, r0
        while(__HAL_RCC_GET_FLAG(RCC_FLAG_HSERDY) == RESET)
 8004de2:	e004      	b.n	8004dee <HAL_RCC_OscConfig+0x22e>
          if((HAL_GetTick() - tickstart ) > HSE_TIMEOUT_VALUE)
 8004de4:	f7fd fe98 	bl	8002b18 <HAL_GetTick>
 8004de8:	1b40      	subs	r0, r0, r5
 8004dea:	2864      	cmp	r0, #100	; 0x64
 8004dec:	d81f      	bhi.n	8004e2e <HAL_RCC_OscConfig+0x26e>
        while(__HAL_RCC_GET_FLAG(RCC_FLAG_HSERDY) == RESET)
 8004dee:	6833      	ldr	r3, [r6, #0]
 8004df0:	039a      	lsls	r2, r3, #14
 8004df2:	d5f7      	bpl.n	8004de4 <HAL_RCC_OscConfig+0x224>
 8004df4:	e71d      	b.n	8004c32 <HAL_RCC_OscConfig+0x72>
        __HAL_RCC_HSI_CALIBRATIONVALUE_ADJUST(RCC_OscInitStruct->HSICalibrationValue);
 8004df6:	4916      	ldr	r1, [pc, #88]	; (8004e50 <HAL_RCC_OscConfig+0x290>)
 8004df8:	6920      	ldr	r0, [r4, #16]
 8004dfa:	680a      	ldr	r2, [r1, #0]
 8004dfc:	f022 02f8 	bic.w	r2, r2, #248	; 0xf8
 8004e00:	ea42 02c0 	orr.w	r2, r2, r0, lsl #3
 8004e04:	600a      	str	r2, [r1, #0]
  if(((RCC_OscInitStruct->OscillatorType) & RCC_OSCILLATORTYPE_LSI) == RCC_OSCILLATORTYPE_LSI)
 8004e06:	071a      	lsls	r2, r3, #28
 8004e08:	f57f af41 	bpl.w	8004c8e <HAL_RCC_OscConfig+0xce>
 8004e0c:	e791      	b.n	8004d32 <HAL_RCC_OscConfig+0x172>
      SET_BIT(PWR->CR, PWR_CR_DBP);
 8004e0e:	6833      	ldr	r3, [r6, #0]
 8004e10:	f443 7380 	orr.w	r3, r3, #256	; 0x100
 8004e14:	6033      	str	r3, [r6, #0]
      tickstart = HAL_GetTick();
 8004e16:	f7fd fe7f 	bl	8002b18 <HAL_GetTick>
 8004e1a:	4607      	mov	r7, r0
      while(HAL_IS_BIT_CLR(PWR->CR, PWR_CR_DBP))
 8004e1c:	6833      	ldr	r3, [r6, #0]
 8004e1e:	05da      	lsls	r2, r3, #23
 8004e20:	f53f af42 	bmi.w	8004ca8 <HAL_RCC_OscConfig+0xe8>
        if((HAL_GetTick() - tickstart) > RCC_DBP_TIMEOUT_VALUE)
 8004e24:	f7fd fe78 	bl	8002b18 <HAL_GetTick>
 8004e28:	1bc0      	subs	r0, r0, r7
 8004e2a:	2802      	cmp	r0, #2
 8004e2c:	d9f6      	bls.n	8004e1c <HAL_RCC_OscConfig+0x25c>
            return HAL_TIMEOUT;
 8004e2e:	2003      	movs	r0, #3
}
 8004e30:	b002      	add	sp, #8
 8004e32:	e8bd 81f0 	ldmia.w	sp!, {r4, r5, r6, r7, r8, pc}
    __HAL_RCC_LSE_CONFIG(RCC_OscInitStruct->LSEState);
 8004e36:	4a06      	ldr	r2, [pc, #24]	; (8004e50 <HAL_RCC_OscConfig+0x290>)
 8004e38:	6f13      	ldr	r3, [r2, #112]	; 0x70
 8004e3a:	f043 0301 	orr.w	r3, r3, #1
 8004e3e:	6713      	str	r3, [r2, #112]	; 0x70
      tickstart = HAL_GetTick();
 8004e40:	f7fd fe6a 	bl	8002b18 <HAL_GetTick>
      while(__HAL_RCC_GET_FLAG(RCC_FLAG_LSERDY) == RESET)
 8004e44:	4f02      	ldr	r7, [pc, #8]	; (8004e50 <HAL_RCC_OscConfig+0x290>)
      tickstart = HAL_GetTick();
 8004e46:	4606      	mov	r6, r0
        if((HAL_GetTick() - tickstart ) > RCC_LSE_TIMEOUT_VALUE)
 8004e48:	f241 3888 	movw	r8, #5000	; 0x1388
      while(__HAL_RCC_GET_FLAG(RCC_FLAG_LSERDY) == RESET)
 8004e4c:	e00b      	b.n	8004e66 <HAL_RCC_OscConfig+0x2a6>
 8004e4e:	bf00      	nop
 8004e50:	40023800 	.word	0x40023800
 8004e54:	42470000 	.word	0x42470000
 8004e58:	40007000 	.word	0x40007000
        if((HAL_GetTick() - tickstart ) > RCC_LSE_TIMEOUT_VALUE)
 8004e5c:	f7fd fe5c 	bl	8002b18 <HAL_GetTick>
 8004e60:	1b80      	subs	r0, r0, r6
 8004e62:	4540      	cmp	r0, r8
 8004e64:	d8e3      	bhi.n	8004e2e <HAL_RCC_OscConfig+0x26e>
      while(__HAL_RCC_GET_FLAG(RCC_FLAG_LSERDY) == RESET)
 8004e66:	6f3b      	ldr	r3, [r7, #112]	; 0x70
 8004e68:	079b      	lsls	r3, r3, #30
 8004e6a:	d5f7      	bpl.n	8004e5c <HAL_RCC_OscConfig+0x29c>
    if(pwrclkchanged == SET)
 8004e6c:	2d00      	cmp	r5, #0
 8004e6e:	f43f af40 	beq.w	8004cf2 <HAL_RCC_OscConfig+0x132>
 8004e72:	e044      	b.n	8004efe <HAL_RCC_OscConfig+0x33e>
        __HAL_RCC_HSI_DISABLE();
 8004e74:	4a42      	ldr	r2, [pc, #264]	; (8004f80 <HAL_RCC_OscConfig+0x3c0>)
        while(__HAL_RCC_GET_FLAG(RCC_FLAG_HSIRDY) != RESET)
 8004e76:	4e43      	ldr	r6, [pc, #268]	; (8004f84 <HAL_RCC_OscConfig+0x3c4>)
        __HAL_RCC_HSI_DISABLE();
 8004e78:	6013      	str	r3, [r2, #0]
        tickstart = HAL_GetTick();
 8004e7a:	f7fd fe4d 	bl	8002b18 <HAL_GetTick>
 8004e7e:	4605      	mov	r5, r0
        while(__HAL_RCC_GET_FLAG(RCC_FLAG_HSIRDY) != RESET)
 8004e80:	e004      	b.n	8004e8c <HAL_RCC_OscConfig+0x2cc>
          if((HAL_GetTick() - tickstart ) > HSI_TIMEOUT_VALUE)
 8004e82:	f7fd fe49 	bl	8002b18 <HAL_GetTick>
 8004e86:	1b40      	subs	r0, r0, r5
 8004e88:	2802      	cmp	r0, #2
 8004e8a:	d8d0      	bhi.n	8004e2e <HAL_RCC_OscConfig+0x26e>
        while(__HAL_RCC_GET_FLAG(RCC_FLAG_HSIRDY) != RESET)
 8004e8c:	6833      	ldr	r3, [r6, #0]
 8004e8e:	0799      	lsls	r1, r3, #30
 8004e90:	d4f7      	bmi.n	8004e82 <HAL_RCC_OscConfig+0x2c2>
  if(((RCC_OscInitStruct->OscillatorType) & RCC_OSCILLATORTYPE_LSI) == RCC_OSCILLATORTYPE_LSI)
 8004e92:	6823      	ldr	r3, [r4, #0]
 8004e94:	e6f9      	b.n	8004c8a <HAL_RCC_OscConfig+0xca>
      if((RCC_OscInitStruct->PLL.PLLState) == RCC_PLL_OFF)
 8004e96:	2801      	cmp	r0, #1
 8004e98:	f43f af48 	beq.w	8004d2c <HAL_RCC_OscConfig+0x16c>
        pll_config = RCC->PLLCFGR;
 8004e9c:	686b      	ldr	r3, [r5, #4]
        if (((RCC_OscInitStruct->PLL.PLLState) == RCC_PLL_OFF) ||
 8004e9e:	69e2      	ldr	r2, [r4, #28]
            (READ_BIT(pll_config, RCC_PLLCFGR_PLLSRC) != RCC_OscInitStruct->PLL.PLLSource) ||
 8004ea0:	f403 0180 	and.w	r1, r3, #4194304	; 0x400000
        if (((RCC_OscInitStruct->PLL.PLLState) == RCC_PLL_OFF) ||
 8004ea4:	4291      	cmp	r1, r2
 8004ea6:	f47f af64 	bne.w	8004d72 <HAL_RCC_OscConfig+0x1b2>
            (READ_BIT(pll_config, RCC_PLLCFGR_PLLSRC) != RCC_OscInitStruct->PLL.PLLSource) ||
 8004eaa:	6a22      	ldr	r2, [r4, #32]
            (READ_BIT(pll_config, RCC_PLLCFGR_PLLM) != (RCC_OscInitStruct->PLL.PLLM) << RCC_PLLCFGR_PLLM_Pos) ||
 8004eac:	f003 013f 	and.w	r1, r3, #63	; 0x3f
            (READ_BIT(pll_config, RCC_PLLCFGR_PLLSRC) != RCC_OscInitStruct->PLL.PLLSource) ||
 8004eb0:	4291      	cmp	r1, r2
 8004eb2:	f47f af5e 	bne.w	8004d72 <HAL_RCC_OscConfig+0x1b2>
            (READ_BIT(pll_config, RCC_PLLCFGR_PLLN) != (RCC_OscInitStruct->PLL.PLLN) << RCC_PLLCFGR_PLLN_Pos) ||
 8004eb6:	6a61      	ldr	r1, [r4, #36]	; 0x24
 8004eb8:	f647 72c0 	movw	r2, #32704	; 0x7fc0
 8004ebc:	401a      	ands	r2, r3
            (READ_BIT(pll_config, RCC_PLLCFGR_PLLM) != (RCC_OscInitStruct->PLL.PLLM) << RCC_PLLCFGR_PLLM_Pos) ||
 8004ebe:	ebb2 1f81 	cmp.w	r2, r1, lsl #6
 8004ec2:	f47f af56 	bne.w	8004d72 <HAL_RCC_OscConfig+0x1b2>
            (READ_BIT(pll_config, RCC_PLLCFGR_PLLP) != (((RCC_OscInitStruct->PLL.PLLP >> 1U) - 1U)) << RCC_PLLCFGR_PLLP_Pos) ||
 8004ec6:	6aa2      	ldr	r2, [r4, #40]	; 0x28
 8004ec8:	0852      	lsrs	r2, r2, #1
 8004eca:	f403 3140 	and.w	r1, r3, #196608	; 0x30000
 8004ece:	3a01      	subs	r2, #1
            (READ_BIT(pll_config, RCC_PLLCFGR_PLLN) != (RCC_OscInitStruct->PLL.PLLN) << RCC_PLLCFGR_PLLN_Pos) ||
 8004ed0:	ebb1 4f02 	cmp.w	r1, r2, lsl #16
 8004ed4:	f47f af4d 	bne.w	8004d72 <HAL_RCC_OscConfig+0x1b2>
            (READ_BIT(pll_config, RCC_PLLCFGR_PLLQ) != (RCC_OscInitStruct->PLL.PLLQ << RCC_PLLCFGR_PLLQ_Pos)))
 8004ed8:	6ae2      	ldr	r2, [r4, #44]	; 0x2c
 8004eda:	f003 6370 	and.w	r3, r3, #251658240	; 0xf000000
            (READ_BIT(pll_config, RCC_PLLCFGR_PLLP) != (((RCC_OscInitStruct->PLL.PLLP >> 1U) - 1U)) << RCC_PLLCFGR_PLLP_Pos) ||
 8004ede:	ebb3 6f02 	cmp.w	r3, r2, lsl #24
            return HAL_TIMEOUT;
 8004ee2:	bf14      	ite	ne
 8004ee4:	2001      	movne	r0, #1
 8004ee6:	2000      	moveq	r0, #0
 8004ee8:	e720      	b.n	8004d2c <HAL_RCC_OscConfig+0x16c>
      __HAL_RCC_HSE_CONFIG(RCC_OscInitStruct->HSEState);
 8004eea:	4b26      	ldr	r3, [pc, #152]	; (8004f84 <HAL_RCC_OscConfig+0x3c4>)
 8004eec:	681a      	ldr	r2, [r3, #0]
 8004eee:	f442 2280 	orr.w	r2, r2, #262144	; 0x40000
 8004ef2:	601a      	str	r2, [r3, #0]
 8004ef4:	681a      	ldr	r2, [r3, #0]
 8004ef6:	f442 3280 	orr.w	r2, r2, #65536	; 0x10000
 8004efa:	601a      	str	r2, [r3, #0]
      if((RCC_OscInitStruct->HSEState) != RCC_HSE_OFF)
 8004efc:	e76d      	b.n	8004dda <HAL_RCC_OscConfig+0x21a>
      __HAL_RCC_PWR_CLK_DISABLE();
 8004efe:	4a21      	ldr	r2, [pc, #132]	; (8004f84 <HAL_RCC_OscConfig+0x3c4>)
 8004f00:	6c13      	ldr	r3, [r2, #64]	; 0x40
 8004f02:	f023 5380 	bic.w	r3, r3, #268435456	; 0x10000000
 8004f06:	6413      	str	r3, [r2, #64]	; 0x40
 8004f08:	e6f3      	b.n	8004cf2 <HAL_RCC_OscConfig+0x132>
    return HAL_ERROR;
 8004f0a:	2001      	movs	r0, #1
}
 8004f0c:	4770      	bx	lr
    __HAL_RCC_LSE_CONFIG(RCC_OscInitStruct->LSEState);
 8004f0e:	4b1d      	ldr	r3, [pc, #116]	; (8004f84 <HAL_RCC_OscConfig+0x3c4>)
 8004f10:	6f1a      	ldr	r2, [r3, #112]	; 0x70
 8004f12:	f042 0204 	orr.w	r2, r2, #4
 8004f16:	671a      	str	r2, [r3, #112]	; 0x70
 8004f18:	6f1a      	ldr	r2, [r3, #112]	; 0x70
 8004f1a:	f042 0201 	orr.w	r2, r2, #1
 8004f1e:	671a      	str	r2, [r3, #112]	; 0x70
    if((RCC_OscInitStruct->LSEState) != RCC_LSE_OFF)
 8004f20:	e78e      	b.n	8004e40 <HAL_RCC_OscConfig+0x280>
        tickstart = HAL_GetTick();
 8004f22:	f7fd fdf9 	bl	8002b18 <HAL_GetTick>
 8004f26:	4606      	mov	r6, r0
        while(__HAL_RCC_GET_FLAG(RCC_FLAG_PLLRDY) != RESET)
 8004f28:	e005      	b.n	8004f36 <HAL_RCC_OscConfig+0x376>
          if((HAL_GetTick() - tickstart ) > PLL_TIMEOUT_VALUE)
 8004f2a:	f7fd fdf5 	bl	8002b18 <HAL_GetTick>
 8004f2e:	1b80      	subs	r0, r0, r6
 8004f30:	2802      	cmp	r0, #2
 8004f32:	f63f af7c 	bhi.w	8004e2e <HAL_RCC_OscConfig+0x26e>
        while(__HAL_RCC_GET_FLAG(RCC_FLAG_PLLRDY) != RESET)
 8004f36:	682b      	ldr	r3, [r5, #0]
 8004f38:	0199      	lsls	r1, r3, #6
 8004f3a:	d4f6      	bmi.n	8004f2a <HAL_RCC_OscConfig+0x36a>
        WRITE_REG(RCC->PLLCFGR, (RCC_OscInitStruct->PLL.PLLSource                                            | \
 8004f3c:	e9d4 3107 	ldrd	r3, r1, [r4, #28]
 8004f40:	6a62      	ldr	r2, [r4, #36]	; 0x24
 8004f42:	430b      	orrs	r3, r1
 8004f44:	ea43 1382 	orr.w	r3, r3, r2, lsl #6
 8004f48:	e9d4 210a 	ldrd	r2, r1, [r4, #40]	; 0x28
 8004f4c:	0852      	lsrs	r2, r2, #1
 8004f4e:	ea43 6301 	orr.w	r3, r3, r1, lsl #24
 8004f52:	3a01      	subs	r2, #1
        __HAL_RCC_PLL_ENABLE();
 8004f54:	490a      	ldr	r1, [pc, #40]	; (8004f80 <HAL_RCC_OscConfig+0x3c0>)
        WRITE_REG(RCC->PLLCFGR, (RCC_OscInitStruct->PLL.PLLSource                                            | \
 8004f56:	ea43 4302 	orr.w	r3, r3, r2, lsl #16
        __HAL_RCC_PLL_ENABLE();
 8004f5a:	2201      	movs	r2, #1
        WRITE_REG(RCC->PLLCFGR, (RCC_OscInitStruct->PLL.PLLSource                                            | \
 8004f5c:	606b      	str	r3, [r5, #4]
        __HAL_RCC_PLL_ENABLE();
 8004f5e:	660a      	str	r2, [r1, #96]	; 0x60
        tickstart = HAL_GetTick();
 8004f60:	f7fd fdda 	bl	8002b18 <HAL_GetTick>
        while(__HAL_RCC_GET_FLAG(RCC_FLAG_PLLRDY) == RESET)
 8004f64:	4d07      	ldr	r5, [pc, #28]	; (8004f84 <HAL_RCC_OscConfig+0x3c4>)
        tickstart = HAL_GetTick();
 8004f66:	4604      	mov	r4, r0
        while(__HAL_RCC_GET_FLAG(RCC_FLAG_PLLRDY) == RESET)
 8004f68:	e005      	b.n	8004f76 <HAL_RCC_OscConfig+0x3b6>
          if((HAL_GetTick() - tickstart ) > PLL_TIMEOUT_VALUE)
 8004f6a:	f7fd fdd5 	bl	8002b18 <HAL_GetTick>
 8004f6e:	1b00      	subs	r0, r0, r4
 8004f70:	2802      	cmp	r0, #2
 8004f72:	f63f af5c 	bhi.w	8004e2e <HAL_RCC_OscConfig+0x26e>
        while(__HAL_RCC_GET_FLAG(RCC_FLAG_PLLRDY) == RESET)
 8004f76:	682b      	ldr	r3, [r5, #0]
 8004f78:	019a      	lsls	r2, r3, #6
 8004f7a:	d5f6      	bpl.n	8004f6a <HAL_RCC_OscConfig+0x3aa>
 8004f7c:	e6d5      	b.n	8004d2a <HAL_RCC_OscConfig+0x16a>
 8004f7e:	bf00      	nop
 8004f80:	42470000 	.word	0x42470000
 8004f84:	40023800 	.word	0x40023800

08004f88 <HAL_RCC_GetSysClockFreq>:
{
  uint32_t pllm = 0U, pllvco = 0U, pllp = 0U;
  uint32_t sysclockfreq = 0U;

  /* Get SYSCLK source -------------------------------------------------------*/
  switch (RCC->CFGR & RCC_CFGR_SWS)
 8004f88:	4916      	ldr	r1, [pc, #88]	; (8004fe4 <HAL_RCC_GetSysClockFreq+0x5c>)
{
 8004f8a:	b508      	push	{r3, lr}
  switch (RCC->CFGR & RCC_CFGR_SWS)
 8004f8c:	688b      	ldr	r3, [r1, #8]
 8004f8e:	f003 030c 	and.w	r3, r3, #12
 8004f92:	2b04      	cmp	r3, #4
 8004f94:	d01b      	beq.n	8004fce <HAL_RCC_GetSysClockFreq+0x46>
 8004f96:	2b08      	cmp	r3, #8
 8004f98:	d117      	bne.n	8004fca <HAL_RCC_GetSysClockFreq+0x42>
    }
    case RCC_CFGR_SWS_PLL:  /* PLL used as system clock  source */
    {
      /* PLL_VCO = (HSE_VALUE or HSI_VALUE / PLLM) * PLLN
      SYSCLK = PLL_VCO / PLLP */
      pllm = RCC->PLLCFGR & RCC_PLLCFGR_PLLM;
 8004f9a:	684a      	ldr	r2, [r1, #4]
      if(__HAL_RCC_GET_PLL_OSCSOURCE() != RCC_PLLSOURCE_HSI)
 8004f9c:	684b      	ldr	r3, [r1, #4]
      {
        /* HSE used as PLL clock source */
        pllvco = (uint32_t) ((((uint64_t) HSE_VALUE * ((uint64_t) ((RCC->PLLCFGR & RCC_PLLCFGR_PLLN) >> RCC_PLLCFGR_PLLN_Pos)))) / (uint64_t)pllm);
 8004f9e:	6849      	ldr	r1, [r1, #4]
      if(__HAL_RCC_GET_PLL_OSCSOURCE() != RCC_PLLSOURCE_HSI)
 8004fa0:	f413 0380 	ands.w	r3, r3, #4194304	; 0x400000
      pllm = RCC->PLLCFGR & RCC_PLLCFGR_PLLM;
 8004fa4:	f002 023f 	and.w	r2, r2, #63	; 0x3f
      if(__HAL_RCC_GET_PLL_OSCSOURCE() != RCC_PLLSOURCE_HSI)
 8004fa8:	d113      	bne.n	8004fd2 <HAL_RCC_GetSysClockFreq+0x4a>
      }
      else
      {
        /* HSI used as PLL clock source */
        pllvco = (uint32_t) ((((uint64_t) HSI_VALUE * ((uint64_t) ((RCC->PLLCFGR & RCC_PLLCFGR_PLLN) >> RCC_PLLCFGR_PLLN_Pos)))) / (uint64_t)pllm);
 8004faa:	480f      	ldr	r0, [pc, #60]	; (8004fe8 <HAL_RCC_GetSysClockFreq+0x60>)
 8004fac:	f3c1 1188 	ubfx	r1, r1, #6, #9
 8004fb0:	fba1 0100 	umull	r0, r1, r1, r0
 8004fb4:	f7fb fc9a 	bl	80008ec <__aeabi_uldivmod>
      }
      pllp = ((((RCC->PLLCFGR & RCC_PLLCFGR_PLLP) >> RCC_PLLCFGR_PLLP_Pos) + 1U) *2U);
 8004fb8:	4b0a      	ldr	r3, [pc, #40]	; (8004fe4 <HAL_RCC_GetSysClockFreq+0x5c>)
 8004fba:	685b      	ldr	r3, [r3, #4]
 8004fbc:	f3c3 4301 	ubfx	r3, r3, #16, #2
 8004fc0:	3301      	adds	r3, #1
 8004fc2:	005b      	lsls	r3, r3, #1

      sysclockfreq = pllvco/pllp;
 8004fc4:	fbb0 f0f3 	udiv	r0, r0, r3
      sysclockfreq = HSI_VALUE;
      break;
    }
  }
  return sysclockfreq;
}
 8004fc8:	bd08      	pop	{r3, pc}
      sysclockfreq = HSI_VALUE;
 8004fca:	4807      	ldr	r0, [pc, #28]	; (8004fe8 <HAL_RCC_GetSysClockFreq+0x60>)
}
 8004fcc:	bd08      	pop	{r3, pc}
  switch (RCC->CFGR & RCC_CFGR_SWS)
 8004fce:	4807      	ldr	r0, [pc, #28]	; (8004fec <HAL_RCC_GetSysClockFreq+0x64>)
}
 8004fd0:	bd08      	pop	{r3, pc}
        pllvco = (uint32_t) ((((uint64_t) HSE_VALUE * ((uint64_t) ((RCC->PLLCFGR & RCC_PLLCFGR_PLLN) >> RCC_PLLCFGR_PLLN_Pos)))) / (uint64_t)pllm);
 8004fd2:	4806      	ldr	r0, [pc, #24]	; (8004fec <HAL_RCC_GetSysClockFreq+0x64>)
 8004fd4:	f3c1 1188 	ubfx	r1, r1, #6, #9
 8004fd8:	2300      	movs	r3, #0
 8004fda:	fba1 0100 	umull	r0, r1, r1, r0
 8004fde:	f7fb fc85 	bl	80008ec <__aeabi_uldivmod>
 8004fe2:	e7e9      	b.n	8004fb8 <HAL_RCC_GetSysClockFreq+0x30>
 8004fe4:	40023800 	.word	0x40023800
 8004fe8:	00f42400 	.word	0x00f42400
 8004fec:	007a1200 	.word	0x007a1200

08004ff0 <HAL_RCC_ClockConfig>:
  if(RCC_ClkInitStruct == NULL)
 8004ff0:	2800      	cmp	r0, #0
 8004ff2:	f000 8087 	beq.w	8005104 <HAL_RCC_ClockConfig+0x114>
  if(FLatency > __HAL_FLASH_GET_LATENCY())
 8004ff6:	4a48      	ldr	r2, [pc, #288]	; (8005118 <HAL_RCC_ClockConfig+0x128>)
 8004ff8:	6813      	ldr	r3, [r2, #0]
 8004ffa:	f003 0307 	and.w	r3, r3, #7
 8004ffe:	428b      	cmp	r3, r1
{
 8005000:	e92d 41f0 	stmdb	sp!, {r4, r5, r6, r7, r8, lr}
 8005004:	460d      	mov	r5, r1
 8005006:	4604      	mov	r4, r0
  if(FLatency > __HAL_FLASH_GET_LATENCY())
 8005008:	d209      	bcs.n	800501e <HAL_RCC_ClockConfig+0x2e>
    __HAL_FLASH_SET_LATENCY(FLatency);
 800500a:	b2cb      	uxtb	r3, r1
 800500c:	7013      	strb	r3, [r2, #0]
    if(__HAL_FLASH_GET_LATENCY() != FLatency)
 800500e:	6813      	ldr	r3, [r2, #0]
 8005010:	f003 0307 	and.w	r3, r3, #7
 8005014:	428b      	cmp	r3, r1
 8005016:	d002      	beq.n	800501e <HAL_RCC_ClockConfig+0x2e>
    return HAL_ERROR;
 8005018:	2001      	movs	r0, #1
}
 800501a:	e8bd 81f0 	ldmia.w	sp!, {r4, r5, r6, r7, r8, pc}
  if(((RCC_ClkInitStruct->ClockType) & RCC_CLOCKTYPE_HCLK) == RCC_CLOCKTYPE_HCLK)
 800501e:	6823      	ldr	r3, [r4, #0]
 8005020:	0798      	lsls	r0, r3, #30
 8005022:	d514      	bpl.n	800504e <HAL_RCC_ClockConfig+0x5e>
    if(((RCC_ClkInitStruct->ClockType) & RCC_CLOCKTYPE_PCLK1) == RCC_CLOCKTYPE_PCLK1)
 8005024:	0759      	lsls	r1, r3, #29
 8005026:	d504      	bpl.n	8005032 <HAL_RCC_ClockConfig+0x42>
      MODIFY_REG(RCC->CFGR, RCC_CFGR_PPRE1, RCC_HCLK_DIV16);
 8005028:	493c      	ldr	r1, [pc, #240]	; (800511c <HAL_RCC_ClockConfig+0x12c>)
 800502a:	688a      	ldr	r2, [r1, #8]
 800502c:	f442 52e0 	orr.w	r2, r2, #7168	; 0x1c00
 8005030:	608a      	str	r2, [r1, #8]
    if(((RCC_ClkInitStruct->ClockType) & RCC_CLOCKTYPE_PCLK2) == RCC_CLOCKTYPE_PCLK2)
 8005032:	071a      	lsls	r2, r3, #28
 8005034:	d504      	bpl.n	8005040 <HAL_RCC_ClockConfig+0x50>
      MODIFY_REG(RCC->CFGR, RCC_CFGR_PPRE2, (RCC_HCLK_DIV16 << 3));
 8005036:	4939      	ldr	r1, [pc, #228]	; (800511c <HAL_RCC_ClockConfig+0x12c>)
 8005038:	688a      	ldr	r2, [r1, #8]
 800503a:	f442 4260 	orr.w	r2, r2, #57344	; 0xe000
 800503e:	608a      	str	r2, [r1, #8]
    MODIFY_REG(RCC->CFGR, RCC_CFGR_HPRE, RCC_ClkInitStruct->AHBCLKDivider);
 8005040:	4936      	ldr	r1, [pc, #216]	; (800511c <HAL_RCC_ClockConfig+0x12c>)
 8005042:	68a0      	ldr	r0, [r4, #8]
 8005044:	688a      	ldr	r2, [r1, #8]
 8005046:	f022 02f0 	bic.w	r2, r2, #240	; 0xf0
 800504a:	4302      	orrs	r2, r0
 800504c:	608a      	str	r2, [r1, #8]
  if(((RCC_ClkInitStruct->ClockType) & RCC_CLOCKTYPE_SYSCLK) == RCC_CLOCKTYPE_SYSCLK)
 800504e:	07df      	lsls	r7, r3, #31
 8005050:	d521      	bpl.n	8005096 <HAL_RCC_ClockConfig+0xa6>
    if(RCC_ClkInitStruct->SYSCLKSource == RCC_SYSCLKSOURCE_HSE)
 8005052:	6862      	ldr	r2, [r4, #4]
 8005054:	2a01      	cmp	r2, #1
 8005056:	d057      	beq.n	8005108 <HAL_RCC_ClockConfig+0x118>
    else if((RCC_ClkInitStruct->SYSCLKSource == RCC_SYSCLKSOURCE_PLLCLK)   ||
 8005058:	1e93      	subs	r3, r2, #2
 800505a:	2b01      	cmp	r3, #1
      if(__HAL_RCC_GET_FLAG(RCC_FLAG_PLLRDY) == RESET)
 800505c:	4b2f      	ldr	r3, [pc, #188]	; (800511c <HAL_RCC_ClockConfig+0x12c>)
 800505e:	681b      	ldr	r3, [r3, #0]
    else if((RCC_ClkInitStruct->SYSCLKSource == RCC_SYSCLKSOURCE_PLLCLK)   ||
 8005060:	d94d      	bls.n	80050fe <HAL_RCC_ClockConfig+0x10e>
      if(__HAL_RCC_GET_FLAG(RCC_FLAG_HSIRDY) == RESET)
 8005062:	0799      	lsls	r1, r3, #30
 8005064:	d5d8      	bpl.n	8005018 <HAL_RCC_ClockConfig+0x28>
    __HAL_RCC_SYSCLK_CONFIG(RCC_ClkInitStruct->SYSCLKSource);
 8005066:	4e2d      	ldr	r6, [pc, #180]	; (800511c <HAL_RCC_ClockConfig+0x12c>)
 8005068:	68b3      	ldr	r3, [r6, #8]
 800506a:	f023 0303 	bic.w	r3, r3, #3
 800506e:	4313      	orrs	r3, r2
 8005070:	60b3      	str	r3, [r6, #8]
    tickstart = HAL_GetTick();
 8005072:	f7fd fd51 	bl	8002b18 <HAL_GetTick>
      if ((HAL_GetTick() - tickstart) > CLOCKSWITCH_TIMEOUT_VALUE)
 8005076:	f241 3888 	movw	r8, #5000	; 0x1388
    tickstart = HAL_GetTick();
 800507a:	4607      	mov	r7, r0
    while (__HAL_RCC_GET_SYSCLK_SOURCE() != (RCC_ClkInitStruct->SYSCLKSource << RCC_CFGR_SWS_Pos))
 800507c:	e004      	b.n	8005088 <HAL_RCC_ClockConfig+0x98>
      if ((HAL_GetTick() - tickstart) > CLOCKSWITCH_TIMEOUT_VALUE)
 800507e:	f7fd fd4b 	bl	8002b18 <HAL_GetTick>
 8005082:	1bc0      	subs	r0, r0, r7
 8005084:	4540      	cmp	r0, r8
 8005086:	d844      	bhi.n	8005112 <HAL_RCC_ClockConfig+0x122>
    while (__HAL_RCC_GET_SYSCLK_SOURCE() != (RCC_ClkInitStruct->SYSCLKSource << RCC_CFGR_SWS_Pos))
 8005088:	68b3      	ldr	r3, [r6, #8]
 800508a:	6862      	ldr	r2, [r4, #4]
 800508c:	f003 030c 	and.w	r3, r3, #12
 8005090:	ebb3 0f82 	cmp.w	r3, r2, lsl #2
 8005094:	d1f3      	bne.n	800507e <HAL_RCC_ClockConfig+0x8e>
  if(FLatency < __HAL_FLASH_GET_LATENCY())
 8005096:	4a20      	ldr	r2, [pc, #128]	; (8005118 <HAL_RCC_ClockConfig+0x128>)
 8005098:	6813      	ldr	r3, [r2, #0]
 800509a:	f003 0307 	and.w	r3, r3, #7
 800509e:	42ab      	cmp	r3, r5
 80050a0:	d906      	bls.n	80050b0 <HAL_RCC_ClockConfig+0xc0>
    __HAL_FLASH_SET_LATENCY(FLatency);
 80050a2:	b2eb      	uxtb	r3, r5
 80050a4:	7013      	strb	r3, [r2, #0]
    if(__HAL_FLASH_GET_LATENCY() != FLatency)
 80050a6:	6813      	ldr	r3, [r2, #0]
 80050a8:	f003 0307 	and.w	r3, r3, #7
 80050ac:	42ab      	cmp	r3, r5
 80050ae:	d1b3      	bne.n	8005018 <HAL_RCC_ClockConfig+0x28>
  if(((RCC_ClkInitStruct->ClockType) & RCC_CLOCKTYPE_PCLK1) == RCC_CLOCKTYPE_PCLK1)
 80050b0:	6823      	ldr	r3, [r4, #0]
 80050b2:	075a      	lsls	r2, r3, #29
 80050b4:	d506      	bpl.n	80050c4 <HAL_RCC_ClockConfig+0xd4>
    MODIFY_REG(RCC->CFGR, RCC_CFGR_PPRE1, RCC_ClkInitStruct->APB1CLKDivider);
 80050b6:	4919      	ldr	r1, [pc, #100]	; (800511c <HAL_RCC_ClockConfig+0x12c>)
 80050b8:	68e0      	ldr	r0, [r4, #12]
 80050ba:	688a      	ldr	r2, [r1, #8]
 80050bc:	f422 52e0 	bic.w	r2, r2, #7168	; 0x1c00
 80050c0:	4302      	orrs	r2, r0
 80050c2:	608a      	str	r2, [r1, #8]
  if(((RCC_ClkInitStruct->ClockType) & RCC_CLOCKTYPE_PCLK2) == RCC_CLOCKTYPE_PCLK2)
 80050c4:	071b      	lsls	r3, r3, #28
 80050c6:	d507      	bpl.n	80050d8 <HAL_RCC_ClockConfig+0xe8>
    MODIFY_REG(RCC->CFGR, RCC_CFGR_PPRE2, ((RCC_ClkInitStruct->APB2CLKDivider) << 3U));
 80050c8:	4a14      	ldr	r2, [pc, #80]	; (800511c <HAL_RCC_ClockConfig+0x12c>)
 80050ca:	6921      	ldr	r1, [r4, #16]
 80050cc:	6893      	ldr	r3, [r2, #8]
 80050ce:	f423 4360 	bic.w	r3, r3, #57344	; 0xe000
 80050d2:	ea43 03c1 	orr.w	r3, r3, r1, lsl #3
 80050d6:	6093      	str	r3, [r2, #8]
  SystemCoreClock = HAL_RCC_GetSysClockFreq() >> AHBPrescTable[(RCC->CFGR & RCC_CFGR_HPRE)>> RCC_CFGR_HPRE_Pos];
 80050d8:	f7ff ff56 	bl	8004f88 <HAL_RCC_GetSysClockFreq>
 80050dc:	4a0f      	ldr	r2, [pc, #60]	; (800511c <HAL_RCC_ClockConfig+0x12c>)
 80050de:	4c10      	ldr	r4, [pc, #64]	; (8005120 <HAL_RCC_ClockConfig+0x130>)
 80050e0:	6892      	ldr	r2, [r2, #8]
 80050e2:	4910      	ldr	r1, [pc, #64]	; (8005124 <HAL_RCC_ClockConfig+0x134>)
 80050e4:	f3c2 1203 	ubfx	r2, r2, #4, #4
 80050e8:	4603      	mov	r3, r0
 80050ea:	5ca2      	ldrb	r2, [r4, r2]
  HAL_InitTick (uwTickPrio);
 80050ec:	480e      	ldr	r0, [pc, #56]	; (8005128 <HAL_RCC_ClockConfig+0x138>)
  SystemCoreClock = HAL_RCC_GetSysClockFreq() >> AHBPrescTable[(RCC->CFGR & RCC_CFGR_HPRE)>> RCC_CFGR_HPRE_Pos];
 80050ee:	40d3      	lsrs	r3, r2
  HAL_InitTick (uwTickPrio);
 80050f0:	6800      	ldr	r0, [r0, #0]
  SystemCoreClock = HAL_RCC_GetSysClockFreq() >> AHBPrescTable[(RCC->CFGR & RCC_CFGR_HPRE)>> RCC_CFGR_HPRE_Pos];
 80050f2:	600b      	str	r3, [r1, #0]
  HAL_InitTick (uwTickPrio);
 80050f4:	f7fd fcc6 	bl	8002a84 <HAL_InitTick>
  return HAL_OK;
 80050f8:	2000      	movs	r0, #0
}
 80050fa:	e8bd 81f0 	ldmia.w	sp!, {r4, r5, r6, r7, r8, pc}
      if(__HAL_RCC_GET_FLAG(RCC_FLAG_PLLRDY) == RESET)
 80050fe:	0198      	lsls	r0, r3, #6
 8005100:	d4b1      	bmi.n	8005066 <HAL_RCC_ClockConfig+0x76>
 8005102:	e789      	b.n	8005018 <HAL_RCC_ClockConfig+0x28>
    return HAL_ERROR;
 8005104:	2001      	movs	r0, #1
}
 8005106:	4770      	bx	lr
      if(__HAL_RCC_GET_FLAG(RCC_FLAG_HSERDY) == RESET)
 8005108:	4b04      	ldr	r3, [pc, #16]	; (800511c <HAL_RCC_ClockConfig+0x12c>)
 800510a:	681b      	ldr	r3, [r3, #0]
 800510c:	039e      	lsls	r6, r3, #14
 800510e:	d4aa      	bmi.n	8005066 <HAL_RCC_ClockConfig+0x76>
 8005110:	e782      	b.n	8005018 <HAL_RCC_ClockConfig+0x28>
        return HAL_TIMEOUT;
 8005112:	2003      	movs	r0, #3
 8005114:	e781      	b.n	800501a <HAL_RCC_ClockConfig+0x2a>
 8005116:	bf00      	nop
 8005118:	40023c00 	.word	0x40023c00
 800511c:	40023800 	.word	0x40023800
 8005120:	0800774c 	.word	0x0800774c
 8005124:	20000040 	.word	0x20000040
 8005128:	20000048 	.word	0x20000048

0800512c <HAL_RCC_GetPCLK1Freq>:
  * @retval PCLK1 frequency
  */
uint32_t HAL_RCC_GetPCLK1Freq(void)
{
  /* Get HCLK source and Compute PCLK1 frequency ---------------------------*/
  return (HAL_RCC_GetHCLKFreq() >> APBPrescTable[(RCC->CFGR & RCC_CFGR_PPRE1)>> RCC_CFGR_PPRE1_Pos]);
 800512c:	4b04      	ldr	r3, [pc, #16]	; (8005140 <HAL_RCC_GetPCLK1Freq+0x14>)
  return SystemCoreClock;
 800512e:	4905      	ldr	r1, [pc, #20]	; (8005144 <HAL_RCC_GetPCLK1Freq+0x18>)
  return (HAL_RCC_GetHCLKFreq() >> APBPrescTable[(RCC->CFGR & RCC_CFGR_PPRE1)>> RCC_CFGR_PPRE1_Pos]);
 8005130:	689b      	ldr	r3, [r3, #8]
 8005132:	4a05      	ldr	r2, [pc, #20]	; (8005148 <HAL_RCC_GetPCLK1Freq+0x1c>)
 8005134:	6808      	ldr	r0, [r1, #0]
 8005136:	f3c3 2382 	ubfx	r3, r3, #10, #3
 800513a:	5cd3      	ldrb	r3, [r2, r3]
}
 800513c:	40d8      	lsrs	r0, r3
 800513e:	4770      	bx	lr
 8005140:	40023800 	.word	0x40023800
 8005144:	20000040 	.word	0x20000040
 8005148:	0800775c 	.word	0x0800775c

0800514c <HAL_RCC_GetPCLK2Freq>:
  * @retval PCLK2 frequency
  */
uint32_t HAL_RCC_GetPCLK2Freq(void)
{
  /* Get HCLK source and Compute PCLK2 frequency ---------------------------*/
  return (HAL_RCC_GetHCLKFreq()>> APBPrescTable[(RCC->CFGR & RCC_CFGR_PPRE2)>> RCC_CFGR_PPRE2_Pos]);
 800514c:	4b04      	ldr	r3, [pc, #16]	; (8005160 <HAL_RCC_GetPCLK2Freq+0x14>)
  return SystemCoreClock;
 800514e:	4905      	ldr	r1, [pc, #20]	; (8005164 <HAL_RCC_GetPCLK2Freq+0x18>)
  return (HAL_RCC_GetHCLKFreq()>> APBPrescTable[(RCC->CFGR & RCC_CFGR_PPRE2)>> RCC_CFGR_PPRE2_Pos]);
 8005150:	689b      	ldr	r3, [r3, #8]
 8005152:	4a05      	ldr	r2, [pc, #20]	; (8005168 <HAL_RCC_GetPCLK2Freq+0x1c>)
 8005154:	6808      	ldr	r0, [r1, #0]
 8005156:	f3c3 3342 	ubfx	r3, r3, #13, #3
 800515a:	5cd3      	ldrb	r3, [r2, r3]
}
 800515c:	40d8      	lsrs	r0, r3
 800515e:	4770      	bx	lr
 8005160:	40023800 	.word	0x40023800
 8005164:	20000040 	.word	0x20000040
 8005168:	0800775c 	.word	0x0800775c

0800516c <HAL_TIM_Base_Init>:
  * @retval HAL status
  */
HAL_StatusTypeDef HAL_TIM_Base_Init(TIM_HandleTypeDef *htim)
{
  /* Check the TIM handle allocation */
  if (htim == NULL)
 800516c:	2800      	cmp	r0, #0
 800516e:	d076      	beq.n	800525e <HAL_TIM_Base_Init+0xf2>
{
 8005170:	b510      	push	{r4, lr}
  assert_param(IS_TIM_INSTANCE(htim->Instance));
  assert_param(IS_TIM_COUNTER_MODE(htim->Init.CounterMode));
  assert_param(IS_TIM_CLOCKDIVISION_DIV(htim->Init.ClockDivision));
  assert_param(IS_TIM_AUTORELOAD_PRELOAD(htim->Init.AutoReloadPreload));

  if (htim->State == HAL_TIM_STATE_RESET)
 8005172:	f890 303d 	ldrb.w	r3, [r0, #61]	; 0x3d
 8005176:	4604      	mov	r4, r0
 8005178:	f003 02ff 	and.w	r2, r3, #255	; 0xff
 800517c:	2b00      	cmp	r3, #0
 800517e:	d055      	beq.n	800522c <HAL_TIM_Base_Init+0xc0>

  /* Set the TIM state */
  htim->State = HAL_TIM_STATE_BUSY;

  /* Set the Time Base configuration */
  TIM_Base_SetConfig(htim->Instance, &htim->Init);
 8005180:	6822      	ldr	r2, [r4, #0]
{
  uint32_t tmpcr1;
  tmpcr1 = TIMx->CR1;

  /* Set TIM Time Base Unit parameters ---------------------------------------*/
  if (IS_TIM_COUNTER_MODE_SELECT_INSTANCE(TIMx))
 8005182:	4938      	ldr	r1, [pc, #224]	; (8005264 <HAL_TIM_Base_Init+0xf8>)
  htim->State = HAL_TIM_STATE_BUSY;
 8005184:	2302      	movs	r3, #2
 8005186:	f884 303d 	strb.w	r3, [r4, #61]	; 0x3d
  if (IS_TIM_COUNTER_MODE_SELECT_INSTANCE(TIMx))
 800518a:	428a      	cmp	r2, r1
  tmpcr1 = TIMx->CR1;
 800518c:	6813      	ldr	r3, [r2, #0]
  if (IS_TIM_COUNTER_MODE_SELECT_INSTANCE(TIMx))
 800518e:	d052      	beq.n	8005236 <HAL_TIM_Base_Init+0xca>
 8005190:	f1b2 4f80 	cmp.w	r2, #1073741824	; 0x40000000
 8005194:	d021      	beq.n	80051da <HAL_TIM_Base_Init+0x6e>
 8005196:	f5a1 417c 	sub.w	r1, r1, #64512	; 0xfc00
 800519a:	428a      	cmp	r2, r1
 800519c:	d01d      	beq.n	80051da <HAL_TIM_Base_Init+0x6e>
 800519e:	f501 6180 	add.w	r1, r1, #1024	; 0x400
 80051a2:	428a      	cmp	r2, r1
 80051a4:	d019      	beq.n	80051da <HAL_TIM_Base_Init+0x6e>
 80051a6:	f501 6180 	add.w	r1, r1, #1024	; 0x400
 80051aa:	428a      	cmp	r2, r1
 80051ac:	d015      	beq.n	80051da <HAL_TIM_Base_Init+0x6e>
    /* Select the Counter Mode */
    tmpcr1 &= ~(TIM_CR1_DIR | TIM_CR1_CMS);
    tmpcr1 |= Structure->CounterMode;
  }

  if (IS_TIM_CLOCK_DIVISION_INSTANCE(TIMx))
 80051ae:	f501 319a 	add.w	r1, r1, #78848	; 0x13400
 80051b2:	428a      	cmp	r2, r1
 80051b4:	d015      	beq.n	80051e2 <HAL_TIM_Base_Init+0x76>
 80051b6:	f501 6180 	add.w	r1, r1, #1024	; 0x400
 80051ba:	428a      	cmp	r2, r1
 80051bc:	d011      	beq.n	80051e2 <HAL_TIM_Base_Init+0x76>
 80051be:	f501 6180 	add.w	r1, r1, #1024	; 0x400
 80051c2:	428a      	cmp	r2, r1
 80051c4:	d00d      	beq.n	80051e2 <HAL_TIM_Base_Init+0x76>
    tmpcr1 &= ~TIM_CR1_CKD;
    tmpcr1 |= (uint32_t)Structure->ClockDivision;
  }

  /* Set the auto-reload preload */
  MODIFY_REG(tmpcr1, TIM_CR1_ARPE, Structure->AutoReloadPreload);
 80051c6:	69a0      	ldr	r0, [r4, #24]

  TIMx->CR1 = tmpcr1;

  /* Set the Autoreload value */
  TIMx->ARR = (uint32_t)Structure->Period ;
 80051c8:	68e1      	ldr	r1, [r4, #12]
  MODIFY_REG(tmpcr1, TIM_CR1_ARPE, Structure->AutoReloadPreload);
 80051ca:	f023 0380 	bic.w	r3, r3, #128	; 0x80
 80051ce:	4303      	orrs	r3, r0
  TIMx->CR1 = tmpcr1;
 80051d0:	6013      	str	r3, [r2, #0]

  /* Set the Prescaler value */
  TIMx->PSC = Structure->Prescaler;
 80051d2:	6863      	ldr	r3, [r4, #4]
  TIMx->ARR = (uint32_t)Structure->Period ;
 80051d4:	62d1      	str	r1, [r2, #44]	; 0x2c
  TIMx->PSC = Structure->Prescaler;
 80051d6:	6293      	str	r3, [r2, #40]	; 0x28

  if (IS_TIM_REPETITION_COUNTER_INSTANCE(TIMx))
 80051d8:	e010      	b.n	80051fc <HAL_TIM_Base_Init+0x90>
    tmpcr1 |= Structure->CounterMode;
 80051da:	68a1      	ldr	r1, [r4, #8]
    tmpcr1 &= ~(TIM_CR1_DIR | TIM_CR1_CMS);
 80051dc:	f023 0370 	bic.w	r3, r3, #112	; 0x70
    tmpcr1 |= Structure->CounterMode;
 80051e0:	430b      	orrs	r3, r1
    tmpcr1 |= (uint32_t)Structure->ClockDivision;
 80051e2:	6920      	ldr	r0, [r4, #16]
  MODIFY_REG(tmpcr1, TIM_CR1_ARPE, Structure->AutoReloadPreload);
 80051e4:	69a1      	ldr	r1, [r4, #24]
    tmpcr1 &= ~TIM_CR1_CKD;
 80051e6:	f423 7340 	bic.w	r3, r3, #768	; 0x300
    tmpcr1 |= (uint32_t)Structure->ClockDivision;
 80051ea:	4303      	orrs	r3, r0
  MODIFY_REG(tmpcr1, TIM_CR1_ARPE, Structure->AutoReloadPreload);
 80051ec:	f023 0380 	bic.w	r3, r3, #128	; 0x80
  TIMx->ARR = (uint32_t)Structure->Period ;
 80051f0:	68e0      	ldr	r0, [r4, #12]
  MODIFY_REG(tmpcr1, TIM_CR1_ARPE, Structure->AutoReloadPreload);
 80051f2:	430b      	orrs	r3, r1
  TIMx->PSC = Structure->Prescaler;
 80051f4:	6861      	ldr	r1, [r4, #4]
  TIMx->CR1 = tmpcr1;
 80051f6:	6013      	str	r3, [r2, #0]
  TIMx->ARR = (uint32_t)Structure->Period ;
 80051f8:	62d0      	str	r0, [r2, #44]	; 0x2c
  TIMx->PSC = Structure->Prescaler;
 80051fa:	6291      	str	r1, [r2, #40]	; 0x28
    TIMx->RCR = Structure->RepetitionCounter;
  }

  /* Generate an update event to reload the Prescaler
     and the repetition counter (only for advanced timer) value immediately */
  TIMx->EGR = TIM_EGR_UG;
 80051fc:	2301      	movs	r3, #1
 80051fe:	6153      	str	r3, [r2, #20]
  htim->DMABurstState = HAL_DMA_BURST_STATE_READY;
 8005200:	f884 3046 	strb.w	r3, [r4, #70]	; 0x46
  TIM_CHANNEL_STATE_SET_ALL(htim, HAL_TIM_CHANNEL_STATE_READY);
 8005204:	f884 303e 	strb.w	r3, [r4, #62]	; 0x3e
 8005208:	f884 303f 	strb.w	r3, [r4, #63]	; 0x3f
 800520c:	f884 3040 	strb.w	r3, [r4, #64]	; 0x40
 8005210:	f884 3041 	strb.w	r3, [r4, #65]	; 0x41
  TIM_CHANNEL_N_STATE_SET_ALL(htim, HAL_TIM_CHANNEL_STATE_READY);
 8005214:	f884 3042 	strb.w	r3, [r4, #66]	; 0x42
 8005218:	f884 3043 	strb.w	r3, [r4, #67]	; 0x43
 800521c:	f884 3044 	strb.w	r3, [r4, #68]	; 0x44
 8005220:	f884 3045 	strb.w	r3, [r4, #69]	; 0x45
  htim->State = HAL_TIM_STATE_READY;
 8005224:	f884 303d 	strb.w	r3, [r4, #61]	; 0x3d
  return HAL_OK;
 8005228:	2000      	movs	r0, #0
}
 800522a:	bd10      	pop	{r4, pc}
    htim->Lock = HAL_UNLOCKED;
 800522c:	f880 203c 	strb.w	r2, [r0, #60]	; 0x3c
    HAL_TIM_Base_MspInit(htim);
 8005230:	f7fd fa68 	bl	8002704 <HAL_TIM_Base_MspInit>
 8005234:	e7a4      	b.n	8005180 <HAL_TIM_Base_Init+0x14>
    tmpcr1 |= Structure->CounterMode;
 8005236:	68a0      	ldr	r0, [r4, #8]
    tmpcr1 |= (uint32_t)Structure->ClockDivision;
 8005238:	6921      	ldr	r1, [r4, #16]
    tmpcr1 &= ~(TIM_CR1_DIR | TIM_CR1_CMS);
 800523a:	f023 0370 	bic.w	r3, r3, #112	; 0x70
    tmpcr1 |= Structure->CounterMode;
 800523e:	4303      	orrs	r3, r0
    tmpcr1 &= ~TIM_CR1_CKD;
 8005240:	f423 7340 	bic.w	r3, r3, #768	; 0x300
    tmpcr1 |= (uint32_t)Structure->ClockDivision;
 8005244:	430b      	orrs	r3, r1
  MODIFY_REG(tmpcr1, TIM_CR1_ARPE, Structure->AutoReloadPreload);
 8005246:	69a1      	ldr	r1, [r4, #24]
 8005248:	f023 0380 	bic.w	r3, r3, #128	; 0x80
 800524c:	430b      	orrs	r3, r1
  TIMx->CR1 = tmpcr1;
 800524e:	6013      	str	r3, [r2, #0]
  TIMx->ARR = (uint32_t)Structure->Period ;
 8005250:	68e3      	ldr	r3, [r4, #12]
 8005252:	62d3      	str	r3, [r2, #44]	; 0x2c
  TIMx->PSC = Structure->Prescaler;
 8005254:	6863      	ldr	r3, [r4, #4]
 8005256:	6293      	str	r3, [r2, #40]	; 0x28
    TIMx->RCR = Structure->RepetitionCounter;
 8005258:	6963      	ldr	r3, [r4, #20]
 800525a:	6313      	str	r3, [r2, #48]	; 0x30
 800525c:	e7ce      	b.n	80051fc <HAL_TIM_Base_Init+0x90>
    return HAL_ERROR;
 800525e:	2001      	movs	r0, #1
}
 8005260:	4770      	bx	lr
 8005262:	bf00      	nop
 8005264:	40010000 	.word	0x40010000

08005268 <HAL_TIM_Base_Start>:
  if (htim->State != HAL_TIM_STATE_READY)
 8005268:	f890 303d 	ldrb.w	r3, [r0, #61]	; 0x3d
 800526c:	2b01      	cmp	r3, #1
 800526e:	d124      	bne.n	80052ba <HAL_TIM_Base_Start+0x52>
  if (IS_TIM_SLAVE_INSTANCE(htim->Instance))
 8005270:	6803      	ldr	r3, [r0, #0]
 8005272:	4a14      	ldr	r2, [pc, #80]	; (80052c4 <HAL_TIM_Base_Start+0x5c>)
  htim->State = HAL_TIM_STATE_BUSY;
 8005274:	2102      	movs	r1, #2
  if (IS_TIM_SLAVE_INSTANCE(htim->Instance))
 8005276:	4293      	cmp	r3, r2
  htim->State = HAL_TIM_STATE_BUSY;
 8005278:	f880 103d 	strb.w	r1, [r0, #61]	; 0x3d
  if (IS_TIM_SLAVE_INSTANCE(htim->Instance))
 800527c:	d012      	beq.n	80052a4 <HAL_TIM_Base_Start+0x3c>
 800527e:	f1b3 4f80 	cmp.w	r3, #1073741824	; 0x40000000
 8005282:	d00f      	beq.n	80052a4 <HAL_TIM_Base_Start+0x3c>
 8005284:	f5a2 427c 	sub.w	r2, r2, #64512	; 0xfc00
 8005288:	4293      	cmp	r3, r2
 800528a:	d00b      	beq.n	80052a4 <HAL_TIM_Base_Start+0x3c>
 800528c:	f502 6280 	add.w	r2, r2, #1024	; 0x400
 8005290:	4293      	cmp	r3, r2
 8005292:	d007      	beq.n	80052a4 <HAL_TIM_Base_Start+0x3c>
 8005294:	f502 6280 	add.w	r2, r2, #1024	; 0x400
 8005298:	4293      	cmp	r3, r2
 800529a:	d003      	beq.n	80052a4 <HAL_TIM_Base_Start+0x3c>
 800529c:	f502 329a 	add.w	r2, r2, #78848	; 0x13400
 80052a0:	4293      	cmp	r3, r2
 80052a2:	d104      	bne.n	80052ae <HAL_TIM_Base_Start+0x46>
    tmpsmcr = htim->Instance->SMCR & TIM_SMCR_SMS;
 80052a4:	689a      	ldr	r2, [r3, #8]
 80052a6:	f002 0207 	and.w	r2, r2, #7
    if (!IS_TIM_SLAVEMODE_TRIGGER_ENABLED(tmpsmcr))
 80052aa:	2a06      	cmp	r2, #6
 80052ac:	d007      	beq.n	80052be <HAL_TIM_Base_Start+0x56>
    __HAL_TIM_ENABLE(htim);
 80052ae:	681a      	ldr	r2, [r3, #0]
 80052b0:	f042 0201 	orr.w	r2, r2, #1
  return HAL_OK;
 80052b4:	2000      	movs	r0, #0
    __HAL_TIM_ENABLE(htim);
 80052b6:	601a      	str	r2, [r3, #0]
 80052b8:	4770      	bx	lr
    return HAL_ERROR;
 80052ba:	2001      	movs	r0, #1
 80052bc:	4770      	bx	lr
  return HAL_OK;
 80052be:	2000      	movs	r0, #0
}
 80052c0:	4770      	bx	lr
 80052c2:	bf00      	nop
 80052c4:	40010000 	.word	0x40010000

080052c8 <HAL_TIM_Base_Start_IT>:
  if (htim->State != HAL_TIM_STATE_READY)
 80052c8:	f890 303d 	ldrb.w	r3, [r0, #61]	; 0x3d
 80052cc:	2b01      	cmp	r3, #1
 80052ce:	d127      	bne.n	8005320 <HAL_TIM_Base_Start_IT+0x58>
  __HAL_TIM_ENABLE_IT(htim, TIM_IT_UPDATE);
 80052d0:	6803      	ldr	r3, [r0, #0]
  if (IS_TIM_SLAVE_INSTANCE(htim->Instance))
 80052d2:	4915      	ldr	r1, [pc, #84]	; (8005328 <HAL_TIM_Base_Start_IT+0x60>)
  htim->State = HAL_TIM_STATE_BUSY;
 80052d4:	2202      	movs	r2, #2
 80052d6:	f880 203d 	strb.w	r2, [r0, #61]	; 0x3d
  __HAL_TIM_ENABLE_IT(htim, TIM_IT_UPDATE);
 80052da:	68da      	ldr	r2, [r3, #12]
  if (IS_TIM_SLAVE_INSTANCE(htim->Instance))
 80052dc:	428b      	cmp	r3, r1
  __HAL_TIM_ENABLE_IT(htim, TIM_IT_UPDATE);
 80052de:	f042 0201 	orr.w	r2, r2, #1
 80052e2:	60da      	str	r2, [r3, #12]
  if (IS_TIM_SLAVE_INSTANCE(htim->Instance))
 80052e4:	d011      	beq.n	800530a <HAL_TIM_Base_Start_IT+0x42>
 80052e6:	f1b3 4f80 	cmp.w	r3, #1073741824	; 0x40000000
 80052ea:	d00e      	beq.n	800530a <HAL_TIM_Base_Start_IT+0x42>
 80052ec:	4a0f      	ldr	r2, [pc, #60]	; (800532c <HAL_TIM_Base_Start_IT+0x64>)
 80052ee:	4293      	cmp	r3, r2
 80052f0:	d00b      	beq.n	800530a <HAL_TIM_Base_Start_IT+0x42>
 80052f2:	f502 6280 	add.w	r2, r2, #1024	; 0x400
 80052f6:	4293      	cmp	r3, r2
 80052f8:	d007      	beq.n	800530a <HAL_TIM_Base_Start_IT+0x42>
 80052fa:	f502 6280 	add.w	r2, r2, #1024	; 0x400
 80052fe:	4293      	cmp	r3, r2
 8005300:	d003      	beq.n	800530a <HAL_TIM_Base_Start_IT+0x42>
 8005302:	f502 329a 	add.w	r2, r2, #78848	; 0x13400
 8005306:	4293      	cmp	r3, r2
 8005308:	d104      	bne.n	8005314 <HAL_TIM_Base_Start_IT+0x4c>
    tmpsmcr = htim->Instance->SMCR & TIM_SMCR_SMS;
 800530a:	689a      	ldr	r2, [r3, #8]
 800530c:	f002 0207 	and.w	r2, r2, #7
    if (!IS_TIM_SLAVEMODE_TRIGGER_ENABLED(tmpsmcr))
 8005310:	2a06      	cmp	r2, #6
 8005312:	d007      	beq.n	8005324 <HAL_TIM_Base_Start_IT+0x5c>
    __HAL_TIM_ENABLE(htim);
 8005314:	681a      	ldr	r2, [r3, #0]
 8005316:	f042 0201 	orr.w	r2, r2, #1
  return HAL_OK;
 800531a:	2000      	movs	r0, #0
    __HAL_TIM_ENABLE(htim);
 800531c:	601a      	str	r2, [r3, #0]
 800531e:	4770      	bx	lr
    return HAL_ERROR;
 8005320:	2001      	movs	r0, #1
 8005322:	4770      	bx	lr
  return HAL_OK;
 8005324:	2000      	movs	r0, #0
}
 8005326:	4770      	bx	lr
 8005328:	40010000 	.word	0x40010000
 800532c:	40000400 	.word	0x40000400

08005330 <HAL_TIM_PWM_MspInit>:
 8005330:	4770      	bx	lr
 8005332:	bf00      	nop

08005334 <HAL_TIM_PWM_Init>:
  if (htim == NULL)
 8005334:	2800      	cmp	r0, #0
 8005336:	d076      	beq.n	8005426 <HAL_TIM_PWM_Init+0xf2>
{
 8005338:	b510      	push	{r4, lr}
  if (htim->State == HAL_TIM_STATE_RESET)
 800533a:	f890 303d 	ldrb.w	r3, [r0, #61]	; 0x3d
 800533e:	4604      	mov	r4, r0
 8005340:	f003 02ff 	and.w	r2, r3, #255	; 0xff
 8005344:	2b00      	cmp	r3, #0
 8005346:	d055      	beq.n	80053f4 <HAL_TIM_PWM_Init+0xc0>
  TIM_Base_SetConfig(htim->Instance, &htim->Init);
 8005348:	6822      	ldr	r2, [r4, #0]
  if (IS_TIM_COUNTER_MODE_SELECT_INSTANCE(TIMx))
 800534a:	4938      	ldr	r1, [pc, #224]	; (800542c <HAL_TIM_PWM_Init+0xf8>)
  htim->State = HAL_TIM_STATE_BUSY;
 800534c:	2302      	movs	r3, #2
 800534e:	f884 303d 	strb.w	r3, [r4, #61]	; 0x3d
  if (IS_TIM_COUNTER_MODE_SELECT_INSTANCE(TIMx))
 8005352:	428a      	cmp	r2, r1
  tmpcr1 = TIMx->CR1;
 8005354:	6813      	ldr	r3, [r2, #0]
  if (IS_TIM_COUNTER_MODE_SELECT_INSTANCE(TIMx))
 8005356:	d052      	beq.n	80053fe <HAL_TIM_PWM_Init+0xca>
 8005358:	f1b2 4f80 	cmp.w	r2, #1073741824	; 0x40000000
 800535c:	d021      	beq.n	80053a2 <HAL_TIM_PWM_Init+0x6e>
 800535e:	f5a1 417c 	sub.w	r1, r1, #64512	; 0xfc00
 8005362:	428a      	cmp	r2, r1
 8005364:	d01d      	beq.n	80053a2 <HAL_TIM_PWM_Init+0x6e>
 8005366:	f501 6180 	add.w	r1, r1, #1024	; 0x400
 800536a:	428a      	cmp	r2, r1
 800536c:	d019      	beq.n	80053a2 <HAL_TIM_PWM_Init+0x6e>
 800536e:	f501 6180 	add.w	r1, r1, #1024	; 0x400
 8005372:	428a      	cmp	r2, r1
 8005374:	d015      	beq.n	80053a2 <HAL_TIM_PWM_Init+0x6e>
  if (IS_TIM_CLOCK_DIVISION_INSTANCE(TIMx))
 8005376:	f501 319a 	add.w	r1, r1, #78848	; 0x13400
 800537a:	428a      	cmp	r2, r1
 800537c:	d015      	beq.n	80053aa <HAL_TIM_PWM_Init+0x76>
 800537e:	f501 6180 	add.w	r1, r1, #1024	; 0x400
 8005382:	428a      	cmp	r2, r1
 8005384:	d011      	beq.n	80053aa <HAL_TIM_PWM_Init+0x76>
 8005386:	f501 6180 	add.w	r1, r1, #1024	; 0x400
 800538a:	428a      	cmp	r2, r1
 800538c:	d00d      	beq.n	80053aa <HAL_TIM_PWM_Init+0x76>
  MODIFY_REG(tmpcr1, TIM_CR1_ARPE, Structure->AutoReloadPreload);
 800538e:	69a0      	ldr	r0, [r4, #24]
  TIMx->ARR = (uint32_t)Structure->Period ;
 8005390:	68e1      	ldr	r1, [r4, #12]
  MODIFY_REG(tmpcr1, TIM_CR1_ARPE, Structure->AutoReloadPreload);
 8005392:	f023 0380 	bic.w	r3, r3, #128	; 0x80
 8005396:	4303      	orrs	r3, r0
  TIMx->CR1 = tmpcr1;
 8005398:	6013      	str	r3, [r2, #0]
  TIMx->PSC = Structure->Prescaler;
 800539a:	6863      	ldr	r3, [r4, #4]
  TIMx->ARR = (uint32_t)Structure->Period ;
 800539c:	62d1      	str	r1, [r2, #44]	; 0x2c
  TIMx->PSC = Structure->Prescaler;
 800539e:	6293      	str	r3, [r2, #40]	; 0x28
  if (IS_TIM_REPETITION_COUNTER_INSTANCE(TIMx))
 80053a0:	e010      	b.n	80053c4 <HAL_TIM_PWM_Init+0x90>
    tmpcr1 |= Structure->CounterMode;
 80053a2:	68a1      	ldr	r1, [r4, #8]
    tmpcr1 &= ~(TIM_CR1_DIR | TIM_CR1_CMS);
 80053a4:	f023 0370 	bic.w	r3, r3, #112	; 0x70
    tmpcr1 |= Structure->CounterMode;
 80053a8:	430b      	orrs	r3, r1
    tmpcr1 |= (uint32_t)Structure->ClockDivision;
 80053aa:	6920      	ldr	r0, [r4, #16]
  MODIFY_REG(tmpcr1, TIM_CR1_ARPE, Structure->AutoReloadPreload);
 80053ac:	69a1      	ldr	r1, [r4, #24]
    tmpcr1 &= ~TIM_CR1_CKD;
 80053ae:	f423 7340 	bic.w	r3, r3, #768	; 0x300
    tmpcr1 |= (uint32_t)Structure->ClockDivision;
 80053b2:	4303      	orrs	r3, r0
  MODIFY_REG(tmpcr1, TIM_CR1_ARPE, Structure->AutoReloadPreload);
 80053b4:	f023 0380 	bic.w	r3, r3, #128	; 0x80
  TIMx->ARR = (uint32_t)Structure->Period ;
 80053b8:	68e0      	ldr	r0, [r4, #12]
  MODIFY_REG(tmpcr1, TIM_CR1_ARPE, Structure->AutoReloadPreload);
 80053ba:	430b      	orrs	r3, r1
  TIMx->PSC = Structure->Prescaler;
 80053bc:	6861      	ldr	r1, [r4, #4]
  TIMx->CR1 = tmpcr1;
 80053be:	6013      	str	r3, [r2, #0]
  TIMx->ARR = (uint32_t)Structure->Period ;
 80053c0:	62d0      	str	r0, [r2, #44]	; 0x2c
  TIMx->PSC = Structure->Prescaler;
 80053c2:	6291      	str	r1, [r2, #40]	; 0x28
  TIMx->EGR = TIM_EGR_UG;
 80053c4:	2301      	movs	r3, #1
 80053c6:	6153      	str	r3, [r2, #20]
  htim->DMABurstState = HAL_DMA_BURST_STATE_READY;
 80053c8:	f884 3046 	strb.w	r3, [r4, #70]	; 0x46
  TIM_CHANNEL_STATE_SET_ALL(htim, HAL_TIM_CHANNEL_STATE_READY);
 80053cc:	f884 303e 	strb.w	r3, [r4, #62]	; 0x3e
 80053d0:	f884 303f 	strb.w	r3, [r4, #63]	; 0x3f
 80053d4:	f884 3040 	strb.w	r3, [r4, #64]	; 0x40
 80053d8:	f884 3041 	strb.w	r3, [r4, #65]	; 0x41
  TIM_CHANNEL_N_STATE_SET_ALL(htim, HAL_TIM_CHANNEL_STATE_READY);
 80053dc:	f884 3042 	strb.w	r3, [r4, #66]	; 0x42
 80053e0:	f884 3043 	strb.w	r3, [r4, #67]	; 0x43
 80053e4:	f884 3044 	strb.w	r3, [r4, #68]	; 0x44
 80053e8:	f884 3045 	strb.w	r3, [r4, #69]	; 0x45
  htim->State = HAL_TIM_STATE_READY;
 80053ec:	f884 303d 	strb.w	r3, [r4, #61]	; 0x3d
  return HAL_OK;
 80053f0:	2000      	movs	r0, #0
}
 80053f2:	bd10      	pop	{r4, pc}
    htim->Lock = HAL_UNLOCKED;
 80053f4:	f880 203c 	strb.w	r2, [r0, #60]	; 0x3c
    HAL_TIM_PWM_MspInit(htim);
 80053f8:	f7ff ff9a 	bl	8005330 <HAL_TIM_PWM_MspInit>
 80053fc:	e7a4      	b.n	8005348 <HAL_TIM_PWM_Init+0x14>
    tmpcr1 |= Structure->CounterMode;
 80053fe:	68a0      	ldr	r0, [r4, #8]
    tmpcr1 |= (uint32_t)Structure->ClockDivision;
 8005400:	6921      	ldr	r1, [r4, #16]
    tmpcr1 &= ~(TIM_CR1_DIR | TIM_CR1_CMS);
 8005402:	f023 0370 	bic.w	r3, r3, #112	; 0x70
    tmpcr1 |= Structure->CounterMode;
 8005406:	4303      	orrs	r3, r0
    tmpcr1 &= ~TIM_CR1_CKD;
 8005408:	f423 7340 	bic.w	r3, r3, #768	; 0x300
    tmpcr1 |= (uint32_t)Structure->ClockDivision;
 800540c:	430b      	orrs	r3, r1
  MODIFY_REG(tmpcr1, TIM_CR1_ARPE, Structure->AutoReloadPreload);
 800540e:	69a1      	ldr	r1, [r4, #24]
 8005410:	f023 0380 	bic.w	r3, r3, #128	; 0x80
 8005414:	430b      	orrs	r3, r1
  TIMx->CR1 = tmpcr1;
 8005416:	6013      	str	r3, [r2, #0]
  TIMx->ARR = (uint32_t)Structure->Period ;
 8005418:	68e3      	ldr	r3, [r4, #12]
 800541a:	62d3      	str	r3, [r2, #44]	; 0x2c
  TIMx->PSC = Structure->Prescaler;
 800541c:	6863      	ldr	r3, [r4, #4]
 800541e:	6293      	str	r3, [r2, #40]	; 0x28
    TIMx->RCR = Structure->RepetitionCounter;
 8005420:	6963      	ldr	r3, [r4, #20]
 8005422:	6313      	str	r3, [r2, #48]	; 0x30
 8005424:	e7ce      	b.n	80053c4 <HAL_TIM_PWM_Init+0x90>
    return HAL_ERROR;
 8005426:	2001      	movs	r0, #1
}
 8005428:	4770      	bx	lr
 800542a:	bf00      	nop
 800542c:	40010000 	.word	0x40010000

08005430 <HAL_TIM_PWM_Start>:
 8005430:	bb99      	cbnz	r1, 800549a <HAL_TIM_PWM_Start+0x6a>
 8005432:	f890 303e 	ldrb.w	r3, [r0, #62]	; 0x3e
 8005436:	2b01      	cmp	r3, #1
 8005438:	d143      	bne.n	80054c2 <HAL_TIM_PWM_Start+0x92>
 800543a:	2302      	movs	r3, #2
 800543c:	f880 303e 	strb.w	r3, [r0, #62]	; 0x3e
 8005440:	6803      	ldr	r3, [r0, #0]
 8005442:	2201      	movs	r2, #1
 8005444:	6a18      	ldr	r0, [r3, #32]
 8005446:	f001 011f 	and.w	r1, r1, #31
 800544a:	fa02 f101 	lsl.w	r1, r2, r1
 800544e:	ea20 0001 	bic.w	r0, r0, r1
 8005452:	6218      	str	r0, [r3, #32]
 8005454:	6a18      	ldr	r0, [r3, #32]
 8005456:	4a25      	ldr	r2, [pc, #148]	; (80054ec <HAL_TIM_PWM_Start+0xbc>)
 8005458:	4301      	orrs	r1, r0
 800545a:	4293      	cmp	r3, r2
 800545c:	6219      	str	r1, [r3, #32]
 800545e:	d040      	beq.n	80054e2 <HAL_TIM_PWM_Start+0xb2>
 8005460:	f1b3 4f80 	cmp.w	r3, #1073741824	; 0x40000000
 8005464:	d00e      	beq.n	8005484 <HAL_TIM_PWM_Start+0x54>
 8005466:	4a22      	ldr	r2, [pc, #136]	; (80054f0 <HAL_TIM_PWM_Start+0xc0>)
 8005468:	4293      	cmp	r3, r2
 800546a:	d00b      	beq.n	8005484 <HAL_TIM_PWM_Start+0x54>
 800546c:	f502 6280 	add.w	r2, r2, #1024	; 0x400
 8005470:	4293      	cmp	r3, r2
 8005472:	d007      	beq.n	8005484 <HAL_TIM_PWM_Start+0x54>
 8005474:	f502 6280 	add.w	r2, r2, #1024	; 0x400
 8005478:	4293      	cmp	r3, r2
 800547a:	d003      	beq.n	8005484 <HAL_TIM_PWM_Start+0x54>
 800547c:	f502 329a 	add.w	r2, r2, #78848	; 0x13400
 8005480:	4293      	cmp	r3, r2
 8005482:	d104      	bne.n	800548e <HAL_TIM_PWM_Start+0x5e>
 8005484:	689a      	ldr	r2, [r3, #8]
 8005486:	f002 0207 	and.w	r2, r2, #7
 800548a:	2a06      	cmp	r2, #6
 800548c:	d027      	beq.n	80054de <HAL_TIM_PWM_Start+0xae>
 800548e:	681a      	ldr	r2, [r3, #0]
 8005490:	f042 0201 	orr.w	r2, r2, #1
 8005494:	2000      	movs	r0, #0
 8005496:	601a      	str	r2, [r3, #0]
 8005498:	4770      	bx	lr
 800549a:	2904      	cmp	r1, #4
 800549c:	d013      	beq.n	80054c6 <HAL_TIM_PWM_Start+0x96>
 800549e:	2908      	cmp	r1, #8
 80054a0:	d00b      	beq.n	80054ba <HAL_TIM_PWM_Start+0x8a>
 80054a2:	f890 3041 	ldrb.w	r3, [r0, #65]	; 0x41
 80054a6:	2b01      	cmp	r3, #1
 80054a8:	d10b      	bne.n	80054c2 <HAL_TIM_PWM_Start+0x92>
 80054aa:	2904      	cmp	r1, #4
 80054ac:	d00f      	beq.n	80054ce <HAL_TIM_PWM_Start+0x9e>
 80054ae:	2908      	cmp	r1, #8
 80054b0:	d011      	beq.n	80054d6 <HAL_TIM_PWM_Start+0xa6>
 80054b2:	2302      	movs	r3, #2
 80054b4:	f880 3041 	strb.w	r3, [r0, #65]	; 0x41
 80054b8:	e7c2      	b.n	8005440 <HAL_TIM_PWM_Start+0x10>
 80054ba:	f890 3040 	ldrb.w	r3, [r0, #64]	; 0x40
 80054be:	2b01      	cmp	r3, #1
 80054c0:	d009      	beq.n	80054d6 <HAL_TIM_PWM_Start+0xa6>
 80054c2:	2001      	movs	r0, #1
 80054c4:	4770      	bx	lr
 80054c6:	f890 303f 	ldrb.w	r3, [r0, #63]	; 0x3f
 80054ca:	2b01      	cmp	r3, #1
 80054cc:	d1f9      	bne.n	80054c2 <HAL_TIM_PWM_Start+0x92>
 80054ce:	2302      	movs	r3, #2
 80054d0:	f880 303f 	strb.w	r3, [r0, #63]	; 0x3f
 80054d4:	e7b4      	b.n	8005440 <HAL_TIM_PWM_Start+0x10>
 80054d6:	2302      	movs	r3, #2
 80054d8:	f880 3040 	strb.w	r3, [r0, #64]	; 0x40
 80054dc:	e7b0      	b.n	8005440 <HAL_TIM_PWM_Start+0x10>
 80054de:	2000      	movs	r0, #0
 80054e0:	4770      	bx	lr
 80054e2:	6c5a      	ldr	r2, [r3, #68]	; 0x44
 80054e4:	f442 4200 	orr.w	r2, r2, #32768	; 0x8000
 80054e8:	645a      	str	r2, [r3, #68]	; 0x44
 80054ea:	e7cb      	b.n	8005484 <HAL_TIM_PWM_Start+0x54>
 80054ec:	40010000 	.word	0x40010000
 80054f0:	40000400 	.word	0x40000400

080054f4 <HAL_TIM_IC_MspInit>:
 80054f4:	4770      	bx	lr
 80054f6:	bf00      	nop

080054f8 <HAL_TIM_IC_Init>:
  if (htim == NULL)
 80054f8:	2800      	cmp	r0, #0
 80054fa:	d076      	beq.n	80055ea <HAL_TIM_IC_Init+0xf2>
{
 80054fc:	b510      	push	{r4, lr}
  if (htim->State == HAL_TIM_STATE_RESET)
 80054fe:	f890 303d 	ldrb.w	r3, [r0, #61]	; 0x3d
 8005502:	4604      	mov	r4, r0
 8005504:	f003 02ff 	and.w	r2, r3, #255	; 0xff
 8005508:	2b00      	cmp	r3, #0
 800550a:	d055      	beq.n	80055b8 <HAL_TIM_IC_Init+0xc0>
  TIM_Base_SetConfig(htim->Instance, &htim->Init);
 800550c:	6822      	ldr	r2, [r4, #0]
  if (IS_TIM_COUNTER_MODE_SELECT_INSTANCE(TIMx))
 800550e:	4938      	ldr	r1, [pc, #224]	; (80055f0 <HAL_TIM_IC_Init+0xf8>)
  htim->State = HAL_TIM_STATE_BUSY;
 8005510:	2302      	movs	r3, #2
 8005512:	f884 303d 	strb.w	r3, [r4, #61]	; 0x3d
  if (IS_TIM_COUNTER_MODE_SELECT_INSTANCE(TIMx))
 8005516:	428a      	cmp	r2, r1
  tmpcr1 = TIMx->CR1;
 8005518:	6813      	ldr	r3, [r2, #0]
  if (IS_TIM_COUNTER_MODE_SELECT_INSTANCE(TIMx))
 800551a:	d052      	beq.n	80055c2 <HAL_TIM_IC_Init+0xca>
 800551c:	f1b2 4f80 	cmp.w	r2, #1073741824	; 0x40000000
 8005520:	d021      	beq.n	8005566 <HAL_TIM_IC_Init+0x6e>
 8005522:	f5a1 417c 	sub.w	r1, r1, #64512	; 0xfc00
 8005526:	428a      	cmp	r2, r1
 8005528:	d01d      	beq.n	8005566 <HAL_TIM_IC_Init+0x6e>
 800552a:	f501 6180 	add.w	r1, r1, #1024	; 0x400
 800552e:	428a      	cmp	r2, r1
 8005530:	d019      	beq.n	8005566 <HAL_TIM_IC_Init+0x6e>
 8005532:	f501 6180 	add.w	r1, r1, #1024	; 0x400
 8005536:	428a      	cmp	r2, r1
 8005538:	d015      	beq.n	8005566 <HAL_TIM_IC_Init+0x6e>
  if (IS_TIM_CLOCK_DIVISION_INSTANCE(TIMx))
 800553a:	f501 319a 	add.w	r1, r1, #78848	; 0x13400
 800553e:	428a      	cmp	r2, r1
 8005540:	d015      	beq.n	800556e <HAL_TIM_IC_Init+0x76>
 8005542:	f501 6180 	add.w	r1, r1, #1024	; 0x400
 8005546:	428a      	cmp	r2, r1
 8005548:	d011      	beq.n	800556e <HAL_TIM_IC_Init+0x76>
 800554a:	f501 6180 	add.w	r1, r1, #1024	; 0x400
 800554e:	428a      	cmp	r2, r1
 8005550:	d00d      	beq.n	800556e <HAL_TIM_IC_Init+0x76>
  MODIFY_REG(tmpcr1, TIM_CR1_ARPE, Structure->AutoReloadPreload);
 8005552:	69a0      	ldr	r0, [r4, #24]
  TIMx->ARR = (uint32_t)Structure->Period ;
 8005554:	68e1      	ldr	r1, [r4, #12]
  MODIFY_REG(tmpcr1, TIM_CR1_ARPE, Structure->AutoReloadPreload);
 8005556:	f023 0380 	bic.w	r3, r3, #128	; 0x80
 800555a:	4303      	orrs	r3, r0
  TIMx->CR1 = tmpcr1;
 800555c:	6013      	str	r3, [r2, #0]
  TIMx->PSC = Structure->Prescaler;
 800555e:	6863      	ldr	r3, [r4, #4]
  TIMx->ARR = (uint32_t)Structure->Period ;
 8005560:	62d1      	str	r1, [r2, #44]	; 0x2c
  TIMx->PSC = Structure->Prescaler;
 8005562:	6293      	str	r3, [r2, #40]	; 0x28
  if (IS_TIM_REPETITION_COUNTER_INSTANCE(TIMx))
 8005564:	e010      	b.n	8005588 <HAL_TIM_IC_Init+0x90>
    tmpcr1 |= Structure->CounterMode;
 8005566:	68a1      	ldr	r1, [r4, #8]
    tmpcr1 &= ~(TIM_CR1_DIR | TIM_CR1_CMS);
 8005568:	f023 0370 	bic.w	r3, r3, #112	; 0x70
    tmpcr1 |= Structure->CounterMode;
 800556c:	430b      	orrs	r3, r1
    tmpcr1 |= (uint32_t)Structure->ClockDivision;
 800556e:	6920      	ldr	r0, [r4, #16]
  MODIFY_REG(tmpcr1, TIM_CR1_ARPE, Structure->AutoReloadPreload);
 8005570:	69a1      	ldr	r1, [r4, #24]
    tmpcr1 &= ~TIM_CR1_CKD;
 8005572:	f423 7340 	bic.w	r3, r3, #768	; 0x300
    tmpcr1 |= (uint32_t)Structure->ClockDivision;
 8005576:	4303      	orrs	r3, r0
  MODIFY_REG(tmpcr1, TIM_CR1_ARPE, Structure->AutoReloadPreload);
 8005578:	f023 0380 	bic.w	r3, r3, #128	; 0x80
  TIMx->ARR = (uint32_t)Structure->Period ;
 800557c:	68e0      	ldr	r0, [r4, #12]
  MODIFY_REG(tmpcr1, TIM_CR1_ARPE, Structure->AutoReloadPreload);
 800557e:	430b      	orrs	r3, r1
  TIMx->PSC = Structure->Prescaler;
 8005580:	6861      	ldr	r1, [r4, #4]
  TIMx->CR1 = tmpcr1;
 8005582:	6013      	str	r3, [r2, #0]
  TIMx->ARR = (uint32_t)Structure->Period ;
 8005584:	62d0      	str	r0, [r2, #44]	; 0x2c
  TIMx->PSC = Structure->Prescaler;
 8005586:	6291      	str	r1, [r2, #40]	; 0x28
  TIMx->EGR = TIM_EGR_UG;
 8005588:	2301      	movs	r3, #1
 800558a:	6153      	str	r3, [r2, #20]
  htim->DMABurstState = HAL_DMA_BURST_STATE_READY;
 800558c:	f884 3046 	strb.w	r3, [r4, #70]	; 0x46
  TIM_CHANNEL_STATE_SET_ALL(htim, HAL_TIM_CHANNEL_STATE_READY);
 8005590:	f884 303e 	strb.w	r3, [r4, #62]	; 0x3e
 8005594:	f884 303f 	strb.w	r3, [r4, #63]	; 0x3f
 8005598:	f884 3040 	strb.w	r3, [r4, #64]	; 0x40
 800559c:	f884 3041 	strb.w	r3, [r4, #65]	; 0x41
  TIM_CHANNEL_N_STATE_SET_ALL(htim, HAL_TIM_CHANNEL_STATE_READY);
 80055a0:	f884 3042 	strb.w	r3, [r4, #66]	; 0x42
 80055a4:	f884 3043 	strb.w	r3, [r4, #67]	; 0x43
 80055a8:	f884 3044 	strb.w	r3, [r4, #68]	; 0x44
 80055ac:	f884 3045 	strb.w	r3, [r4, #69]	; 0x45
  htim->State = HAL_TIM_STATE_READY;
 80055b0:	f884 303d 	strb.w	r3, [r4, #61]	; 0x3d
  return HAL_OK;
 80055b4:	2000      	movs	r0, #0
}
 80055b6:	bd10      	pop	{r4, pc}
    htim->Lock = HAL_UNLOCKED;
 80055b8:	f880 203c 	strb.w	r2, [r0, #60]	; 0x3c
    HAL_TIM_IC_MspInit(htim);
 80055bc:	f7ff ff9a 	bl	80054f4 <HAL_TIM_IC_MspInit>
 80055c0:	e7a4      	b.n	800550c <HAL_TIM_IC_Init+0x14>
    tmpcr1 |= Structure->CounterMode;
 80055c2:	68a0      	ldr	r0, [r4, #8]
    tmpcr1 |= (uint32_t)Structure->ClockDivision;
 80055c4:	6921      	ldr	r1, [r4, #16]
    tmpcr1 &= ~(TIM_CR1_DIR | TIM_CR1_CMS);
 80055c6:	f023 0370 	bic.w	r3, r3, #112	; 0x70
    tmpcr1 |= Structure->CounterMode;
 80055ca:	4303      	orrs	r3, r0
    tmpcr1 &= ~TIM_CR1_CKD;
 80055cc:	f423 7340 	bic.w	r3, r3, #768	; 0x300
    tmpcr1 |= (uint32_t)Structure->ClockDivision;
 80055d0:	430b      	orrs	r3, r1
  MODIFY_REG(tmpcr1, TIM_CR1_ARPE, Structure->AutoReloadPreload);
 80055d2:	69a1      	ldr	r1, [r4, #24]
 80055d4:	f023 0380 	bic.w	r3, r3, #128	; 0x80
 80055d8:	430b      	orrs	r3, r1
  TIMx->CR1 = tmpcr1;
 80055da:	6013      	str	r3, [r2, #0]
  TIMx->ARR = (uint32_t)Structure->Period ;
 80055dc:	68e3      	ldr	r3, [r4, #12]
 80055de:	62d3      	str	r3, [r2, #44]	; 0x2c
  TIMx->PSC = Structure->Prescaler;
 80055e0:	6863      	ldr	r3, [r4, #4]
 80055e2:	6293      	str	r3, [r2, #40]	; 0x28
    TIMx->RCR = Structure->RepetitionCounter;
 80055e4:	6963      	ldr	r3, [r4, #20]
 80055e6:	6313      	str	r3, [r2, #48]	; 0x30
 80055e8:	e7ce      	b.n	8005588 <HAL_TIM_IC_Init+0x90>
    return HAL_ERROR;
 80055ea:	2001      	movs	r0, #1
}
 80055ec:	4770      	bx	lr
 80055ee:	bf00      	nop
 80055f0:	40010000 	.word	0x40010000

080055f4 <HAL_TIM_IC_Start_DMA>:
{
 80055f4:	b570      	push	{r4, r5, r6, lr}
 80055f6:	4604      	mov	r4, r0
  HAL_TIM_ChannelStateTypeDef channel_state = TIM_CHANNEL_STATE_GET(htim, Channel);
 80055f8:	2900      	cmp	r1, #0
 80055fa:	d156      	bne.n	80056aa <HAL_TIM_IC_Start_DMA+0xb6>
 80055fc:	f890 003e 	ldrb.w	r0, [r0, #62]	; 0x3e
  HAL_TIM_ChannelStateTypeDef complementary_channel_state = TIM_CHANNEL_N_STATE_GET(htim, Channel);
 8005600:	f894 c042 	ldrb.w	ip, [r4, #66]	; 0x42
  HAL_TIM_ChannelStateTypeDef channel_state = TIM_CHANNEL_STATE_GET(htim, Channel);
 8005604:	b2c0      	uxtb	r0, r0
  HAL_TIM_ChannelStateTypeDef complementary_channel_state = TIM_CHANNEL_N_STATE_GET(htim, Channel);
 8005606:	fa5f fc8c 	uxtb.w	ip, ip
  if ((channel_state == HAL_TIM_CHANNEL_STATE_BUSY)
 800560a:	2802      	cmp	r0, #2
 800560c:	d048      	beq.n	80056a0 <HAL_TIM_IC_Start_DMA+0xac>
      || (complementary_channel_state == HAL_TIM_CHANNEL_STATE_BUSY))
 800560e:	f1bc 0f02 	cmp.w	ip, #2
 8005612:	d066      	beq.n	80056e2 <HAL_TIM_IC_Start_DMA+0xee>
  else if ((channel_state == HAL_TIM_CHANNEL_STATE_READY)
 8005614:	2801      	cmp	r0, #1
 8005616:	d146      	bne.n	80056a6 <HAL_TIM_IC_Start_DMA+0xb2>
           && (complementary_channel_state == HAL_TIM_CHANNEL_STATE_READY))
 8005618:	f1bc 0f01 	cmp.w	ip, #1
 800561c:	d143      	bne.n	80056a6 <HAL_TIM_IC_Start_DMA+0xb2>
    if ((pData == NULL) && (Length > 0U))
 800561e:	2a00      	cmp	r2, #0
 8005620:	d03f      	beq.n	80056a2 <HAL_TIM_IC_Start_DMA+0xae>
      TIM_CHANNEL_STATE_SET(htim, Channel, HAL_TIM_CHANNEL_STATE_BUSY);
 8005622:	2900      	cmp	r1, #0
 8005624:	d15f      	bne.n	80056e6 <HAL_TIM_IC_Start_DMA+0xf2>
  TIM_CCxChannelCmd(htim->Instance, Channel, TIM_CCx_ENABLE);
 8005626:	6821      	ldr	r1, [r4, #0]
      htim->hdma[TIM_DMA_ID_CC1]->XferCpltCallback = TIM_DMACaptureCplt;
 8005628:	4d6b      	ldr	r5, [pc, #428]	; (80057d8 <HAL_TIM_IC_Start_DMA+0x1e4>)
      TIM_CHANNEL_STATE_SET(htim, Channel, HAL_TIM_CHANNEL_STATE_BUSY);
 800562a:	2002      	movs	r0, #2
 800562c:	f884 003e 	strb.w	r0, [r4, #62]	; 0x3e
      TIM_CHANNEL_N_STATE_SET(htim, Channel, HAL_TIM_CHANNEL_STATE_BUSY);
 8005630:	f884 0042 	strb.w	r0, [r4, #66]	; 0x42
  assert_param(IS_TIM_CHANNELS(Channel));

  tmp = TIM_CCER_CC1E << (Channel & 0x1FU); /* 0x1FU = 31 bits max shift */

  /* Reset the CCxE Bit */
  TIMx->CCER &= ~tmp;
 8005634:	6a08      	ldr	r0, [r1, #32]
 8005636:	f020 0001 	bic.w	r0, r0, #1
 800563a:	6208      	str	r0, [r1, #32]

  /* Set or reset the CCxE Bit */
  TIMx->CCER |= (uint32_t)(ChannelState << (Channel & 0x1FU)); /* 0x1FU = 31 bits max shift */
 800563c:	6a08      	ldr	r0, [r1, #32]
 800563e:	f040 0001 	orr.w	r0, r0, #1
 8005642:	6208      	str	r0, [r1, #32]
      htim->hdma[TIM_DMA_ID_CC1]->XferCpltCallback = TIM_DMACaptureCplt;
 8005644:	6a60      	ldr	r0, [r4, #36]	; 0x24
 8005646:	63c5      	str	r5, [r0, #60]	; 0x3c
      htim->hdma[TIM_DMA_ID_CC1]->XferHalfCpltCallback = TIM_DMACaptureHalfCplt;
 8005648:	4d64      	ldr	r5, [pc, #400]	; (80057dc <HAL_TIM_IC_Start_DMA+0x1e8>)
 800564a:	6405      	str	r5, [r0, #64]	; 0x40
      htim->hdma[TIM_DMA_ID_CC1]->XferErrorCallback = TIM_DMAError ;
 800564c:	4d64      	ldr	r5, [pc, #400]	; (80057e0 <HAL_TIM_IC_Start_DMA+0x1ec>)
 800564e:	64c5      	str	r5, [r0, #76]	; 0x4c
      if (HAL_DMA_Start_IT(htim->hdma[TIM_DMA_ID_CC1], (uint32_t)&htim->Instance->CCR1, (uint32_t)pData,
 8005650:	3134      	adds	r1, #52	; 0x34
 8005652:	f7fd fb89 	bl	8002d68 <HAL_DMA_Start_IT>
 8005656:	bb30      	cbnz	r0, 80056a6 <HAL_TIM_IC_Start_DMA+0xb2>
      __HAL_TIM_ENABLE_DMA(htim, TIM_DMA_CC1);
 8005658:	6825      	ldr	r5, [r4, #0]
 800565a:	68eb      	ldr	r3, [r5, #12]
 800565c:	f443 7300 	orr.w	r3, r3, #512	; 0x200
 8005660:	60eb      	str	r3, [r5, #12]
  if (IS_TIM_SLAVE_INSTANCE(htim->Instance))
 8005662:	4b60      	ldr	r3, [pc, #384]	; (80057e4 <HAL_TIM_IC_Start_DMA+0x1f0>)
 8005664:	429d      	cmp	r5, r3
 8005666:	d012      	beq.n	800568e <HAL_TIM_IC_Start_DMA+0x9a>
 8005668:	f1b5 4f80 	cmp.w	r5, #1073741824	; 0x40000000
 800566c:	d00f      	beq.n	800568e <HAL_TIM_IC_Start_DMA+0x9a>
 800566e:	f5a3 437c 	sub.w	r3, r3, #64512	; 0xfc00
 8005672:	429d      	cmp	r5, r3
 8005674:	d00b      	beq.n	800568e <HAL_TIM_IC_Start_DMA+0x9a>
 8005676:	f503 6380 	add.w	r3, r3, #1024	; 0x400
 800567a:	429d      	cmp	r5, r3
 800567c:	d007      	beq.n	800568e <HAL_TIM_IC_Start_DMA+0x9a>
 800567e:	f503 6380 	add.w	r3, r3, #1024	; 0x400
 8005682:	429d      	cmp	r5, r3
 8005684:	d003      	beq.n	800568e <HAL_TIM_IC_Start_DMA+0x9a>
 8005686:	f503 339a 	add.w	r3, r3, #78848	; 0x13400
 800568a:	429d      	cmp	r5, r3
 800568c:	d104      	bne.n	8005698 <HAL_TIM_IC_Start_DMA+0xa4>
    tmpsmcr = htim->Instance->SMCR & TIM_SMCR_SMS;
 800568e:	68ab      	ldr	r3, [r5, #8]
 8005690:	f003 0307 	and.w	r3, r3, #7
    if (!IS_TIM_SLAVEMODE_TRIGGER_ENABLED(tmpsmcr))
 8005694:	2b06      	cmp	r3, #6
 8005696:	d003      	beq.n	80056a0 <HAL_TIM_IC_Start_DMA+0xac>
    __HAL_TIM_ENABLE(htim);
 8005698:	682b      	ldr	r3, [r5, #0]
 800569a:	f043 0301 	orr.w	r3, r3, #1
 800569e:	602b      	str	r3, [r5, #0]
}
 80056a0:	bd70      	pop	{r4, r5, r6, pc}
    if ((pData == NULL) && (Length > 0U))
 80056a2:	2b00      	cmp	r3, #0
 80056a4:	d0bd      	beq.n	8005622 <HAL_TIM_IC_Start_DMA+0x2e>
    return HAL_ERROR;
 80056a6:	2001      	movs	r0, #1
}
 80056a8:	bd70      	pop	{r4, r5, r6, pc}
  HAL_TIM_ChannelStateTypeDef channel_state = TIM_CHANNEL_STATE_GET(htim, Channel);
 80056aa:	2904      	cmp	r1, #4
 80056ac:	d009      	beq.n	80056c2 <HAL_TIM_IC_Start_DMA+0xce>
 80056ae:	2908      	cmp	r1, #8
 80056b0:	d00f      	beq.n	80056d2 <HAL_TIM_IC_Start_DMA+0xde>
 80056b2:	f890 0041 	ldrb.w	r0, [r0, #65]	; 0x41
  HAL_TIM_ChannelStateTypeDef complementary_channel_state = TIM_CHANNEL_N_STATE_GET(htim, Channel);
 80056b6:	f894 c045 	ldrb.w	ip, [r4, #69]	; 0x45
  HAL_TIM_ChannelStateTypeDef channel_state = TIM_CHANNEL_STATE_GET(htim, Channel);
 80056ba:	b2c0      	uxtb	r0, r0
  HAL_TIM_ChannelStateTypeDef complementary_channel_state = TIM_CHANNEL_N_STATE_GET(htim, Channel);
 80056bc:	fa5f fc8c 	uxtb.w	ip, ip
 80056c0:	e7a3      	b.n	800560a <HAL_TIM_IC_Start_DMA+0x16>
  HAL_TIM_ChannelStateTypeDef channel_state = TIM_CHANNEL_STATE_GET(htim, Channel);
 80056c2:	f890 003f 	ldrb.w	r0, [r0, #63]	; 0x3f
  HAL_TIM_ChannelStateTypeDef complementary_channel_state = TIM_CHANNEL_N_STATE_GET(htim, Channel);
 80056c6:	f894 c043 	ldrb.w	ip, [r4, #67]	; 0x43
  HAL_TIM_ChannelStateTypeDef channel_state = TIM_CHANNEL_STATE_GET(htim, Channel);
 80056ca:	b2c0      	uxtb	r0, r0
  HAL_TIM_ChannelStateTypeDef complementary_channel_state = TIM_CHANNEL_N_STATE_GET(htim, Channel);
 80056cc:	fa5f fc8c 	uxtb.w	ip, ip
 80056d0:	e79b      	b.n	800560a <HAL_TIM_IC_Start_DMA+0x16>
  HAL_TIM_ChannelStateTypeDef channel_state = TIM_CHANNEL_STATE_GET(htim, Channel);
 80056d2:	f890 0040 	ldrb.w	r0, [r0, #64]	; 0x40
  HAL_TIM_ChannelStateTypeDef complementary_channel_state = TIM_CHANNEL_N_STATE_GET(htim, Channel);
 80056d6:	f894 c044 	ldrb.w	ip, [r4, #68]	; 0x44
  HAL_TIM_ChannelStateTypeDef channel_state = TIM_CHANNEL_STATE_GET(htim, Channel);
 80056da:	b2c0      	uxtb	r0, r0
  HAL_TIM_ChannelStateTypeDef complementary_channel_state = TIM_CHANNEL_N_STATE_GET(htim, Channel);
 80056dc:	fa5f fc8c 	uxtb.w	ip, ip
 80056e0:	e793      	b.n	800560a <HAL_TIM_IC_Start_DMA+0x16>
    return HAL_BUSY;
 80056e2:	4660      	mov	r0, ip
}
 80056e4:	bd70      	pop	{r4, r5, r6, pc}
      TIM_CHANNEL_STATE_SET(htim, Channel, HAL_TIM_CHANNEL_STATE_BUSY);
 80056e6:	2904      	cmp	r1, #4
 80056e8:	d040      	beq.n	800576c <HAL_TIM_IC_Start_DMA+0x178>
 80056ea:	2908      	cmp	r1, #8
 80056ec:	d01d      	beq.n	800572a <HAL_TIM_IC_Start_DMA+0x136>
  TIM_CCxChannelCmd(htim->Instance, Channel, TIM_CCx_ENABLE);
 80056ee:	6825      	ldr	r5, [r4, #0]
      TIM_CHANNEL_STATE_SET(htim, Channel, HAL_TIM_CHANNEL_STATE_BUSY);
 80056f0:	2002      	movs	r0, #2
 80056f2:	f884 0041 	strb.w	r0, [r4, #65]	; 0x41
      TIM_CHANNEL_N_STATE_SET(htim, Channel, HAL_TIM_CHANNEL_STATE_BUSY);
 80056f6:	f884 0045 	strb.w	r0, [r4, #69]	; 0x45
  TIMx->CCER &= ~tmp;
 80056fa:	6a2e      	ldr	r6, [r5, #32]
  tmp = TIM_CCER_CC1E << (Channel & 0x1FU); /* 0x1FU = 31 bits max shift */
 80056fc:	f001 0c1f 	and.w	ip, r1, #31
 8005700:	2001      	movs	r0, #1
 8005702:	fa00 f00c 	lsl.w	r0, r0, ip
  TIMx->CCER &= ~tmp;
 8005706:	ea26 0600 	bic.w	r6, r6, r0
 800570a:	622e      	str	r6, [r5, #32]
  TIMx->CCER |= (uint32_t)(ChannelState << (Channel & 0x1FU)); /* 0x1FU = 31 bits max shift */
 800570c:	6a2e      	ldr	r6, [r5, #32]
  switch (Channel)
 800570e:	3904      	subs	r1, #4
  TIMx->CCER |= (uint32_t)(ChannelState << (Channel & 0x1FU)); /* 0x1FU = 31 bits max shift */
 8005710:	4330      	orrs	r0, r6
 8005712:	6228      	str	r0, [r5, #32]
  switch (Channel)
 8005714:	2908      	cmp	r1, #8
 8005716:	d806      	bhi.n	8005726 <HAL_TIM_IC_Start_DMA+0x132>
 8005718:	e8df f001 	tbb	[pc, r1]
 800571c:	05050536 	.word	0x05050536
 8005720:	05050515 	.word	0x05050515
 8005724:	49          	.byte	0x49
 8005725:	00          	.byte	0x00
 8005726:	2001      	movs	r0, #1
 8005728:	e79b      	b.n	8005662 <HAL_TIM_IC_Start_DMA+0x6e>
  TIM_CCxChannelCmd(htim->Instance, Channel, TIM_CCx_ENABLE);
 800572a:	6825      	ldr	r5, [r4, #0]
      TIM_CHANNEL_STATE_SET(htim, Channel, HAL_TIM_CHANNEL_STATE_BUSY);
 800572c:	2102      	movs	r1, #2
 800572e:	f884 1040 	strb.w	r1, [r4, #64]	; 0x40
      TIM_CHANNEL_N_STATE_SET(htim, Channel, HAL_TIM_CHANNEL_STATE_BUSY);
 8005732:	f884 1044 	strb.w	r1, [r4, #68]	; 0x44
  TIMx->CCER &= ~tmp;
 8005736:	6a29      	ldr	r1, [r5, #32]
 8005738:	f421 7180 	bic.w	r1, r1, #256	; 0x100
 800573c:	6229      	str	r1, [r5, #32]
  TIMx->CCER |= (uint32_t)(ChannelState << (Channel & 0x1FU)); /* 0x1FU = 31 bits max shift */
 800573e:	6a29      	ldr	r1, [r5, #32]
 8005740:	f441 7180 	orr.w	r1, r1, #256	; 0x100
 8005744:	6229      	str	r1, [r5, #32]
      htim->hdma[TIM_DMA_ID_CC3]->XferCpltCallback = TIM_DMACaptureCplt;
 8005746:	6ae0      	ldr	r0, [r4, #44]	; 0x2c
      if (HAL_DMA_Start_IT(htim->hdma[TIM_DMA_ID_CC3], (uint32_t)&htim->Instance->CCR3, (uint32_t)pData,
 8005748:	f105 013c 	add.w	r1, r5, #60	; 0x3c
      htim->hdma[TIM_DMA_ID_CC3]->XferCpltCallback = TIM_DMACaptureCplt;
 800574c:	4d22      	ldr	r5, [pc, #136]	; (80057d8 <HAL_TIM_IC_Start_DMA+0x1e4>)
 800574e:	63c5      	str	r5, [r0, #60]	; 0x3c
      htim->hdma[TIM_DMA_ID_CC3]->XferHalfCpltCallback = TIM_DMACaptureHalfCplt;
 8005750:	4d22      	ldr	r5, [pc, #136]	; (80057dc <HAL_TIM_IC_Start_DMA+0x1e8>)
 8005752:	6405      	str	r5, [r0, #64]	; 0x40
      htim->hdma[TIM_DMA_ID_CC3]->XferErrorCallback = TIM_DMAError ;
 8005754:	4d22      	ldr	r5, [pc, #136]	; (80057e0 <HAL_TIM_IC_Start_DMA+0x1ec>)
 8005756:	64c5      	str	r5, [r0, #76]	; 0x4c
      if (HAL_DMA_Start_IT(htim->hdma[TIM_DMA_ID_CC3], (uint32_t)&htim->Instance->CCR3, (uint32_t)pData,
 8005758:	f7fd fb06 	bl	8002d68 <HAL_DMA_Start_IT>
 800575c:	2800      	cmp	r0, #0
 800575e:	d1a2      	bne.n	80056a6 <HAL_TIM_IC_Start_DMA+0xb2>
      __HAL_TIM_ENABLE_DMA(htim, TIM_DMA_CC3);
 8005760:	6825      	ldr	r5, [r4, #0]
 8005762:	68eb      	ldr	r3, [r5, #12]
 8005764:	f443 6300 	orr.w	r3, r3, #2048	; 0x800
 8005768:	60eb      	str	r3, [r5, #12]
      break;
 800576a:	e77a      	b.n	8005662 <HAL_TIM_IC_Start_DMA+0x6e>
  TIM_CCxChannelCmd(htim->Instance, Channel, TIM_CCx_ENABLE);
 800576c:	6825      	ldr	r5, [r4, #0]
      TIM_CHANNEL_STATE_SET(htim, Channel, HAL_TIM_CHANNEL_STATE_BUSY);
 800576e:	2102      	movs	r1, #2
 8005770:	f884 103f 	strb.w	r1, [r4, #63]	; 0x3f
      TIM_CHANNEL_N_STATE_SET(htim, Channel, HAL_TIM_CHANNEL_STATE_BUSY);
 8005774:	f884 1043 	strb.w	r1, [r4, #67]	; 0x43
  TIMx->CCER &= ~tmp;
 8005778:	6a29      	ldr	r1, [r5, #32]
 800577a:	f021 0110 	bic.w	r1, r1, #16
 800577e:	6229      	str	r1, [r5, #32]
  TIMx->CCER |= (uint32_t)(ChannelState << (Channel & 0x1FU)); /* 0x1FU = 31 bits max shift */
 8005780:	6a29      	ldr	r1, [r5, #32]
 8005782:	f041 0110 	orr.w	r1, r1, #16
 8005786:	6229      	str	r1, [r5, #32]
      htim->hdma[TIM_DMA_ID_CC2]->XferCpltCallback = TIM_DMACaptureCplt;
 8005788:	6aa0      	ldr	r0, [r4, #40]	; 0x28
      if (HAL_DMA_Start_IT(htim->hdma[TIM_DMA_ID_CC2], (uint32_t)&htim->Instance->CCR2, (uint32_t)pData,
 800578a:	f105 0138 	add.w	r1, r5, #56	; 0x38
      htim->hdma[TIM_DMA_ID_CC2]->XferCpltCallback = TIM_DMACaptureCplt;
 800578e:	4d12      	ldr	r5, [pc, #72]	; (80057d8 <HAL_TIM_IC_Start_DMA+0x1e4>)
 8005790:	63c5      	str	r5, [r0, #60]	; 0x3c
      htim->hdma[TIM_DMA_ID_CC2]->XferHalfCpltCallback = TIM_DMACaptureHalfCplt;
 8005792:	4d12      	ldr	r5, [pc, #72]	; (80057dc <HAL_TIM_IC_Start_DMA+0x1e8>)
 8005794:	6405      	str	r5, [r0, #64]	; 0x40
      htim->hdma[TIM_DMA_ID_CC2]->XferErrorCallback = TIM_DMAError ;
 8005796:	4d12      	ldr	r5, [pc, #72]	; (80057e0 <HAL_TIM_IC_Start_DMA+0x1ec>)
 8005798:	64c5      	str	r5, [r0, #76]	; 0x4c
      if (HAL_DMA_Start_IT(htim->hdma[TIM_DMA_ID_CC2], (uint32_t)&htim->Instance->CCR2, (uint32_t)pData,
 800579a:	f7fd fae5 	bl	8002d68 <HAL_DMA_Start_IT>
 800579e:	2800      	cmp	r0, #0
 80057a0:	d181      	bne.n	80056a6 <HAL_TIM_IC_Start_DMA+0xb2>
      __HAL_TIM_ENABLE_DMA(htim, TIM_DMA_CC2);
 80057a2:	6825      	ldr	r5, [r4, #0]
 80057a4:	68eb      	ldr	r3, [r5, #12]
 80057a6:	f443 6380 	orr.w	r3, r3, #1024	; 0x400
 80057aa:	60eb      	str	r3, [r5, #12]
      break;
 80057ac:	e759      	b.n	8005662 <HAL_TIM_IC_Start_DMA+0x6e>
      htim->hdma[TIM_DMA_ID_CC4]->XferCpltCallback = TIM_DMACaptureCplt;
 80057ae:	6b20      	ldr	r0, [r4, #48]	; 0x30
      if (HAL_DMA_Start_IT(htim->hdma[TIM_DMA_ID_CC4], (uint32_t)&htim->Instance->CCR4, (uint32_t)pData,
 80057b0:	f105 0140 	add.w	r1, r5, #64	; 0x40
      htim->hdma[TIM_DMA_ID_CC4]->XferCpltCallback = TIM_DMACaptureCplt;
 80057b4:	4d08      	ldr	r5, [pc, #32]	; (80057d8 <HAL_TIM_IC_Start_DMA+0x1e4>)
 80057b6:	63c5      	str	r5, [r0, #60]	; 0x3c
      htim->hdma[TIM_DMA_ID_CC4]->XferHalfCpltCallback = TIM_DMACaptureHalfCplt;
 80057b8:	4d08      	ldr	r5, [pc, #32]	; (80057dc <HAL_TIM_IC_Start_DMA+0x1e8>)
 80057ba:	6405      	str	r5, [r0, #64]	; 0x40
      htim->hdma[TIM_DMA_ID_CC4]->XferErrorCallback = TIM_DMAError ;
 80057bc:	4d08      	ldr	r5, [pc, #32]	; (80057e0 <HAL_TIM_IC_Start_DMA+0x1ec>)
 80057be:	64c5      	str	r5, [r0, #76]	; 0x4c
      if (HAL_DMA_Start_IT(htim->hdma[TIM_DMA_ID_CC4], (uint32_t)&htim->Instance->CCR4, (uint32_t)pData,
 80057c0:	f7fd fad2 	bl	8002d68 <HAL_DMA_Start_IT>
 80057c4:	2800      	cmp	r0, #0
 80057c6:	f47f af6e 	bne.w	80056a6 <HAL_TIM_IC_Start_DMA+0xb2>
      __HAL_TIM_ENABLE_DMA(htim, TIM_DMA_CC4);
 80057ca:	6825      	ldr	r5, [r4, #0]
 80057cc:	68eb      	ldr	r3, [r5, #12]
 80057ce:	f443 5380 	orr.w	r3, r3, #4096	; 0x1000
 80057d2:	60eb      	str	r3, [r5, #12]
      break;
 80057d4:	e745      	b.n	8005662 <HAL_TIM_IC_Start_DMA+0x6e>
 80057d6:	bf00      	nop
 80057d8:	08005d09 	.word	0x08005d09
 80057dc:	08005da1 	.word	0x08005da1
 80057e0:	08005f5d 	.word	0x08005f5d
 80057e4:	40010000 	.word	0x40010000

080057e8 <HAL_TIM_IC_ConfigChannel>:
{
 80057e8:	4603      	mov	r3, r0
  __HAL_LOCK(htim);
 80057ea:	f890 003c 	ldrb.w	r0, [r0, #60]	; 0x3c
 80057ee:	2801      	cmp	r0, #1
 80057f0:	f000 80cc 	beq.w	800598c <HAL_TIM_IC_ConfigChannel+0x1a4>
 80057f4:	2001      	movs	r0, #1
{
 80057f6:	b4f0      	push	{r4, r5, r6, r7}
  __HAL_LOCK(htim);
 80057f8:	f883 003c 	strb.w	r0, [r3, #60]	; 0x3c
  if (Channel == TIM_CHANNEL_1)
 80057fc:	b15a      	cbz	r2, 8005816 <HAL_TIM_IC_ConfigChannel+0x2e>
  else if (Channel == TIM_CHANNEL_2)
 80057fe:	2a04      	cmp	r2, #4
 8005800:	d04c      	beq.n	800589c <HAL_TIM_IC_ConfigChannel+0xb4>
  else if (Channel == TIM_CHANNEL_3)
 8005802:	2a08      	cmp	r2, #8
 8005804:	f000 809a 	beq.w	800593c <HAL_TIM_IC_ConfigChannel+0x154>
  else if (Channel == TIM_CHANNEL_4)
 8005808:	2a0c      	cmp	r2, #12
 800580a:	d071      	beq.n	80058f0 <HAL_TIM_IC_ConfigChannel+0x108>
  __HAL_UNLOCK(htim);
 800580c:	2200      	movs	r2, #0
 800580e:	f883 203c 	strb.w	r2, [r3, #60]	; 0x3c
}
 8005812:	bcf0      	pop	{r4, r5, r6, r7}
 8005814:	4770      	bx	lr
    TIM_TI1_SetConfig(htim->Instance,
 8005816:	681a      	ldr	r2, [r3, #0]
  if (IS_TIM_CC2_INSTANCE(TIMx) != RESET)
 8005818:	f8df c174 	ldr.w	ip, [pc, #372]	; 8005990 <HAL_TIM_IC_ConfigChannel+0x1a8>
  TIMx->CCER &= ~TIM_CCER_CC1E;
 800581c:	6a16      	ldr	r6, [r2, #32]
    TIM_TI1_SetConfig(htim->Instance,
 800581e:	68c8      	ldr	r0, [r1, #12]
  TIMx->CCER &= ~TIM_CCER_CC1E;
 8005820:	f026 0601 	bic.w	r6, r6, #1
    TIM_TI1_SetConfig(htim->Instance,
 8005824:	e9d1 4500 	ldrd	r4, r5, [r1]
  if (IS_TIM_CC2_INSTANCE(TIMx) != RESET)
 8005828:	4562      	cmp	r2, ip
  TIMx->CCER &= ~TIM_CCER_CC1E;
 800582a:	6216      	str	r6, [r2, #32]
  tmpccmr1 = TIMx->CCMR1;
 800582c:	6997      	ldr	r7, [r2, #24]
  tmpccer = TIMx->CCER;
 800582e:	6a16      	ldr	r6, [r2, #32]
  if (IS_TIM_CC2_INSTANCE(TIMx) != RESET)
 8005830:	d015      	beq.n	800585e <HAL_TIM_IC_ConfigChannel+0x76>
 8005832:	f1b2 4f80 	cmp.w	r2, #1073741824	; 0x40000000
 8005836:	d012      	beq.n	800585e <HAL_TIM_IC_ConfigChannel+0x76>
 8005838:	f5ac 4c7c 	sub.w	ip, ip, #64512	; 0xfc00
 800583c:	4562      	cmp	r2, ip
 800583e:	d00e      	beq.n	800585e <HAL_TIM_IC_ConfigChannel+0x76>
 8005840:	f50c 6c80 	add.w	ip, ip, #1024	; 0x400
 8005844:	4562      	cmp	r2, ip
 8005846:	d00a      	beq.n	800585e <HAL_TIM_IC_ConfigChannel+0x76>
 8005848:	f50c 6c80 	add.w	ip, ip, #1024	; 0x400
 800584c:	4562      	cmp	r2, ip
 800584e:	d006      	beq.n	800585e <HAL_TIM_IC_ConfigChannel+0x76>
 8005850:	f50c 3c9a 	add.w	ip, ip, #78848	; 0x13400
 8005854:	4562      	cmp	r2, ip
 8005856:	d002      	beq.n	800585e <HAL_TIM_IC_ConfigChannel+0x76>
    tmpccmr1 |= TIM_CCMR1_CC1S_0;
 8005858:	f047 0c01 	orr.w	ip, r7, #1
 800585c:	e003      	b.n	8005866 <HAL_TIM_IC_ConfigChannel+0x7e>
    tmpccmr1 &= ~TIM_CCMR1_CC1S;
 800585e:	f027 0c03 	bic.w	ip, r7, #3
    tmpccmr1 |= TIM_ICSelection;
 8005862:	ea45 0c0c 	orr.w	ip, r5, ip
  tmpccmr1 |= ((TIM_ICFilter << 4U) & TIM_CCMR1_IC1F);
 8005866:	0100      	lsls	r0, r0, #4
  tmpccmr1 &= ~TIM_CCMR1_IC1F;
 8005868:	f02c 0cf0 	bic.w	ip, ip, #240	; 0xf0
  tmpccmr1 |= ((TIM_ICFilter << 4U) & TIM_CCMR1_IC1F);
 800586c:	b2c0      	uxtb	r0, r0
 800586e:	ea40 000c 	orr.w	r0, r0, ip
  TIMx->CCMR1 = tmpccmr1;
 8005872:	6190      	str	r0, [r2, #24]
  tmpccer &= ~(TIM_CCER_CC1P | TIM_CCER_CC1NP);
 8005874:	f026 050a 	bic.w	r5, r6, #10
  tmpccer |= (TIM_ICPolarity & (TIM_CCER_CC1P | TIM_CCER_CC1NP));
 8005878:	f004 000a 	and.w	r0, r4, #10
 800587c:	4328      	orrs	r0, r5
  TIMx->CCER = tmpccer;
 800587e:	6210      	str	r0, [r2, #32]
    htim->Instance->CCMR1 &= ~TIM_CCMR1_IC1PSC;
 8005880:	6990      	ldr	r0, [r2, #24]
    htim->Instance->CCMR1 |= sConfig->ICPrescaler;
 8005882:	688c      	ldr	r4, [r1, #8]
    htim->Instance->CCMR1 &= ~TIM_CCMR1_IC1PSC;
 8005884:	f020 000c 	bic.w	r0, r0, #12
 8005888:	6190      	str	r0, [r2, #24]
    htim->Instance->CCMR1 |= sConfig->ICPrescaler;
 800588a:	6991      	ldr	r1, [r2, #24]
 800588c:	4321      	orrs	r1, r4
 800588e:	6191      	str	r1, [r2, #24]
  __HAL_UNLOCK(htim);
 8005890:	2200      	movs	r2, #0
 8005892:	f883 203c 	strb.w	r2, [r3, #60]	; 0x3c
  HAL_StatusTypeDef status = HAL_OK;
 8005896:	2000      	movs	r0, #0
}
 8005898:	bcf0      	pop	{r4, r5, r6, r7}
 800589a:	4770      	bx	lr
    TIM_TI2_SetConfig(htim->Instance,
 800589c:	681a      	ldr	r2, [r3, #0]
 800589e:	e9d1 0600 	ldrd	r0, r6, [r1]
  TIMx->CCER &= ~TIM_CCER_CC2E;
 80058a2:	6a15      	ldr	r5, [r2, #32]
  tmpccer |= ((TIM_ICPolarity << 4U) & (TIM_CCER_CC2P | TIM_CCER_CC2NP));
 80058a4:	0100      	lsls	r0, r0, #4
  TIMx->CCER &= ~TIM_CCER_CC2E;
 80058a6:	f025 0510 	bic.w	r5, r5, #16
  tmpccer |= ((TIM_ICPolarity << 4U) & (TIM_CCER_CC2P | TIM_CCER_CC2NP));
 80058aa:	f000 04a0 	and.w	r4, r0, #160	; 0xa0
    TIM_TI2_SetConfig(htim->Instance,
 80058ae:	68c8      	ldr	r0, [r1, #12]
  TIMx->CCER &= ~TIM_CCER_CC2E;
 80058b0:	6215      	str	r5, [r2, #32]
    htim->Instance->CCMR1 |= (sConfig->ICPrescaler << 8U);
 80058b2:	688d      	ldr	r5, [r1, #8]
  tmpccmr1 = TIMx->CCMR1;
 80058b4:	6991      	ldr	r1, [r2, #24]
  tmpccmr1 &= ~TIM_CCMR1_CC2S;
 80058b6:	f421 7140 	bic.w	r1, r1, #768	; 0x300
  tmpccmr1 |= (TIM_ICSelection << 8U);
 80058ba:	ea41 2106 	orr.w	r1, r1, r6, lsl #8
  tmpccmr1 |= ((TIM_ICFilter << 12U) & TIM_CCMR1_IC2F);
 80058be:	0300      	lsls	r0, r0, #12
 80058c0:	b280      	uxth	r0, r0
  tmpccmr1 &= ~TIM_CCMR1_IC2F;
 80058c2:	f421 4170 	bic.w	r1, r1, #61440	; 0xf000
  tmpccmr1 |= ((TIM_ICFilter << 12U) & TIM_CCMR1_IC2F);
 80058c6:	4301      	orrs	r1, r0
  tmpccer = TIMx->CCER;
 80058c8:	6a10      	ldr	r0, [r2, #32]
  TIMx->CCMR1 = tmpccmr1 ;
 80058ca:	6191      	str	r1, [r2, #24]
  tmpccer &= ~(TIM_CCER_CC2P | TIM_CCER_CC2NP);
 80058cc:	f020 00a0 	bic.w	r0, r0, #160	; 0xa0
  tmpccer |= ((TIM_ICPolarity << 4U) & (TIM_CCER_CC2P | TIM_CCER_CC2NP));
 80058d0:	4320      	orrs	r0, r4
  TIMx->CCER = tmpccer;
 80058d2:	6210      	str	r0, [r2, #32]
    htim->Instance->CCMR1 &= ~TIM_CCMR1_IC2PSC;
 80058d4:	6994      	ldr	r4, [r2, #24]
 80058d6:	f424 6440 	bic.w	r4, r4, #3072	; 0xc00
 80058da:	6194      	str	r4, [r2, #24]
    htim->Instance->CCMR1 |= (sConfig->ICPrescaler << 8U);
 80058dc:	6991      	ldr	r1, [r2, #24]
 80058de:	ea41 2105 	orr.w	r1, r1, r5, lsl #8
 80058e2:	6191      	str	r1, [r2, #24]
  __HAL_UNLOCK(htim);
 80058e4:	2200      	movs	r2, #0
 80058e6:	f883 203c 	strb.w	r2, [r3, #60]	; 0x3c
  HAL_StatusTypeDef status = HAL_OK;
 80058ea:	2000      	movs	r0, #0
}
 80058ec:	bcf0      	pop	{r4, r5, r6, r7}
 80058ee:	4770      	bx	lr
    TIM_TI4_SetConfig(htim->Instance,
 80058f0:	681a      	ldr	r2, [r3, #0]
 80058f2:	e9d1 0600 	ldrd	r0, r6, [r1]
  TIMx->CCER &= ~TIM_CCER_CC4E;
 80058f6:	6a15      	ldr	r5, [r2, #32]
  tmpccer |= ((TIM_ICPolarity << 12U) & (TIM_CCER_CC4P | TIM_CCER_CC4NP));
 80058f8:	0300      	lsls	r0, r0, #12
  TIMx->CCER &= ~TIM_CCER_CC4E;
 80058fa:	f425 5580 	bic.w	r5, r5, #4096	; 0x1000
  tmpccer |= ((TIM_ICPolarity << 12U) & (TIM_CCER_CC4P | TIM_CCER_CC4NP));
 80058fe:	f400 4420 	and.w	r4, r0, #40960	; 0xa000
    TIM_TI4_SetConfig(htim->Instance,
 8005902:	68c8      	ldr	r0, [r1, #12]
  TIMx->CCER &= ~TIM_CCER_CC4E;
 8005904:	6215      	str	r5, [r2, #32]
    htim->Instance->CCMR2 |= (sConfig->ICPrescaler << 8U);
 8005906:	688d      	ldr	r5, [r1, #8]
  tmpccmr2 = TIMx->CCMR2;
 8005908:	69d1      	ldr	r1, [r2, #28]
  tmpccmr2 &= ~TIM_CCMR2_CC4S;
 800590a:	f421 7140 	bic.w	r1, r1, #768	; 0x300
  tmpccmr2 |= ((TIM_ICFilter << 12U) & TIM_CCMR2_IC4F);
 800590e:	0300      	lsls	r0, r0, #12
  tmpccmr2 |= (TIM_ICSelection << 8U);
 8005910:	ea41 2106 	orr.w	r1, r1, r6, lsl #8
  tmpccmr2 |= ((TIM_ICFilter << 12U) & TIM_CCMR2_IC4F);
 8005914:	b280      	uxth	r0, r0
  tmpccmr2 &= ~TIM_CCMR2_IC4F;
 8005916:	f421 4170 	bic.w	r1, r1, #61440	; 0xf000
  tmpccmr2 |= ((TIM_ICFilter << 12U) & TIM_CCMR2_IC4F);
 800591a:	4301      	orrs	r1, r0
  tmpccer = TIMx->CCER;
 800591c:	6a10      	ldr	r0, [r2, #32]
  TIMx->CCMR2 = tmpccmr2;
 800591e:	61d1      	str	r1, [r2, #28]
  tmpccer &= ~(TIM_CCER_CC4P | TIM_CCER_CC4NP);
 8005920:	f420 4020 	bic.w	r0, r0, #40960	; 0xa000
  tmpccer |= ((TIM_ICPolarity << 12U) & (TIM_CCER_CC4P | TIM_CCER_CC4NP));
 8005924:	4320      	orrs	r0, r4
  TIMx->CCER = tmpccer ;
 8005926:	6210      	str	r0, [r2, #32]
    htim->Instance->CCMR2 &= ~TIM_CCMR2_IC4PSC;
 8005928:	69d4      	ldr	r4, [r2, #28]
 800592a:	f424 6440 	bic.w	r4, r4, #3072	; 0xc00
 800592e:	61d4      	str	r4, [r2, #28]
    htim->Instance->CCMR2 |= (sConfig->ICPrescaler << 8U);
 8005930:	69d1      	ldr	r1, [r2, #28]
 8005932:	ea41 2105 	orr.w	r1, r1, r5, lsl #8
  HAL_StatusTypeDef status = HAL_OK;
 8005936:	2000      	movs	r0, #0
    htim->Instance->CCMR2 |= (sConfig->ICPrescaler << 8U);
 8005938:	61d1      	str	r1, [r2, #28]
 800593a:	e767      	b.n	800580c <HAL_TIM_IC_ConfigChannel+0x24>
    TIM_TI3_SetConfig(htim->Instance,
 800593c:	681a      	ldr	r2, [r3, #0]
 800593e:	e9d1 0400 	ldrd	r0, r4, [r1]
  TIMx->CCER &= ~TIM_CCER_CC3E;
 8005942:	6a16      	ldr	r6, [r2, #32]
  tmpccer |= ((TIM_ICPolarity << 8U) & (TIM_CCER_CC3P | TIM_CCER_CC3NP));
 8005944:	0200      	lsls	r0, r0, #8
  TIMx->CCER &= ~TIM_CCER_CC3E;
 8005946:	f426 7680 	bic.w	r6, r6, #256	; 0x100
  tmpccer |= ((TIM_ICPolarity << 8U) & (TIM_CCER_CC3P | TIM_CCER_CC3NP));
 800594a:	f400 6520 	and.w	r5, r0, #2560	; 0xa00
    TIM_TI3_SetConfig(htim->Instance,
 800594e:	68c8      	ldr	r0, [r1, #12]
  TIMx->CCER &= ~TIM_CCER_CC3E;
 8005950:	6216      	str	r6, [r2, #32]
    htim->Instance->CCMR2 |= sConfig->ICPrescaler;
 8005952:	688e      	ldr	r6, [r1, #8]
  tmpccmr2 = TIMx->CCMR2;
 8005954:	69d1      	ldr	r1, [r2, #28]
  tmpccmr2 &= ~TIM_CCMR2_CC3S;
 8005956:	f021 0103 	bic.w	r1, r1, #3
  tmpccmr2 |= TIM_ICSelection;
 800595a:	4321      	orrs	r1, r4
  tmpccmr2 |= ((TIM_ICFilter << 4U) & TIM_CCMR2_IC3F);
 800595c:	0100      	lsls	r0, r0, #4
 800595e:	b2c0      	uxtb	r0, r0
  tmpccmr2 &= ~TIM_CCMR2_IC3F;
 8005960:	f021 01f0 	bic.w	r1, r1, #240	; 0xf0
  tmpccmr2 |= ((TIM_ICFilter << 4U) & TIM_CCMR2_IC3F);
 8005964:	4301      	orrs	r1, r0
  tmpccer = TIMx->CCER;
 8005966:	6a10      	ldr	r0, [r2, #32]
  TIMx->CCMR2 = tmpccmr2;
 8005968:	61d1      	str	r1, [r2, #28]
  tmpccer &= ~(TIM_CCER_CC3P | TIM_CCER_CC3NP);
 800596a:	f420 6020 	bic.w	r0, r0, #2560	; 0xa00
  tmpccer |= ((TIM_ICPolarity << 8U) & (TIM_CCER_CC3P | TIM_CCER_CC3NP));
 800596e:	4328      	orrs	r0, r5
  TIMx->CCER = tmpccer;
 8005970:	6210      	str	r0, [r2, #32]
    htim->Instance->CCMR2 &= ~TIM_CCMR2_IC3PSC;
 8005972:	69d4      	ldr	r4, [r2, #28]
 8005974:	f024 040c 	bic.w	r4, r4, #12
 8005978:	61d4      	str	r4, [r2, #28]
    htim->Instance->CCMR2 |= sConfig->ICPrescaler;
 800597a:	69d1      	ldr	r1, [r2, #28]
 800597c:	4331      	orrs	r1, r6
 800597e:	61d1      	str	r1, [r2, #28]
  __HAL_UNLOCK(htim);
 8005980:	2200      	movs	r2, #0
 8005982:	f883 203c 	strb.w	r2, [r3, #60]	; 0x3c
  HAL_StatusTypeDef status = HAL_OK;
 8005986:	2000      	movs	r0, #0
}
 8005988:	bcf0      	pop	{r4, r5, r6, r7}
 800598a:	4770      	bx	lr
  __HAL_LOCK(htim);
 800598c:	2002      	movs	r0, #2
}
 800598e:	4770      	bx	lr
 8005990:	40010000 	.word	0x40010000

08005994 <HAL_TIM_PWM_ConfigChannel>:
  __HAL_LOCK(htim);
 8005994:	f890 303c 	ldrb.w	r3, [r0, #60]	; 0x3c
 8005998:	2b01      	cmp	r3, #1
 800599a:	f000 80ca 	beq.w	8005b32 <HAL_TIM_PWM_ConfigChannel+0x19e>
 800599e:	2301      	movs	r3, #1
{
 80059a0:	b4f0      	push	{r4, r5, r6, r7}
  __HAL_LOCK(htim);
 80059a2:	f880 303c 	strb.w	r3, [r0, #60]	; 0x3c
  switch (Channel)
 80059a6:	2a0c      	cmp	r2, #12
 80059a8:	d808      	bhi.n	80059bc <HAL_TIM_PWM_ConfigChannel+0x28>
 80059aa:	e8df f002 	tbb	[pc, r2]
 80059ae:	073d      	.short	0x073d
 80059b0:	07680707 	.word	0x07680707
 80059b4:	07960707 	.word	0x07960707
 80059b8:	0707      	.short	0x0707
 80059ba:	0e          	.byte	0x0e
 80059bb:	00          	.byte	0x00
  __HAL_UNLOCK(htim);
 80059bc:	2300      	movs	r3, #0
 80059be:	f880 303c 	strb.w	r3, [r0, #60]	; 0x3c
  switch (Channel)
 80059c2:	2201      	movs	r2, #1
}
 80059c4:	4610      	mov	r0, r2
 80059c6:	bcf0      	pop	{r4, r5, r6, r7}
 80059c8:	4770      	bx	lr
      TIM_OC4_SetConfig(htim->Instance, sConfig);
 80059ca:	6803      	ldr	r3, [r0, #0]
  tmpccmrx |= (OC_Config->OCMode << 8U);
 80059cc:	680e      	ldr	r6, [r1, #0]
  TIMx->CCER &= ~TIM_CCER_CC4E;
 80059ce:	6a1a      	ldr	r2, [r3, #32]
 80059d0:	f422 5280 	bic.w	r2, r2, #4096	; 0x1000
 80059d4:	621a      	str	r2, [r3, #32]
  tmpccer = TIMx->CCER;
 80059d6:	6a1a      	ldr	r2, [r3, #32]
  tmpcr2 =  TIMx->CR2;
 80059d8:	685d      	ldr	r5, [r3, #4]
  tmpccmrx = TIMx->CCMR2;
 80059da:	69dc      	ldr	r4, [r3, #28]
  tmpccmrx &= ~TIM_CCMR2_CC4S;
 80059dc:	f424 44e6 	bic.w	r4, r4, #29440	; 0x7300
  tmpccmrx |= (OC_Config->OCMode << 8U);
 80059e0:	ea44 2406 	orr.w	r4, r4, r6, lsl #8
  tmpccer |= (OC_Config->OCPolarity << 12U);
 80059e4:	688e      	ldr	r6, [r1, #8]
  tmpccer &= ~TIM_CCER_CC4P;
 80059e6:	f422 5200 	bic.w	r2, r2, #8192	; 0x2000
  tmpccer |= (OC_Config->OCPolarity << 12U);
 80059ea:	ea42 3206 	orr.w	r2, r2, r6, lsl #12
  if (IS_TIM_BREAK_INSTANCE(TIMx))
 80059ee:	4e6b      	ldr	r6, [pc, #428]	; (8005b9c <HAL_TIM_PWM_ConfigChannel+0x208>)
 80059f0:	42b3      	cmp	r3, r6
 80059f2:	f000 80bd 	beq.w	8005b70 <HAL_TIM_PWM_ConfigChannel+0x1dc>
  TIMx->CR2 = tmpcr2;
 80059f6:	605d      	str	r5, [r3, #4]
  TIMx->CCMR2 = tmpccmrx;
 80059f8:	61dc      	str	r4, [r3, #28]
  TIMx->CCR4 = OC_Config->Pulse;
 80059fa:	684c      	ldr	r4, [r1, #4]
 80059fc:	641c      	str	r4, [r3, #64]	; 0x40
  TIMx->CCER = tmpccer;
 80059fe:	621a      	str	r2, [r3, #32]
      htim->Instance->CCMR2 |= TIM_CCMR2_OC4PE;
 8005a00:	69da      	ldr	r2, [r3, #28]
      htim->Instance->CCMR2 |= sConfig->OCFastMode << 8U;
 8005a02:	690d      	ldr	r5, [r1, #16]
      htim->Instance->CCMR2 |= TIM_CCMR2_OC4PE;
 8005a04:	f442 6200 	orr.w	r2, r2, #2048	; 0x800
 8005a08:	61da      	str	r2, [r3, #28]
      htim->Instance->CCMR2 &= ~TIM_CCMR2_OC4FE;
 8005a0a:	69dc      	ldr	r4, [r3, #28]
 8005a0c:	f424 6480 	bic.w	r4, r4, #1024	; 0x400
 8005a10:	61dc      	str	r4, [r3, #28]
      htim->Instance->CCMR2 |= sConfig->OCFastMode << 8U;
 8005a12:	69d9      	ldr	r1, [r3, #28]
 8005a14:	ea41 2105 	orr.w	r1, r1, r5, lsl #8
 8005a18:	61d9      	str	r1, [r3, #28]
  __HAL_UNLOCK(htim);
 8005a1a:	2300      	movs	r3, #0
 8005a1c:	f880 303c 	strb.w	r3, [r0, #60]	; 0x3c
  HAL_StatusTypeDef status = HAL_OK;
 8005a20:	2200      	movs	r2, #0
}
 8005a22:	4610      	mov	r0, r2
 8005a24:	bcf0      	pop	{r4, r5, r6, r7}
 8005a26:	4770      	bx	lr
      TIM_OC1_SetConfig(htim->Instance, sConfig);
 8005a28:	6803      	ldr	r3, [r0, #0]
  tmpccmrx |= OC_Config->OCMode;
 8005a2a:	680e      	ldr	r6, [r1, #0]
  TIMx->CCER &= ~TIM_CCER_CC1E;
 8005a2c:	6a1a      	ldr	r2, [r3, #32]
 8005a2e:	f022 0201 	bic.w	r2, r2, #1
 8005a32:	621a      	str	r2, [r3, #32]
  tmpccer = TIMx->CCER;
 8005a34:	6a1a      	ldr	r2, [r3, #32]
  tmpcr2 =  TIMx->CR2;
 8005a36:	685d      	ldr	r5, [r3, #4]
  tmpccmrx = TIMx->CCMR1;
 8005a38:	699c      	ldr	r4, [r3, #24]
  tmpccmrx &= ~TIM_CCMR1_CC1S;
 8005a3a:	f024 0473 	bic.w	r4, r4, #115	; 0x73
  tmpccmrx |= OC_Config->OCMode;
 8005a3e:	4334      	orrs	r4, r6
  tmpccer |= OC_Config->OCPolarity;
 8005a40:	688e      	ldr	r6, [r1, #8]
  tmpccer &= ~TIM_CCER_CC1P;
 8005a42:	f022 0202 	bic.w	r2, r2, #2
  tmpccer |= OC_Config->OCPolarity;
 8005a46:	4332      	orrs	r2, r6
  if (IS_TIM_CCXN_INSTANCE(TIMx, TIM_CHANNEL_1))
 8005a48:	4e54      	ldr	r6, [pc, #336]	; (8005b9c <HAL_TIM_PWM_ConfigChannel+0x208>)
 8005a4a:	42b3      	cmp	r3, r6
 8005a4c:	d074      	beq.n	8005b38 <HAL_TIM_PWM_ConfigChannel+0x1a4>
  TIMx->CR2 = tmpcr2;
 8005a4e:	605d      	str	r5, [r3, #4]
  TIMx->CCMR1 = tmpccmrx;
 8005a50:	619c      	str	r4, [r3, #24]
  TIMx->CCR1 = OC_Config->Pulse;
 8005a52:	684c      	ldr	r4, [r1, #4]
 8005a54:	635c      	str	r4, [r3, #52]	; 0x34
  TIMx->CCER = tmpccer;
 8005a56:	621a      	str	r2, [r3, #32]
      htim->Instance->CCMR1 |= TIM_CCMR1_OC1PE;
 8005a58:	699a      	ldr	r2, [r3, #24]
      htim->Instance->CCMR1 |= sConfig->OCFastMode;
 8005a5a:	690d      	ldr	r5, [r1, #16]
      htim->Instance->CCMR1 |= TIM_CCMR1_OC1PE;
 8005a5c:	f042 0208 	orr.w	r2, r2, #8
 8005a60:	619a      	str	r2, [r3, #24]
      htim->Instance->CCMR1 &= ~TIM_CCMR1_OC1FE;
 8005a62:	699c      	ldr	r4, [r3, #24]
 8005a64:	f024 0404 	bic.w	r4, r4, #4
 8005a68:	619c      	str	r4, [r3, #24]
      htim->Instance->CCMR1 |= sConfig->OCFastMode;
 8005a6a:	6999      	ldr	r1, [r3, #24]
 8005a6c:	4329      	orrs	r1, r5
 8005a6e:	6199      	str	r1, [r3, #24]
  __HAL_UNLOCK(htim);
 8005a70:	2300      	movs	r3, #0
 8005a72:	f880 303c 	strb.w	r3, [r0, #60]	; 0x3c
  HAL_StatusTypeDef status = HAL_OK;
 8005a76:	2200      	movs	r2, #0
}
 8005a78:	4610      	mov	r0, r2
 8005a7a:	bcf0      	pop	{r4, r5, r6, r7}
 8005a7c:	4770      	bx	lr
      TIM_OC2_SetConfig(htim->Instance, sConfig);
 8005a7e:	6803      	ldr	r3, [r0, #0]
  tmpccmrx |= (OC_Config->OCMode << 8U);
 8005a80:	680e      	ldr	r6, [r1, #0]
  TIMx->CCER &= ~TIM_CCER_CC2E;
 8005a82:	6a1a      	ldr	r2, [r3, #32]
 8005a84:	f022 0210 	bic.w	r2, r2, #16
 8005a88:	621a      	str	r2, [r3, #32]
  tmpccer = TIMx->CCER;
 8005a8a:	6a1a      	ldr	r2, [r3, #32]
  tmpcr2 =  TIMx->CR2;
 8005a8c:	685d      	ldr	r5, [r3, #4]
  tmpccmrx = TIMx->CCMR1;
 8005a8e:	699c      	ldr	r4, [r3, #24]
  tmpccmrx &= ~TIM_CCMR1_CC2S;
 8005a90:	f424 44e6 	bic.w	r4, r4, #29440	; 0x7300
  tmpccmrx |= (OC_Config->OCMode << 8U);
 8005a94:	ea44 2406 	orr.w	r4, r4, r6, lsl #8
  tmpccer |= (OC_Config->OCPolarity << 4U);
 8005a98:	688e      	ldr	r6, [r1, #8]
  tmpccer &= ~TIM_CCER_CC2P;
 8005a9a:	f022 0220 	bic.w	r2, r2, #32
  tmpccer |= (OC_Config->OCPolarity << 4U);
 8005a9e:	ea42 1206 	orr.w	r2, r2, r6, lsl #4
  if (IS_TIM_CCXN_INSTANCE(TIMx, TIM_CHANNEL_2))
 8005aa2:	4e3e      	ldr	r6, [pc, #248]	; (8005b9c <HAL_TIM_PWM_ConfigChannel+0x208>)
 8005aa4:	42b3      	cmp	r3, r6
 8005aa6:	d054      	beq.n	8005b52 <HAL_TIM_PWM_ConfigChannel+0x1be>
  TIMx->CR2 = tmpcr2;
 8005aa8:	605d      	str	r5, [r3, #4]
  TIMx->CCMR1 = tmpccmrx;
 8005aaa:	619c      	str	r4, [r3, #24]
  TIMx->CCR2 = OC_Config->Pulse;
 8005aac:	684c      	ldr	r4, [r1, #4]
 8005aae:	639c      	str	r4, [r3, #56]	; 0x38
  TIMx->CCER = tmpccer;
 8005ab0:	621a      	str	r2, [r3, #32]
      htim->Instance->CCMR1 |= TIM_CCMR1_OC2PE;
 8005ab2:	699a      	ldr	r2, [r3, #24]
      htim->Instance->CCMR1 |= sConfig->OCFastMode << 8U;
 8005ab4:	690d      	ldr	r5, [r1, #16]
      htim->Instance->CCMR1 |= TIM_CCMR1_OC2PE;
 8005ab6:	f442 6200 	orr.w	r2, r2, #2048	; 0x800
 8005aba:	619a      	str	r2, [r3, #24]
      htim->Instance->CCMR1 &= ~TIM_CCMR1_OC2FE;
 8005abc:	699c      	ldr	r4, [r3, #24]
 8005abe:	f424 6480 	bic.w	r4, r4, #1024	; 0x400
 8005ac2:	619c      	str	r4, [r3, #24]
      htim->Instance->CCMR1 |= sConfig->OCFastMode << 8U;
 8005ac4:	6999      	ldr	r1, [r3, #24]
 8005ac6:	ea41 2105 	orr.w	r1, r1, r5, lsl #8
 8005aca:	6199      	str	r1, [r3, #24]
  __HAL_UNLOCK(htim);
 8005acc:	2300      	movs	r3, #0
 8005ace:	f880 303c 	strb.w	r3, [r0, #60]	; 0x3c
  HAL_StatusTypeDef status = HAL_OK;
 8005ad2:	2200      	movs	r2, #0
}
 8005ad4:	4610      	mov	r0, r2
 8005ad6:	bcf0      	pop	{r4, r5, r6, r7}
 8005ad8:	4770      	bx	lr
      TIM_OC3_SetConfig(htim->Instance, sConfig);
 8005ada:	6803      	ldr	r3, [r0, #0]
  tmpccmrx |= OC_Config->OCMode;
 8005adc:	680e      	ldr	r6, [r1, #0]
  TIMx->CCER &= ~TIM_CCER_CC3E;
 8005ade:	6a1a      	ldr	r2, [r3, #32]
 8005ae0:	f422 7280 	bic.w	r2, r2, #256	; 0x100
 8005ae4:	621a      	str	r2, [r3, #32]
  tmpccer = TIMx->CCER;
 8005ae6:	6a1a      	ldr	r2, [r3, #32]
  tmpcr2 =  TIMx->CR2;
 8005ae8:	685d      	ldr	r5, [r3, #4]
  tmpccmrx = TIMx->CCMR2;
 8005aea:	69dc      	ldr	r4, [r3, #28]
  tmpccmrx &= ~TIM_CCMR2_CC3S;
 8005aec:	f024 0473 	bic.w	r4, r4, #115	; 0x73
  tmpccmrx |= OC_Config->OCMode;
 8005af0:	4334      	orrs	r4, r6
  tmpccer |= (OC_Config->OCPolarity << 8U);
 8005af2:	688e      	ldr	r6, [r1, #8]
  tmpccer &= ~TIM_CCER_CC3P;
 8005af4:	f422 7200 	bic.w	r2, r2, #512	; 0x200
  tmpccer |= (OC_Config->OCPolarity << 8U);
 8005af8:	ea42 2206 	orr.w	r2, r2, r6, lsl #8
  if (IS_TIM_CCXN_INSTANCE(TIMx, TIM_CHANNEL_3))
 8005afc:	4e27      	ldr	r6, [pc, #156]	; (8005b9c <HAL_TIM_PWM_ConfigChannel+0x208>)
 8005afe:	42b3      	cmp	r3, r6
 8005b00:	d03c      	beq.n	8005b7c <HAL_TIM_PWM_ConfigChannel+0x1e8>
  TIMx->CR2 = tmpcr2;
 8005b02:	605d      	str	r5, [r3, #4]
  TIMx->CCMR2 = tmpccmrx;
 8005b04:	61dc      	str	r4, [r3, #28]
  TIMx->CCR3 = OC_Config->Pulse;
 8005b06:	684c      	ldr	r4, [r1, #4]
 8005b08:	63dc      	str	r4, [r3, #60]	; 0x3c
  TIMx->CCER = tmpccer;
 8005b0a:	621a      	str	r2, [r3, #32]
      htim->Instance->CCMR2 |= TIM_CCMR2_OC3PE;
 8005b0c:	69da      	ldr	r2, [r3, #28]
      htim->Instance->CCMR2 |= sConfig->OCFastMode;
 8005b0e:	690d      	ldr	r5, [r1, #16]
      htim->Instance->CCMR2 |= TIM_CCMR2_OC3PE;
 8005b10:	f042 0208 	orr.w	r2, r2, #8
 8005b14:	61da      	str	r2, [r3, #28]
      htim->Instance->CCMR2 &= ~TIM_CCMR2_OC3FE;
 8005b16:	69dc      	ldr	r4, [r3, #28]
 8005b18:	f024 0404 	bic.w	r4, r4, #4
 8005b1c:	61dc      	str	r4, [r3, #28]
      htim->Instance->CCMR2 |= sConfig->OCFastMode;
 8005b1e:	69d9      	ldr	r1, [r3, #28]
 8005b20:	4329      	orrs	r1, r5
 8005b22:	61d9      	str	r1, [r3, #28]
  __HAL_UNLOCK(htim);
 8005b24:	2300      	movs	r3, #0
 8005b26:	f880 303c 	strb.w	r3, [r0, #60]	; 0x3c
  HAL_StatusTypeDef status = HAL_OK;
 8005b2a:	2200      	movs	r2, #0
}
 8005b2c:	4610      	mov	r0, r2
 8005b2e:	bcf0      	pop	{r4, r5, r6, r7}
 8005b30:	4770      	bx	lr
  __HAL_LOCK(htim);
 8005b32:	2202      	movs	r2, #2
}
 8005b34:	4610      	mov	r0, r2
 8005b36:	4770      	bx	lr
    tmpccer |= OC_Config->OCNPolarity;
 8005b38:	68ce      	ldr	r6, [r1, #12]
    tmpccer &= ~TIM_CCER_CC1NP;
 8005b3a:	f022 0208 	bic.w	r2, r2, #8
    tmpccer |= OC_Config->OCNPolarity;
 8005b3e:	4332      	orrs	r2, r6
    tmpcr2 |= OC_Config->OCNIdleState;
 8005b40:	e9d1 6705 	ldrd	r6, r7, [r1, #20]
    tmpcr2 &= ~TIM_CR2_OIS1N;
 8005b44:	f425 7540 	bic.w	r5, r5, #768	; 0x300
    tmpcr2 |= OC_Config->OCNIdleState;
 8005b48:	433e      	orrs	r6, r7
    tmpccer &= ~TIM_CCER_CC1NE;
 8005b4a:	f022 0204 	bic.w	r2, r2, #4
    tmpcr2 |= OC_Config->OCNIdleState;
 8005b4e:	4335      	orrs	r5, r6
 8005b50:	e77d      	b.n	8005a4e <HAL_TIM_PWM_ConfigChannel+0xba>
    tmpccer |= (OC_Config->OCNPolarity << 4U);
 8005b52:	68ce      	ldr	r6, [r1, #12]
    tmpccer &= ~TIM_CCER_CC2NP;
 8005b54:	f022 0280 	bic.w	r2, r2, #128	; 0x80
    tmpccer |= (OC_Config->OCNPolarity << 4U);
 8005b58:	ea42 1206 	orr.w	r2, r2, r6, lsl #4
    tmpcr2 |= (OC_Config->OCNIdleState << 2U);
 8005b5c:	e9d1 6705 	ldrd	r6, r7, [r1, #20]
    tmpcr2 &= ~TIM_CR2_OIS2N;
 8005b60:	f425 6540 	bic.w	r5, r5, #3072	; 0xc00
    tmpcr2 |= (OC_Config->OCNIdleState << 2U);
 8005b64:	433e      	orrs	r6, r7
    tmpccer &= ~TIM_CCER_CC2NE;
 8005b66:	f022 0240 	bic.w	r2, r2, #64	; 0x40
    tmpcr2 |= (OC_Config->OCNIdleState << 2U);
 8005b6a:	ea45 0586 	orr.w	r5, r5, r6, lsl #2
 8005b6e:	e79b      	b.n	8005aa8 <HAL_TIM_PWM_ConfigChannel+0x114>
    tmpcr2 |= (OC_Config->OCIdleState << 6U);
 8005b70:	694e      	ldr	r6, [r1, #20]
    tmpcr2 &= ~TIM_CR2_OIS4;
 8005b72:	f425 4580 	bic.w	r5, r5, #16384	; 0x4000
    tmpcr2 |= (OC_Config->OCIdleState << 6U);
 8005b76:	ea45 1586 	orr.w	r5, r5, r6, lsl #6
 8005b7a:	e73c      	b.n	80059f6 <HAL_TIM_PWM_ConfigChannel+0x62>
    tmpccer |= (OC_Config->OCNPolarity << 8U);
 8005b7c:	68ce      	ldr	r6, [r1, #12]
    tmpccer &= ~TIM_CCER_CC3NP;
 8005b7e:	f422 6200 	bic.w	r2, r2, #2048	; 0x800
    tmpccer |= (OC_Config->OCNPolarity << 8U);
 8005b82:	ea42 2206 	orr.w	r2, r2, r6, lsl #8
    tmpcr2 |= (OC_Config->OCNIdleState << 4U);
 8005b86:	e9d1 6705 	ldrd	r6, r7, [r1, #20]
    tmpcr2 &= ~TIM_CR2_OIS3N;
 8005b8a:	f425 5540 	bic.w	r5, r5, #12288	; 0x3000
    tmpcr2 |= (OC_Config->OCNIdleState << 4U);
 8005b8e:	433e      	orrs	r6, r7
    tmpccer &= ~TIM_CCER_CC3NE;
 8005b90:	f422 6280 	bic.w	r2, r2, #1024	; 0x400
    tmpcr2 |= (OC_Config->OCNIdleState << 4U);
 8005b94:	ea45 1506 	orr.w	r5, r5, r6, lsl #4
 8005b98:	e7b3      	b.n	8005b02 <HAL_TIM_PWM_ConfigChannel+0x16e>
 8005b9a:	bf00      	nop
 8005b9c:	40010000 	.word	0x40010000

08005ba0 <HAL_TIM_ConfigClockSource>:
  __HAL_LOCK(htim);
 8005ba0:	f890 303c 	ldrb.w	r3, [r0, #60]	; 0x3c
 8005ba4:	2b01      	cmp	r3, #1
 8005ba6:	d075      	beq.n	8005c94 <HAL_TIM_ConfigClockSource+0xf4>
 8005ba8:	4602      	mov	r2, r0
{
 8005baa:	b430      	push	{r4, r5}
  htim->State = HAL_TIM_STATE_BUSY;
 8005bac:	2302      	movs	r3, #2
  tmpsmcr = htim->Instance->SMCR;
 8005bae:	6804      	ldr	r4, [r0, #0]
  htim->State = HAL_TIM_STATE_BUSY;
 8005bb0:	f882 303d 	strb.w	r3, [r2, #61]	; 0x3d
  __HAL_LOCK(htim);
 8005bb4:	2001      	movs	r0, #1
 8005bb6:	f882 003c 	strb.w	r0, [r2, #60]	; 0x3c
  tmpsmcr = htim->Instance->SMCR;
 8005bba:	68a3      	ldr	r3, [r4, #8]
  tmpsmcr &= ~(TIM_SMCR_ETF | TIM_SMCR_ETPS | TIM_SMCR_ECE | TIM_SMCR_ETP);
 8005bbc:	f423 437f 	bic.w	r3, r3, #65280	; 0xff00
 8005bc0:	f023 0377 	bic.w	r3, r3, #119	; 0x77
  htim->Instance->SMCR = tmpsmcr;
 8005bc4:	60a3      	str	r3, [r4, #8]
  switch (sClockSourceConfig->ClockSource)
 8005bc6:	680b      	ldr	r3, [r1, #0]
 8005bc8:	2b60      	cmp	r3, #96	; 0x60
 8005bca:	d065      	beq.n	8005c98 <HAL_TIM_ConfigClockSource+0xf8>
 8005bcc:	d824      	bhi.n	8005c18 <HAL_TIM_ConfigClockSource+0x78>
 8005bce:	2b40      	cmp	r3, #64	; 0x40
 8005bd0:	d07c      	beq.n	8005ccc <HAL_TIM_ConfigClockSource+0x12c>
 8005bd2:	d94b      	bls.n	8005c6c <HAL_TIM_ConfigClockSource+0xcc>
 8005bd4:	2b50      	cmp	r3, #80	; 0x50
 8005bd6:	d117      	bne.n	8005c08 <HAL_TIM_ConfigClockSource+0x68>
      TIM_TI1_ConfigInputStage(htim->Instance,
 8005bd8:	6848      	ldr	r0, [r1, #4]
 8005bda:	68cd      	ldr	r5, [r1, #12]
  tmpccer = TIMx->CCER;
 8005bdc:	6a21      	ldr	r1, [r4, #32]
  TIMx->CCER &= ~TIM_CCER_CC1E;
 8005bde:	6a23      	ldr	r3, [r4, #32]
 8005be0:	f023 0301 	bic.w	r3, r3, #1
 8005be4:	6223      	str	r3, [r4, #32]
  tmpccmr1 = TIMx->CCMR1;
 8005be6:	69a3      	ldr	r3, [r4, #24]
  tmpccer &= ~(TIM_CCER_CC1P | TIM_CCER_CC1NP);
 8005be8:	f021 010a 	bic.w	r1, r1, #10
  tmpccmr1 &= ~TIM_CCMR1_IC1F;
 8005bec:	f023 03f0 	bic.w	r3, r3, #240	; 0xf0
  tmpccer |= TIM_ICPolarity;
 8005bf0:	4301      	orrs	r1, r0
  tmpccmr1 |= (TIM_ICFilter << 4U);
 8005bf2:	ea43 1305 	orr.w	r3, r3, r5, lsl #4
  TIMx->CCMR1 = tmpccmr1;
 8005bf6:	61a3      	str	r3, [r4, #24]
  TIMx->CCER = tmpccer;
 8005bf8:	6221      	str	r1, [r4, #32]
  tmpsmcr = TIMx->SMCR;
 8005bfa:	68a3      	ldr	r3, [r4, #8]
  tmpsmcr &= ~TIM_SMCR_TS;
 8005bfc:	f023 0370 	bic.w	r3, r3, #112	; 0x70
  tmpsmcr |= (InputTriggerSource | TIM_SLAVEMODE_EXTERNAL1);
 8005c00:	f043 0357 	orr.w	r3, r3, #87	; 0x57
  HAL_StatusTypeDef status = HAL_OK;
 8005c04:	2000      	movs	r0, #0
  TIMx->SMCR = tmpsmcr;
 8005c06:	60a3      	str	r3, [r4, #8]
  htim->State = HAL_TIM_STATE_READY;
 8005c08:	2101      	movs	r1, #1
  __HAL_UNLOCK(htim);
 8005c0a:	2300      	movs	r3, #0
  htim->State = HAL_TIM_STATE_READY;
 8005c0c:	f882 103d 	strb.w	r1, [r2, #61]	; 0x3d
  __HAL_UNLOCK(htim);
 8005c10:	f882 303c 	strb.w	r3, [r2, #60]	; 0x3c
}
 8005c14:	bc30      	pop	{r4, r5}
 8005c16:	4770      	bx	lr
  switch (sClockSourceConfig->ClockSource)
 8005c18:	f5b3 5f80 	cmp.w	r3, #4096	; 0x1000
 8005c1c:	d038      	beq.n	8005c90 <HAL_TIM_ConfigClockSource+0xf0>
 8005c1e:	f5b3 5f00 	cmp.w	r3, #8192	; 0x2000
 8005c22:	d110      	bne.n	8005c46 <HAL_TIM_ConfigClockSource+0xa6>
  tmpsmcr |= (uint32_t)(TIM_ExtTRGPrescaler | (TIM_ExtTRGPolarity | (ExtTRGFilter << 8U)));
 8005c24:	e9d1 5301 	ldrd	r5, r3, [r1, #4]
  tmpsmcr = TIMx->SMCR;
 8005c28:	68a0      	ldr	r0, [r4, #8]
  tmpsmcr |= (uint32_t)(TIM_ExtTRGPrescaler | (TIM_ExtTRGPolarity | (ExtTRGFilter << 8U)));
 8005c2a:	432b      	orrs	r3, r5
 8005c2c:	68cd      	ldr	r5, [r1, #12]
  tmpsmcr &= ~(TIM_SMCR_ETF | TIM_SMCR_ETPS | TIM_SMCR_ECE | TIM_SMCR_ETP);
 8005c2e:	f420 417f 	bic.w	r1, r0, #65280	; 0xff00
  tmpsmcr |= (uint32_t)(TIM_ExtTRGPrescaler | (TIM_ExtTRGPolarity | (ExtTRGFilter << 8U)));
 8005c32:	ea43 2305 	orr.w	r3, r3, r5, lsl #8
 8005c36:	430b      	orrs	r3, r1
  TIMx->SMCR = tmpsmcr;
 8005c38:	60a3      	str	r3, [r4, #8]
      htim->Instance->SMCR |= TIM_SMCR_ECE;
 8005c3a:	68a3      	ldr	r3, [r4, #8]
 8005c3c:	f443 4380 	orr.w	r3, r3, #16384	; 0x4000
  HAL_StatusTypeDef status = HAL_OK;
 8005c40:	2000      	movs	r0, #0
      htim->Instance->SMCR |= TIM_SMCR_ECE;
 8005c42:	60a3      	str	r3, [r4, #8]
      break;
 8005c44:	e7e0      	b.n	8005c08 <HAL_TIM_ConfigClockSource+0x68>
  switch (sClockSourceConfig->ClockSource)
 8005c46:	2b70      	cmp	r3, #112	; 0x70
 8005c48:	d1de      	bne.n	8005c08 <HAL_TIM_ConfigClockSource+0x68>
  tmpsmcr |= (uint32_t)(TIM_ExtTRGPrescaler | (TIM_ExtTRGPolarity | (ExtTRGFilter << 8U)));
 8005c4a:	e9d1 5301 	ldrd	r5, r3, [r1, #4]
  tmpsmcr = TIMx->SMCR;
 8005c4e:	68a0      	ldr	r0, [r4, #8]
  tmpsmcr |= (uint32_t)(TIM_ExtTRGPrescaler | (TIM_ExtTRGPolarity | (ExtTRGFilter << 8U)));
 8005c50:	432b      	orrs	r3, r5
 8005c52:	68cd      	ldr	r5, [r1, #12]
  tmpsmcr &= ~(TIM_SMCR_ETF | TIM_SMCR_ETPS | TIM_SMCR_ECE | TIM_SMCR_ETP);
 8005c54:	f420 417f 	bic.w	r1, r0, #65280	; 0xff00
  tmpsmcr |= (uint32_t)(TIM_ExtTRGPrescaler | (TIM_ExtTRGPolarity | (ExtTRGFilter << 8U)));
 8005c58:	ea43 2305 	orr.w	r3, r3, r5, lsl #8
 8005c5c:	430b      	orrs	r3, r1
  TIMx->SMCR = tmpsmcr;
 8005c5e:	60a3      	str	r3, [r4, #8]
      tmpsmcr = htim->Instance->SMCR;
 8005c60:	68a3      	ldr	r3, [r4, #8]
      tmpsmcr |= (TIM_SLAVEMODE_EXTERNAL1 | TIM_CLOCKSOURCE_ETRMODE1);
 8005c62:	f043 0377 	orr.w	r3, r3, #119	; 0x77
  HAL_StatusTypeDef status = HAL_OK;
 8005c66:	2000      	movs	r0, #0
      htim->Instance->SMCR = tmpsmcr;
 8005c68:	60a3      	str	r3, [r4, #8]
      break;
 8005c6a:	e7cd      	b.n	8005c08 <HAL_TIM_ConfigClockSource+0x68>
  switch (sClockSourceConfig->ClockSource)
 8005c6c:	2b20      	cmp	r3, #32
 8005c6e:	d002      	beq.n	8005c76 <HAL_TIM_ConfigClockSource+0xd6>
 8005c70:	d90a      	bls.n	8005c88 <HAL_TIM_ConfigClockSource+0xe8>
 8005c72:	2b30      	cmp	r3, #48	; 0x30
 8005c74:	d1c8      	bne.n	8005c08 <HAL_TIM_ConfigClockSource+0x68>
  tmpsmcr = TIMx->SMCR;
 8005c76:	68a1      	ldr	r1, [r4, #8]
  tmpsmcr &= ~TIM_SMCR_TS;
 8005c78:	f021 0170 	bic.w	r1, r1, #112	; 0x70
  tmpsmcr |= (InputTriggerSource | TIM_SLAVEMODE_EXTERNAL1);
 8005c7c:	430b      	orrs	r3, r1
 8005c7e:	f043 0307 	orr.w	r3, r3, #7
  HAL_StatusTypeDef status = HAL_OK;
 8005c82:	2000      	movs	r0, #0
  TIMx->SMCR = tmpsmcr;
 8005c84:	60a3      	str	r3, [r4, #8]
}
 8005c86:	e7bf      	b.n	8005c08 <HAL_TIM_ConfigClockSource+0x68>
  switch (sClockSourceConfig->ClockSource)
 8005c88:	f033 0110 	bics.w	r1, r3, #16
 8005c8c:	d1bc      	bne.n	8005c08 <HAL_TIM_ConfigClockSource+0x68>
 8005c8e:	e7f2      	b.n	8005c76 <HAL_TIM_ConfigClockSource+0xd6>
  HAL_StatusTypeDef status = HAL_OK;
 8005c90:	2000      	movs	r0, #0
 8005c92:	e7b9      	b.n	8005c08 <HAL_TIM_ConfigClockSource+0x68>
  __HAL_LOCK(htim);
 8005c94:	2002      	movs	r0, #2
}
 8005c96:	4770      	bx	lr
  TIMx->CCER &= ~TIM_CCER_CC2E;
 8005c98:	6a20      	ldr	r0, [r4, #32]
      TIM_TI2_ConfigInputStage(htim->Instance,
 8005c9a:	68cb      	ldr	r3, [r1, #12]
 8005c9c:	684d      	ldr	r5, [r1, #4]
  TIMx->CCER &= ~TIM_CCER_CC2E;
 8005c9e:	f020 0010 	bic.w	r0, r0, #16
 8005ca2:	6220      	str	r0, [r4, #32]
  tmpccmr1 = TIMx->CCMR1;
 8005ca4:	69a1      	ldr	r1, [r4, #24]
  tmpccmr1 &= ~TIM_CCMR1_IC2F;
 8005ca6:	f421 4170 	bic.w	r1, r1, #61440	; 0xf000
  tmpccmr1 |= (TIM_ICFilter << 12U);
 8005caa:	ea41 3103 	orr.w	r1, r1, r3, lsl #12
  tmpccer = TIMx->CCER;
 8005cae:	6a23      	ldr	r3, [r4, #32]
  TIMx->CCMR1 = tmpccmr1 ;
 8005cb0:	61a1      	str	r1, [r4, #24]
  tmpccer &= ~(TIM_CCER_CC2P | TIM_CCER_CC2NP);
 8005cb2:	f023 03a0 	bic.w	r3, r3, #160	; 0xa0
  tmpccer |= (TIM_ICPolarity << 4U);
 8005cb6:	ea43 1305 	orr.w	r3, r3, r5, lsl #4
  TIMx->CCER = tmpccer;
 8005cba:	6223      	str	r3, [r4, #32]
  tmpsmcr = TIMx->SMCR;
 8005cbc:	68a3      	ldr	r3, [r4, #8]
  tmpsmcr &= ~TIM_SMCR_TS;
 8005cbe:	f023 0370 	bic.w	r3, r3, #112	; 0x70
  tmpsmcr |= (InputTriggerSource | TIM_SLAVEMODE_EXTERNAL1);
 8005cc2:	f043 0367 	orr.w	r3, r3, #103	; 0x67
  HAL_StatusTypeDef status = HAL_OK;
 8005cc6:	2000      	movs	r0, #0
  TIMx->SMCR = tmpsmcr;
 8005cc8:	60a3      	str	r3, [r4, #8]
}
 8005cca:	e79d      	b.n	8005c08 <HAL_TIM_ConfigClockSource+0x68>
      TIM_TI1_ConfigInputStage(htim->Instance,
 8005ccc:	6848      	ldr	r0, [r1, #4]
 8005cce:	68cd      	ldr	r5, [r1, #12]
  tmpccer = TIMx->CCER;
 8005cd0:	6a21      	ldr	r1, [r4, #32]
  TIMx->CCER &= ~TIM_CCER_CC1E;
 8005cd2:	6a23      	ldr	r3, [r4, #32]
 8005cd4:	f023 0301 	bic.w	r3, r3, #1
 8005cd8:	6223      	str	r3, [r4, #32]
  tmpccmr1 = TIMx->CCMR1;
 8005cda:	69a3      	ldr	r3, [r4, #24]
  tmpccer &= ~(TIM_CCER_CC1P | TIM_CCER_CC1NP);
 8005cdc:	f021 010a 	bic.w	r1, r1, #10
  tmpccmr1 &= ~TIM_CCMR1_IC1F;
 8005ce0:	f023 03f0 	bic.w	r3, r3, #240	; 0xf0
  tmpccer |= TIM_ICPolarity;
 8005ce4:	4301      	orrs	r1, r0
  tmpccmr1 |= (TIM_ICFilter << 4U);
 8005ce6:	ea43 1305 	orr.w	r3, r3, r5, lsl #4
  TIMx->CCMR1 = tmpccmr1;
 8005cea:	61a3      	str	r3, [r4, #24]
  TIMx->CCER = tmpccer;
 8005cec:	6221      	str	r1, [r4, #32]
  tmpsmcr = TIMx->SMCR;
 8005cee:	68a3      	ldr	r3, [r4, #8]
  tmpsmcr &= ~TIM_SMCR_TS;
 8005cf0:	f023 0370 	bic.w	r3, r3, #112	; 0x70
  tmpsmcr |= (InputTriggerSource | TIM_SLAVEMODE_EXTERNAL1);
 8005cf4:	f043 0347 	orr.w	r3, r3, #71	; 0x47
  HAL_StatusTypeDef status = HAL_OK;
 8005cf8:	2000      	movs	r0, #0
  TIMx->SMCR = tmpsmcr;
 8005cfa:	60a3      	str	r3, [r4, #8]
}
 8005cfc:	e784      	b.n	8005c08 <HAL_TIM_ConfigClockSource+0x68>
 8005cfe:	bf00      	nop

08005d00 <HAL_TIM_OC_DelayElapsedCallback>:
 8005d00:	4770      	bx	lr
 8005d02:	bf00      	nop

08005d04 <HAL_TIM_IC_CaptureCallback>:
 8005d04:	4770      	bx	lr
 8005d06:	bf00      	nop

08005d08 <TIM_DMACaptureCplt>:
{
 8005d08:	b510      	push	{r4, lr}
  TIM_HandleTypeDef *htim = (TIM_HandleTypeDef *)((DMA_HandleTypeDef *)hdma)->Parent;
 8005d0a:	6b84      	ldr	r4, [r0, #56]	; 0x38
  if (hdma == htim->hdma[TIM_DMA_ID_CC1])
 8005d0c:	6a63      	ldr	r3, [r4, #36]	; 0x24
 8005d0e:	4283      	cmp	r3, r0
 8005d10:	d01e      	beq.n	8005d50 <TIM_DMACaptureCplt+0x48>
  else if (hdma == htim->hdma[TIM_DMA_ID_CC2])
 8005d12:	6aa3      	ldr	r3, [r4, #40]	; 0x28
 8005d14:	4283      	cmp	r3, r0
 8005d16:	d00b      	beq.n	8005d30 <TIM_DMACaptureCplt+0x28>
  else if (hdma == htim->hdma[TIM_DMA_ID_CC3])
 8005d18:	6ae3      	ldr	r3, [r4, #44]	; 0x2c
 8005d1a:	4283      	cmp	r3, r0
 8005d1c:	d027      	beq.n	8005d6e <TIM_DMACaptureCplt+0x66>
  else if (hdma == htim->hdma[TIM_DMA_ID_CC4])
 8005d1e:	6b23      	ldr	r3, [r4, #48]	; 0x30
 8005d20:	4283      	cmp	r3, r0
 8005d22:	d02f      	beq.n	8005d84 <TIM_DMACaptureCplt+0x7c>
  HAL_TIM_IC_CaptureCallback(htim);
 8005d24:	4620      	mov	r0, r4
 8005d26:	f7ff ffed 	bl	8005d04 <HAL_TIM_IC_CaptureCallback>
  htim->Channel = HAL_TIM_ACTIVE_CHANNEL_CLEARED;
 8005d2a:	2300      	movs	r3, #0
 8005d2c:	7723      	strb	r3, [r4, #28]
}
 8005d2e:	bd10      	pop	{r4, pc}
    htim->Channel = HAL_TIM_ACTIVE_CHANNEL_2;
 8005d30:	2202      	movs	r2, #2
 8005d32:	7722      	strb	r2, [r4, #28]
    if (hdma->Init.Mode == DMA_NORMAL)
 8005d34:	69db      	ldr	r3, [r3, #28]
 8005d36:	2b00      	cmp	r3, #0
 8005d38:	d1f4      	bne.n	8005d24 <TIM_DMACaptureCplt+0x1c>
      TIM_CHANNEL_STATE_SET(htim, TIM_CHANNEL_2, HAL_TIM_CHANNEL_STATE_READY);
 8005d3a:	2301      	movs	r3, #1
 8005d3c:	f884 303f 	strb.w	r3, [r4, #63]	; 0x3f
  HAL_TIM_IC_CaptureCallback(htim);
 8005d40:	4620      	mov	r0, r4
      TIM_CHANNEL_N_STATE_SET(htim, TIM_CHANNEL_2, HAL_TIM_CHANNEL_STATE_READY);
 8005d42:	f884 3043 	strb.w	r3, [r4, #67]	; 0x43
  HAL_TIM_IC_CaptureCallback(htim);
 8005d46:	f7ff ffdd 	bl	8005d04 <HAL_TIM_IC_CaptureCallback>
  htim->Channel = HAL_TIM_ACTIVE_CHANNEL_CLEARED;
 8005d4a:	2300      	movs	r3, #0
 8005d4c:	7723      	strb	r3, [r4, #28]
}
 8005d4e:	bd10      	pop	{r4, pc}
    htim->Channel = HAL_TIM_ACTIVE_CHANNEL_1;
 8005d50:	2201      	movs	r2, #1
 8005d52:	7722      	strb	r2, [r4, #28]
    if (hdma->Init.Mode == DMA_NORMAL)
 8005d54:	69db      	ldr	r3, [r3, #28]
 8005d56:	2b00      	cmp	r3, #0
 8005d58:	d1e4      	bne.n	8005d24 <TIM_DMACaptureCplt+0x1c>
      TIM_CHANNEL_STATE_SET(htim, TIM_CHANNEL_1, HAL_TIM_CHANNEL_STATE_READY);
 8005d5a:	f884 203e 	strb.w	r2, [r4, #62]	; 0x3e
  HAL_TIM_IC_CaptureCallback(htim);
 8005d5e:	4620      	mov	r0, r4
      TIM_CHANNEL_N_STATE_SET(htim, TIM_CHANNEL_1, HAL_TIM_CHANNEL_STATE_READY);
 8005d60:	f884 2042 	strb.w	r2, [r4, #66]	; 0x42
  HAL_TIM_IC_CaptureCallback(htim);
 8005d64:	f7ff ffce 	bl	8005d04 <HAL_TIM_IC_CaptureCallback>
  htim->Channel = HAL_TIM_ACTIVE_CHANNEL_CLEARED;
 8005d68:	2300      	movs	r3, #0
 8005d6a:	7723      	strb	r3, [r4, #28]
}
 8005d6c:	bd10      	pop	{r4, pc}
    htim->Channel = HAL_TIM_ACTIVE_CHANNEL_3;
 8005d6e:	2204      	movs	r2, #4
 8005d70:	7722      	strb	r2, [r4, #28]
    if (hdma->Init.Mode == DMA_NORMAL)
 8005d72:	69db      	ldr	r3, [r3, #28]
 8005d74:	2b00      	cmp	r3, #0
 8005d76:	d1d5      	bne.n	8005d24 <TIM_DMACaptureCplt+0x1c>
      TIM_CHANNEL_STATE_SET(htim, TIM_CHANNEL_3, HAL_TIM_CHANNEL_STATE_READY);
 8005d78:	2301      	movs	r3, #1
 8005d7a:	f884 3040 	strb.w	r3, [r4, #64]	; 0x40
      TIM_CHANNEL_N_STATE_SET(htim, TIM_CHANNEL_3, HAL_TIM_CHANNEL_STATE_READY);
 8005d7e:	f884 3044 	strb.w	r3, [r4, #68]	; 0x44
 8005d82:	e7cf      	b.n	8005d24 <TIM_DMACaptureCplt+0x1c>
    htim->Channel = HAL_TIM_ACTIVE_CHANNEL_4;
 8005d84:	2208      	movs	r2, #8
 8005d86:	7722      	strb	r2, [r4, #28]
    if (hdma->Init.Mode == DMA_NORMAL)
 8005d88:	69db      	ldr	r3, [r3, #28]
 8005d8a:	2b00      	cmp	r3, #0
 8005d8c:	d1ca      	bne.n	8005d24 <TIM_DMACaptureCplt+0x1c>
      TIM_CHANNEL_STATE_SET(htim, TIM_CHANNEL_4, HAL_TIM_CHANNEL_STATE_READY);
 8005d8e:	2301      	movs	r3, #1
 8005d90:	f884 3041 	strb.w	r3, [r4, #65]	; 0x41
      TIM_CHANNEL_N_STATE_SET(htim, TIM_CHANNEL_4, HAL_TIM_CHANNEL_STATE_READY);
 8005d94:	f884 3045 	strb.w	r3, [r4, #69]	; 0x45
 8005d98:	e7c4      	b.n	8005d24 <TIM_DMACaptureCplt+0x1c>
 8005d9a:	bf00      	nop

08005d9c <HAL_TIM_IC_CaptureHalfCpltCallback>:
 8005d9c:	4770      	bx	lr
 8005d9e:	bf00      	nop

08005da0 <TIM_DMACaptureHalfCplt>:
{
 8005da0:	b510      	push	{r4, lr}
  TIM_HandleTypeDef *htim = (TIM_HandleTypeDef *)((DMA_HandleTypeDef *)hdma)->Parent;
 8005da2:	6b84      	ldr	r4, [r0, #56]	; 0x38
  if (hdma == htim->hdma[TIM_DMA_ID_CC1])
 8005da4:	6a63      	ldr	r3, [r4, #36]	; 0x24
 8005da6:	4283      	cmp	r3, r0
 8005da8:	d018      	beq.n	8005ddc <TIM_DMACaptureHalfCplt+0x3c>
  else if (hdma == htim->hdma[TIM_DMA_ID_CC2])
 8005daa:	6aa3      	ldr	r3, [r4, #40]	; 0x28
 8005dac:	4283      	cmp	r3, r0
 8005dae:	d00d      	beq.n	8005dcc <TIM_DMACaptureHalfCplt+0x2c>
  else if (hdma == htim->hdma[TIM_DMA_ID_CC3])
 8005db0:	6ae3      	ldr	r3, [r4, #44]	; 0x2c
 8005db2:	4283      	cmp	r3, r0
 8005db4:	d01a      	beq.n	8005dec <TIM_DMACaptureHalfCplt+0x4c>
  else if (hdma == htim->hdma[TIM_DMA_ID_CC4])
 8005db6:	6b23      	ldr	r3, [r4, #48]	; 0x30
 8005db8:	4283      	cmp	r3, r0
    htim->Channel = HAL_TIM_ACTIVE_CHANNEL_4;
 8005dba:	bf04      	itt	eq
 8005dbc:	2308      	moveq	r3, #8
 8005dbe:	7723      	strbeq	r3, [r4, #28]
  HAL_TIM_IC_CaptureHalfCpltCallback(htim);
 8005dc0:	4620      	mov	r0, r4
 8005dc2:	f7ff ffeb 	bl	8005d9c <HAL_TIM_IC_CaptureHalfCpltCallback>
  htim->Channel = HAL_TIM_ACTIVE_CHANNEL_CLEARED;
 8005dc6:	2300      	movs	r3, #0
 8005dc8:	7723      	strb	r3, [r4, #28]
}
 8005dca:	bd10      	pop	{r4, pc}
    htim->Channel = HAL_TIM_ACTIVE_CHANNEL_2;
 8005dcc:	2302      	movs	r3, #2
 8005dce:	7723      	strb	r3, [r4, #28]
  HAL_TIM_IC_CaptureHalfCpltCallback(htim);
 8005dd0:	4620      	mov	r0, r4
 8005dd2:	f7ff ffe3 	bl	8005d9c <HAL_TIM_IC_CaptureHalfCpltCallback>
  htim->Channel = HAL_TIM_ACTIVE_CHANNEL_CLEARED;
 8005dd6:	2300      	movs	r3, #0
 8005dd8:	7723      	strb	r3, [r4, #28]
}
 8005dda:	bd10      	pop	{r4, pc}
    htim->Channel = HAL_TIM_ACTIVE_CHANNEL_1;
 8005ddc:	2301      	movs	r3, #1
 8005dde:	7723      	strb	r3, [r4, #28]
  HAL_TIM_IC_CaptureHalfCpltCallback(htim);
 8005de0:	4620      	mov	r0, r4
 8005de2:	f7ff ffdb 	bl	8005d9c <HAL_TIM_IC_CaptureHalfCpltCallback>
  htim->Channel = HAL_TIM_ACTIVE_CHANNEL_CLEARED;
 8005de6:	2300      	movs	r3, #0
 8005de8:	7723      	strb	r3, [r4, #28]
}
 8005dea:	bd10      	pop	{r4, pc}
    htim->Channel = HAL_TIM_ACTIVE_CHANNEL_3;
 8005dec:	2304      	movs	r3, #4
 8005dee:	7723      	strb	r3, [r4, #28]
  HAL_TIM_IC_CaptureHalfCpltCallback(htim);
 8005df0:	4620      	mov	r0, r4
 8005df2:	f7ff ffd3 	bl	8005d9c <HAL_TIM_IC_CaptureHalfCpltCallback>
  htim->Channel = HAL_TIM_ACTIVE_CHANNEL_CLEARED;
 8005df6:	2300      	movs	r3, #0
 8005df8:	7723      	strb	r3, [r4, #28]
}
 8005dfa:	bd10      	pop	{r4, pc}

08005dfc <HAL_TIM_PWM_PulseFinishedCallback>:
 8005dfc:	4770      	bx	lr
 8005dfe:	bf00      	nop

08005e00 <HAL_TIM_TriggerCallback>:
 8005e00:	4770      	bx	lr
 8005e02:	bf00      	nop

08005e04 <HAL_TIM_IRQHandler>:
  if (__HAL_TIM_GET_FLAG(htim, TIM_FLAG_CC1) != RESET)
 8005e04:	6803      	ldr	r3, [r0, #0]
 8005e06:	691a      	ldr	r2, [r3, #16]
 8005e08:	0791      	lsls	r1, r2, #30
{
 8005e0a:	b510      	push	{r4, lr}
 8005e0c:	4604      	mov	r4, r0
  if (__HAL_TIM_GET_FLAG(htim, TIM_FLAG_CC1) != RESET)
 8005e0e:	d502      	bpl.n	8005e16 <HAL_TIM_IRQHandler+0x12>
    if (__HAL_TIM_GET_IT_SOURCE(htim, TIM_IT_CC1) != RESET)
 8005e10:	68da      	ldr	r2, [r3, #12]
 8005e12:	0792      	lsls	r2, r2, #30
 8005e14:	d45f      	bmi.n	8005ed6 <HAL_TIM_IRQHandler+0xd2>
  if (__HAL_TIM_GET_FLAG(htim, TIM_FLAG_CC2) != RESET)
 8005e16:	691a      	ldr	r2, [r3, #16]
 8005e18:	0750      	lsls	r0, r2, #29
 8005e1a:	d502      	bpl.n	8005e22 <HAL_TIM_IRQHandler+0x1e>
    if (__HAL_TIM_GET_IT_SOURCE(htim, TIM_IT_CC2) != RESET)
 8005e1c:	68da      	ldr	r2, [r3, #12]
 8005e1e:	0751      	lsls	r1, r2, #29
 8005e20:	d446      	bmi.n	8005eb0 <HAL_TIM_IRQHandler+0xac>
  if (__HAL_TIM_GET_FLAG(htim, TIM_FLAG_CC3) != RESET)
 8005e22:	691a      	ldr	r2, [r3, #16]
 8005e24:	0712      	lsls	r2, r2, #28
 8005e26:	d502      	bpl.n	8005e2e <HAL_TIM_IRQHandler+0x2a>
    if (__HAL_TIM_GET_IT_SOURCE(htim, TIM_IT_CC3) != RESET)
 8005e28:	68da      	ldr	r2, [r3, #12]
 8005e2a:	0710      	lsls	r0, r2, #28
 8005e2c:	d42e      	bmi.n	8005e8c <HAL_TIM_IRQHandler+0x88>
  if (__HAL_TIM_GET_FLAG(htim, TIM_FLAG_CC4) != RESET)
 8005e2e:	691a      	ldr	r2, [r3, #16]
 8005e30:	06d2      	lsls	r2, r2, #27
 8005e32:	d502      	bpl.n	8005e3a <HAL_TIM_IRQHandler+0x36>
    if (__HAL_TIM_GET_IT_SOURCE(htim, TIM_IT_CC4) != RESET)
 8005e34:	68da      	ldr	r2, [r3, #12]
 8005e36:	06d0      	lsls	r0, r2, #27
 8005e38:	d418      	bmi.n	8005e6c <HAL_TIM_IRQHandler+0x68>
  if (__HAL_TIM_GET_FLAG(htim, TIM_FLAG_UPDATE) != RESET)
 8005e3a:	691a      	ldr	r2, [r3, #16]
 8005e3c:	07d1      	lsls	r1, r2, #31
 8005e3e:	d502      	bpl.n	8005e46 <HAL_TIM_IRQHandler+0x42>
    if (__HAL_TIM_GET_IT_SOURCE(htim, TIM_IT_UPDATE) != RESET)
 8005e40:	68da      	ldr	r2, [r3, #12]
 8005e42:	07d2      	lsls	r2, r2, #31
 8005e44:	d45d      	bmi.n	8005f02 <HAL_TIM_IRQHandler+0xfe>
  if (__HAL_TIM_GET_FLAG(htim, TIM_FLAG_BREAK) != RESET)
 8005e46:	691a      	ldr	r2, [r3, #16]
 8005e48:	0610      	lsls	r0, r2, #24
 8005e4a:	d502      	bpl.n	8005e52 <HAL_TIM_IRQHandler+0x4e>
    if (__HAL_TIM_GET_IT_SOURCE(htim, TIM_IT_BREAK) != RESET)
 8005e4c:	68da      	ldr	r2, [r3, #12]
 8005e4e:	0611      	lsls	r1, r2, #24
 8005e50:	d45f      	bmi.n	8005f12 <HAL_TIM_IRQHandler+0x10e>
  if (__HAL_TIM_GET_FLAG(htim, TIM_FLAG_TRIGGER) != RESET)
 8005e52:	691a      	ldr	r2, [r3, #16]
 8005e54:	0652      	lsls	r2, r2, #25
 8005e56:	d502      	bpl.n	8005e5e <HAL_TIM_IRQHandler+0x5a>
    if (__HAL_TIM_GET_IT_SOURCE(htim, TIM_IT_TRIGGER) != RESET)
 8005e58:	68da      	ldr	r2, [r3, #12]
 8005e5a:	0650      	lsls	r0, r2, #25
 8005e5c:	d461      	bmi.n	8005f22 <HAL_TIM_IRQHandler+0x11e>
  if (__HAL_TIM_GET_FLAG(htim, TIM_FLAG_COM) != RESET)
 8005e5e:	691a      	ldr	r2, [r3, #16]
 8005e60:	0691      	lsls	r1, r2, #26
 8005e62:	d502      	bpl.n	8005e6a <HAL_TIM_IRQHandler+0x66>
    if (__HAL_TIM_GET_IT_SOURCE(htim, TIM_IT_COM) != RESET)
 8005e64:	68da      	ldr	r2, [r3, #12]
 8005e66:	0692      	lsls	r2, r2, #26
 8005e68:	d443      	bmi.n	8005ef2 <HAL_TIM_IRQHandler+0xee>
}
 8005e6a:	bd10      	pop	{r4, pc}
      __HAL_TIM_CLEAR_IT(htim, TIM_IT_CC4);
 8005e6c:	f06f 0110 	mvn.w	r1, #16
      htim->Channel = HAL_TIM_ACTIVE_CHANNEL_4;
 8005e70:	2208      	movs	r2, #8
      __HAL_TIM_CLEAR_IT(htim, TIM_IT_CC4);
 8005e72:	6119      	str	r1, [r3, #16]
      htim->Channel = HAL_TIM_ACTIVE_CHANNEL_4;
 8005e74:	7722      	strb	r2, [r4, #28]
      if ((htim->Instance->CCMR2 & TIM_CCMR2_CC4S) != 0x00U)
 8005e76:	69db      	ldr	r3, [r3, #28]
 8005e78:	f413 7f40 	tst.w	r3, #768	; 0x300
        HAL_TIM_IC_CaptureCallback(htim);
 8005e7c:	4620      	mov	r0, r4
      if ((htim->Instance->CCMR2 & TIM_CCMR2_CC4S) != 0x00U)
 8005e7e:	d064      	beq.n	8005f4a <HAL_TIM_IRQHandler+0x146>
        HAL_TIM_IC_CaptureCallback(htim);
 8005e80:	f7ff ff40 	bl	8005d04 <HAL_TIM_IC_CaptureCallback>
      htim->Channel = HAL_TIM_ACTIVE_CHANNEL_CLEARED;
 8005e84:	2200      	movs	r2, #0
  if (__HAL_TIM_GET_FLAG(htim, TIM_FLAG_UPDATE) != RESET)
 8005e86:	6823      	ldr	r3, [r4, #0]
      htim->Channel = HAL_TIM_ACTIVE_CHANNEL_CLEARED;
 8005e88:	7722      	strb	r2, [r4, #28]
 8005e8a:	e7d6      	b.n	8005e3a <HAL_TIM_IRQHandler+0x36>
      __HAL_TIM_CLEAR_IT(htim, TIM_IT_CC3);
 8005e8c:	f06f 0108 	mvn.w	r1, #8
      htim->Channel = HAL_TIM_ACTIVE_CHANNEL_3;
 8005e90:	2204      	movs	r2, #4
      __HAL_TIM_CLEAR_IT(htim, TIM_IT_CC3);
 8005e92:	6119      	str	r1, [r3, #16]
      htim->Channel = HAL_TIM_ACTIVE_CHANNEL_3;
 8005e94:	7722      	strb	r2, [r4, #28]
      if ((htim->Instance->CCMR2 & TIM_CCMR2_CC3S) != 0x00U)
 8005e96:	69db      	ldr	r3, [r3, #28]
 8005e98:	0799      	lsls	r1, r3, #30
        HAL_TIM_IC_CaptureCallback(htim);
 8005e9a:	4620      	mov	r0, r4
      if ((htim->Instance->CCMR2 & TIM_CCMR2_CC3S) != 0x00U)
 8005e9c:	d152      	bne.n	8005f44 <HAL_TIM_IRQHandler+0x140>
        HAL_TIM_OC_DelayElapsedCallback(htim);
 8005e9e:	f7ff ff2f 	bl	8005d00 <HAL_TIM_OC_DelayElapsedCallback>
        HAL_TIM_PWM_PulseFinishedCallback(htim);
 8005ea2:	4620      	mov	r0, r4
 8005ea4:	f7ff ffaa 	bl	8005dfc <HAL_TIM_PWM_PulseFinishedCallback>
      htim->Channel = HAL_TIM_ACTIVE_CHANNEL_CLEARED;
 8005ea8:	2200      	movs	r2, #0
  if (__HAL_TIM_GET_FLAG(htim, TIM_FLAG_CC4) != RESET)
 8005eaa:	6823      	ldr	r3, [r4, #0]
      htim->Channel = HAL_TIM_ACTIVE_CHANNEL_CLEARED;
 8005eac:	7722      	strb	r2, [r4, #28]
 8005eae:	e7be      	b.n	8005e2e <HAL_TIM_IRQHandler+0x2a>
      __HAL_TIM_CLEAR_IT(htim, TIM_IT_CC2);
 8005eb0:	f06f 0104 	mvn.w	r1, #4
      htim->Channel = HAL_TIM_ACTIVE_CHANNEL_2;
 8005eb4:	2202      	movs	r2, #2
      __HAL_TIM_CLEAR_IT(htim, TIM_IT_CC2);
 8005eb6:	6119      	str	r1, [r3, #16]
      htim->Channel = HAL_TIM_ACTIVE_CHANNEL_2;
 8005eb8:	7722      	strb	r2, [r4, #28]
      if ((htim->Instance->CCMR1 & TIM_CCMR1_CC2S) != 0x00U)
 8005eba:	699b      	ldr	r3, [r3, #24]
 8005ebc:	f413 7f40 	tst.w	r3, #768	; 0x300
        HAL_TIM_IC_CaptureCallback(htim);
 8005ec0:	4620      	mov	r0, r4
      if ((htim->Instance->CCMR1 & TIM_CCMR1_CC2S) != 0x00U)
 8005ec2:	d13c      	bne.n	8005f3e <HAL_TIM_IRQHandler+0x13a>
        HAL_TIM_OC_DelayElapsedCallback(htim);
 8005ec4:	f7ff ff1c 	bl	8005d00 <HAL_TIM_OC_DelayElapsedCallback>
        HAL_TIM_PWM_PulseFinishedCallback(htim);
 8005ec8:	4620      	mov	r0, r4
 8005eca:	f7ff ff97 	bl	8005dfc <HAL_TIM_PWM_PulseFinishedCallback>
      htim->Channel = HAL_TIM_ACTIVE_CHANNEL_CLEARED;
 8005ece:	2200      	movs	r2, #0
  if (__HAL_TIM_GET_FLAG(htim, TIM_FLAG_CC3) != RESET)
 8005ed0:	6823      	ldr	r3, [r4, #0]
      htim->Channel = HAL_TIM_ACTIVE_CHANNEL_CLEARED;
 8005ed2:	7722      	strb	r2, [r4, #28]
 8005ed4:	e7a5      	b.n	8005e22 <HAL_TIM_IRQHandler+0x1e>
        __HAL_TIM_CLEAR_IT(htim, TIM_IT_CC1);
 8005ed6:	f06f 0102 	mvn.w	r1, #2
        htim->Channel = HAL_TIM_ACTIVE_CHANNEL_1;
 8005eda:	2201      	movs	r2, #1
        __HAL_TIM_CLEAR_IT(htim, TIM_IT_CC1);
 8005edc:	6119      	str	r1, [r3, #16]
        htim->Channel = HAL_TIM_ACTIVE_CHANNEL_1;
 8005ede:	7702      	strb	r2, [r0, #28]
        if ((htim->Instance->CCMR1 & TIM_CCMR1_CC1S) != 0x00U)
 8005ee0:	699b      	ldr	r3, [r3, #24]
 8005ee2:	079b      	lsls	r3, r3, #30
 8005ee4:	d025      	beq.n	8005f32 <HAL_TIM_IRQHandler+0x12e>
          HAL_TIM_IC_CaptureCallback(htim);
 8005ee6:	f7ff ff0d 	bl	8005d04 <HAL_TIM_IC_CaptureCallback>
        htim->Channel = HAL_TIM_ACTIVE_CHANNEL_CLEARED;
 8005eea:	2200      	movs	r2, #0
  if (__HAL_TIM_GET_FLAG(htim, TIM_FLAG_CC2) != RESET)
 8005eec:	6823      	ldr	r3, [r4, #0]
        htim->Channel = HAL_TIM_ACTIVE_CHANNEL_CLEARED;
 8005eee:	7722      	strb	r2, [r4, #28]
 8005ef0:	e791      	b.n	8005e16 <HAL_TIM_IRQHandler+0x12>
      __HAL_TIM_CLEAR_IT(htim, TIM_FLAG_COM);
 8005ef2:	f06f 0220 	mvn.w	r2, #32
      HAL_TIMEx_CommutCallback(htim);
 8005ef6:	4620      	mov	r0, r4
      __HAL_TIM_CLEAR_IT(htim, TIM_FLAG_COM);
 8005ef8:	611a      	str	r2, [r3, #16]
}
 8005efa:	e8bd 4010 	ldmia.w	sp!, {r4, lr}
      HAL_TIMEx_CommutCallback(htim);
 8005efe:	f000 b8a7 	b.w	8006050 <HAL_TIMEx_CommutCallback>
      __HAL_TIM_CLEAR_IT(htim, TIM_IT_UPDATE);
 8005f02:	f06f 0201 	mvn.w	r2, #1
 8005f06:	611a      	str	r2, [r3, #16]
      HAL_TIM_PeriodElapsedCallback(htim);
 8005f08:	4620      	mov	r0, r4
 8005f0a:	f7fb fa4b 	bl	80013a4 <HAL_TIM_PeriodElapsedCallback>
  if (__HAL_TIM_GET_FLAG(htim, TIM_FLAG_BREAK) != RESET)
 8005f0e:	6823      	ldr	r3, [r4, #0]
 8005f10:	e799      	b.n	8005e46 <HAL_TIM_IRQHandler+0x42>
      __HAL_TIM_CLEAR_IT(htim, TIM_IT_BREAK);
 8005f12:	f06f 0280 	mvn.w	r2, #128	; 0x80
 8005f16:	611a      	str	r2, [r3, #16]
      HAL_TIMEx_BreakCallback(htim);
 8005f18:	4620      	mov	r0, r4
 8005f1a:	f000 f89b 	bl	8006054 <HAL_TIMEx_BreakCallback>
  if (__HAL_TIM_GET_FLAG(htim, TIM_FLAG_TRIGGER) != RESET)
 8005f1e:	6823      	ldr	r3, [r4, #0]
 8005f20:	e797      	b.n	8005e52 <HAL_TIM_IRQHandler+0x4e>
      __HAL_TIM_CLEAR_IT(htim, TIM_IT_TRIGGER);
 8005f22:	f06f 0240 	mvn.w	r2, #64	; 0x40
 8005f26:	611a      	str	r2, [r3, #16]
      HAL_TIM_TriggerCallback(htim);
 8005f28:	4620      	mov	r0, r4
 8005f2a:	f7ff ff69 	bl	8005e00 <HAL_TIM_TriggerCallback>
  if (__HAL_TIM_GET_FLAG(htim, TIM_FLAG_COM) != RESET)
 8005f2e:	6823      	ldr	r3, [r4, #0]
 8005f30:	e795      	b.n	8005e5e <HAL_TIM_IRQHandler+0x5a>
          HAL_TIM_OC_DelayElapsedCallback(htim);
 8005f32:	f7ff fee5 	bl	8005d00 <HAL_TIM_OC_DelayElapsedCallback>
          HAL_TIM_PWM_PulseFinishedCallback(htim);
 8005f36:	4620      	mov	r0, r4
 8005f38:	f7ff ff60 	bl	8005dfc <HAL_TIM_PWM_PulseFinishedCallback>
 8005f3c:	e7d5      	b.n	8005eea <HAL_TIM_IRQHandler+0xe6>
        HAL_TIM_IC_CaptureCallback(htim);
 8005f3e:	f7ff fee1 	bl	8005d04 <HAL_TIM_IC_CaptureCallback>
 8005f42:	e7c4      	b.n	8005ece <HAL_TIM_IRQHandler+0xca>
        HAL_TIM_IC_CaptureCallback(htim);
 8005f44:	f7ff fede 	bl	8005d04 <HAL_TIM_IC_CaptureCallback>
 8005f48:	e7ae      	b.n	8005ea8 <HAL_TIM_IRQHandler+0xa4>
        HAL_TIM_OC_DelayElapsedCallback(htim);
 8005f4a:	f7ff fed9 	bl	8005d00 <HAL_TIM_OC_DelayElapsedCallback>
        HAL_TIM_PWM_PulseFinishedCallback(htim);
 8005f4e:	4620      	mov	r0, r4
 8005f50:	f7ff ff54 	bl	8005dfc <HAL_TIM_PWM_PulseFinishedCallback>
 8005f54:	e796      	b.n	8005e84 <HAL_TIM_IRQHandler+0x80>
 8005f56:	bf00      	nop

08005f58 <HAL_TIM_ErrorCallback>:
 8005f58:	4770      	bx	lr
 8005f5a:	bf00      	nop

08005f5c <TIM_DMAError>:
{
 8005f5c:	b510      	push	{r4, lr}
  TIM_HandleTypeDef *htim = (TIM_HandleTypeDef *)((DMA_HandleTypeDef *)hdma)->Parent;
 8005f5e:	6b84      	ldr	r4, [r0, #56]	; 0x38
  if (hdma == htim->hdma[TIM_DMA_ID_CC1])
 8005f60:	6a63      	ldr	r3, [r4, #36]	; 0x24
 8005f62:	4283      	cmp	r3, r0
 8005f64:	d01c      	beq.n	8005fa0 <TIM_DMAError+0x44>
  else if (hdma == htim->hdma[TIM_DMA_ID_CC2])
 8005f66:	6aa3      	ldr	r3, [r4, #40]	; 0x28
 8005f68:	4283      	cmp	r3, r0
 8005f6a:	d00e      	beq.n	8005f8a <TIM_DMAError+0x2e>
  else if (hdma == htim->hdma[TIM_DMA_ID_CC3])
 8005f6c:	6ae3      	ldr	r3, [r4, #44]	; 0x2c
 8005f6e:	4283      	cmp	r3, r0
 8005f70:	d020      	beq.n	8005fb4 <TIM_DMAError+0x58>
  else if (hdma == htim->hdma[TIM_DMA_ID_CC4])
 8005f72:	6b23      	ldr	r3, [r4, #48]	; 0x30
 8005f74:	4283      	cmp	r3, r0
 8005f76:	d028      	beq.n	8005fca <TIM_DMAError+0x6e>
    htim->State = HAL_TIM_STATE_READY;
 8005f78:	2301      	movs	r3, #1
 8005f7a:	f884 303d 	strb.w	r3, [r4, #61]	; 0x3d
  HAL_TIM_ErrorCallback(htim);
 8005f7e:	4620      	mov	r0, r4
 8005f80:	f7ff ffea 	bl	8005f58 <HAL_TIM_ErrorCallback>
  htim->Channel = HAL_TIM_ACTIVE_CHANNEL_CLEARED;
 8005f84:	2300      	movs	r3, #0
 8005f86:	7723      	strb	r3, [r4, #28]
}
 8005f88:	bd10      	pop	{r4, pc}
    TIM_CHANNEL_STATE_SET(htim, TIM_CHANNEL_2, HAL_TIM_CHANNEL_STATE_READY);
 8005f8a:	2301      	movs	r3, #1
    htim->Channel = HAL_TIM_ACTIVE_CHANNEL_2;
 8005f8c:	2202      	movs	r2, #2
    TIM_CHANNEL_STATE_SET(htim, TIM_CHANNEL_2, HAL_TIM_CHANNEL_STATE_READY);
 8005f8e:	f884 303f 	strb.w	r3, [r4, #63]	; 0x3f
    htim->Channel = HAL_TIM_ACTIVE_CHANNEL_2;
 8005f92:	7722      	strb	r2, [r4, #28]
  HAL_TIM_ErrorCallback(htim);
 8005f94:	4620      	mov	r0, r4
 8005f96:	f7ff ffdf 	bl	8005f58 <HAL_TIM_ErrorCallback>
  htim->Channel = HAL_TIM_ACTIVE_CHANNEL_CLEARED;
 8005f9a:	2300      	movs	r3, #0
 8005f9c:	7723      	strb	r3, [r4, #28]
}
 8005f9e:	bd10      	pop	{r4, pc}
    htim->Channel = HAL_TIM_ACTIVE_CHANNEL_1;
 8005fa0:	2301      	movs	r3, #1
 8005fa2:	7723      	strb	r3, [r4, #28]
    TIM_CHANNEL_STATE_SET(htim, TIM_CHANNEL_1, HAL_TIM_CHANNEL_STATE_READY);
 8005fa4:	f884 303e 	strb.w	r3, [r4, #62]	; 0x3e
  HAL_TIM_ErrorCallback(htim);
 8005fa8:	4620      	mov	r0, r4
 8005faa:	f7ff ffd5 	bl	8005f58 <HAL_TIM_ErrorCallback>
  htim->Channel = HAL_TIM_ACTIVE_CHANNEL_CLEARED;
 8005fae:	2300      	movs	r3, #0
 8005fb0:	7723      	strb	r3, [r4, #28]
}
 8005fb2:	bd10      	pop	{r4, pc}
    TIM_CHANNEL_STATE_SET(htim, TIM_CHANNEL_3, HAL_TIM_CHANNEL_STATE_READY);
 8005fb4:	2301      	movs	r3, #1
    htim->Channel = HAL_TIM_ACTIVE_CHANNEL_3;
 8005fb6:	2204      	movs	r2, #4
    TIM_CHANNEL_STATE_SET(htim, TIM_CHANNEL_3, HAL_TIM_CHANNEL_STATE_READY);
 8005fb8:	f884 3040 	strb.w	r3, [r4, #64]	; 0x40
    htim->Channel = HAL_TIM_ACTIVE_CHANNEL_3;
 8005fbc:	7722      	strb	r2, [r4, #28]
  HAL_TIM_ErrorCallback(htim);
 8005fbe:	4620      	mov	r0, r4
 8005fc0:	f7ff ffca 	bl	8005f58 <HAL_TIM_ErrorCallback>
  htim->Channel = HAL_TIM_ACTIVE_CHANNEL_CLEARED;
 8005fc4:	2300      	movs	r3, #0
 8005fc6:	7723      	strb	r3, [r4, #28]
}
 8005fc8:	bd10      	pop	{r4, pc}
    TIM_CHANNEL_STATE_SET(htim, TIM_CHANNEL_4, HAL_TIM_CHANNEL_STATE_READY);
 8005fca:	2301      	movs	r3, #1
    htim->Channel = HAL_TIM_ACTIVE_CHANNEL_4;
 8005fcc:	2208      	movs	r2, #8
    TIM_CHANNEL_STATE_SET(htim, TIM_CHANNEL_4, HAL_TIM_CHANNEL_STATE_READY);
 8005fce:	f884 3041 	strb.w	r3, [r4, #65]	; 0x41
    htim->Channel = HAL_TIM_ACTIVE_CHANNEL_4;
 8005fd2:	7722      	strb	r2, [r4, #28]
  HAL_TIM_ErrorCallback(htim);
 8005fd4:	4620      	mov	r0, r4
 8005fd6:	f7ff ffbf 	bl	8005f58 <HAL_TIM_ErrorCallback>
  htim->Channel = HAL_TIM_ACTIVE_CHANNEL_CLEARED;
 8005fda:	2300      	movs	r3, #0
 8005fdc:	7723      	strb	r3, [r4, #28]
}
 8005fde:	bd10      	pop	{r4, pc}

08005fe0 <HAL_TIMEx_MasterConfigSynchronization>:
  assert_param(IS_TIM_MASTER_INSTANCE(htim->Instance));
  assert_param(IS_TIM_TRGO_SOURCE(sMasterConfig->MasterOutputTrigger));
  assert_param(IS_TIM_MSM_STATE(sMasterConfig->MasterSlaveMode));

  /* Check input state */
  __HAL_LOCK(htim);
 8005fe0:	f890 303c 	ldrb.w	r3, [r0, #60]	; 0x3c
 8005fe4:	2b01      	cmp	r3, #1
 8005fe6:	d02f      	beq.n	8006048 <HAL_TIMEx_MasterConfigSynchronization+0x68>

  /* Change the handler state */
  htim->State = HAL_TIM_STATE_BUSY;

  /* Get the TIMx CR2 register value */
  tmpcr2 = htim->Instance->CR2;
 8005fe8:	6803      	ldr	r3, [r0, #0]
  htim->State = HAL_TIM_STATE_BUSY;
 8005fea:	2202      	movs	r2, #2
{
 8005fec:	b430      	push	{r4, r5}
  htim->State = HAL_TIM_STATE_BUSY;
 8005fee:	f880 203d 	strb.w	r2, [r0, #61]	; 0x3d
  tmpcr2 = htim->Instance->CR2;
 8005ff2:	685a      	ldr	r2, [r3, #4]
  tmpsmcr = htim->Instance->SMCR;

  /* Reset the MMS Bits */
  tmpcr2 &= ~TIM_CR2_MMS;
  /* Select the TRGO source */
  tmpcr2 |=  sMasterConfig->MasterOutputTrigger;
 8005ff4:	680d      	ldr	r5, [r1, #0]
  tmpsmcr = htim->Instance->SMCR;
 8005ff6:	689c      	ldr	r4, [r3, #8]
  tmpcr2 &= ~TIM_CR2_MMS;
 8005ff8:	f022 0270 	bic.w	r2, r2, #112	; 0x70
  tmpcr2 |=  sMasterConfig->MasterOutputTrigger;
 8005ffc:	432a      	orrs	r2, r5

  /* Update TIMx CR2 */
  htim->Instance->CR2 = tmpcr2;
 8005ffe:	605a      	str	r2, [r3, #4]

  if (IS_TIM_SLAVE_INSTANCE(htim->Instance))
 8006000:	4a12      	ldr	r2, [pc, #72]	; (800604c <HAL_TIMEx_MasterConfigSynchronization+0x6c>)
 8006002:	4293      	cmp	r3, r2
 8006004:	d012      	beq.n	800602c <HAL_TIMEx_MasterConfigSynchronization+0x4c>
 8006006:	f1b3 4f80 	cmp.w	r3, #1073741824	; 0x40000000
 800600a:	d00f      	beq.n	800602c <HAL_TIMEx_MasterConfigSynchronization+0x4c>
 800600c:	f5a2 427c 	sub.w	r2, r2, #64512	; 0xfc00
 8006010:	4293      	cmp	r3, r2
 8006012:	d00b      	beq.n	800602c <HAL_TIMEx_MasterConfigSynchronization+0x4c>
 8006014:	f502 6280 	add.w	r2, r2, #1024	; 0x400
 8006018:	4293      	cmp	r3, r2
 800601a:	d007      	beq.n	800602c <HAL_TIMEx_MasterConfigSynchronization+0x4c>
 800601c:	f502 6280 	add.w	r2, r2, #1024	; 0x400
 8006020:	4293      	cmp	r3, r2
 8006022:	d003      	beq.n	800602c <HAL_TIMEx_MasterConfigSynchronization+0x4c>
 8006024:	f502 329a 	add.w	r2, r2, #78848	; 0x13400
 8006028:	4293      	cmp	r3, r2
 800602a:	d104      	bne.n	8006036 <HAL_TIMEx_MasterConfigSynchronization+0x56>
  {
    /* Reset the MSM Bit */
    tmpsmcr &= ~TIM_SMCR_MSM;
    /* Set master mode */
    tmpsmcr |= sMasterConfig->MasterSlaveMode;
 800602c:	684a      	ldr	r2, [r1, #4]
    tmpsmcr &= ~TIM_SMCR_MSM;
 800602e:	f024 0480 	bic.w	r4, r4, #128	; 0x80
    tmpsmcr |= sMasterConfig->MasterSlaveMode;
 8006032:	4314      	orrs	r4, r2

    /* Update TIMx SMCR */
    htim->Instance->SMCR = tmpsmcr;
 8006034:	609c      	str	r4, [r3, #8]
  }

  /* Change the htim state */
  htim->State = HAL_TIM_STATE_READY;

  __HAL_UNLOCK(htim);
 8006036:	2300      	movs	r3, #0
  htim->State = HAL_TIM_STATE_READY;
 8006038:	2201      	movs	r2, #1
 800603a:	f880 203d 	strb.w	r2, [r0, #61]	; 0x3d
  __HAL_UNLOCK(htim);
 800603e:	f880 303c 	strb.w	r3, [r0, #60]	; 0x3c

  return HAL_OK;
}
 8006042:	bc30      	pop	{r4, r5}
  return HAL_OK;
 8006044:	4618      	mov	r0, r3
}
 8006046:	4770      	bx	lr
  __HAL_LOCK(htim);
 8006048:	2002      	movs	r0, #2
}
 800604a:	4770      	bx	lr
 800604c:	40010000 	.word	0x40010000

08006050 <HAL_TIMEx_CommutCallback>:
 8006050:	4770      	bx	lr
 8006052:	bf00      	nop

08006054 <HAL_TIMEx_BreakCallback>:
 8006054:	4770      	bx	lr
 8006056:	bf00      	nop

08006058 <HAL_UART_Init>:
  * @retval HAL status
  */
HAL_StatusTypeDef HAL_UART_Init(UART_HandleTypeDef *huart)
{
  /* Check the UART handle allocation */
  if (huart == NULL)
 8006058:	2800      	cmp	r0, #0
 800605a:	f000 808f 	beq.w	800617c <HAL_UART_Init+0x124>
{
 800605e:	b538      	push	{r3, r4, r5, lr}
    assert_param(IS_UART_INSTANCE(huart->Instance));
  }
  assert_param(IS_UART_WORD_LENGTH(huart->Init.WordLength));
  assert_param(IS_UART_OVERSAMPLING(huart->Init.OverSampling));

  if (huart->gState == HAL_UART_STATE_RESET)
 8006060:	f890 303d 	ldrb.w	r3, [r0, #61]	; 0x3d
 8006064:	4604      	mov	r4, r0
 8006066:	f003 02ff 	and.w	r2, r3, #255	; 0xff
 800606a:	2b00      	cmp	r3, #0
 800606c:	f000 8081 	beq.w	8006172 <HAL_UART_Init+0x11a>
  }

  huart->gState = HAL_UART_STATE_BUSY;

  /* Disable the peripheral */
  __HAL_UART_DISABLE(huart);
 8006070:	6823      	ldr	r3, [r4, #0]
  assert_param(IS_UART_MODE(huart->Init.Mode));

  /*-------------------------- USART CR2 Configuration -----------------------*/
  /* Configure the UART Stop Bits: Set STOP[13:12] bits
     according to huart->Init.StopBits value */
  MODIFY_REG(huart->Instance->CR2, USART_CR2_STOP, huart->Init.StopBits);
 8006072:	68e0      	ldr	r0, [r4, #12]
  huart->gState = HAL_UART_STATE_BUSY;
 8006074:	2224      	movs	r2, #36	; 0x24
 8006076:	f884 203d 	strb.w	r2, [r4, #61]	; 0x3d
  __HAL_UART_DISABLE(huart);
 800607a:	68da      	ldr	r2, [r3, #12]
 800607c:	f422 5200 	bic.w	r2, r2, #8192	; 0x2000
 8006080:	60da      	str	r2, [r3, #12]
  MODIFY_REG(huart->Instance->CR2, USART_CR2_STOP, huart->Init.StopBits);
 8006082:	6919      	ldr	r1, [r3, #16]
     Set the M bits according to huart->Init.WordLength value
     Set PCE and PS bits according to huart->Init.Parity value
     Set TE and RE bits according to huart->Init.Mode value
     Set OVER8 bit according to huart->Init.OverSampling value */

  tmpreg = (uint32_t)huart->Init.WordLength | huart->Init.Parity | huart->Init.Mode | huart->Init.OverSampling;
 8006084:	68a2      	ldr	r2, [r4, #8]
  MODIFY_REG(huart->Instance->CR2, USART_CR2_STOP, huart->Init.StopBits);
 8006086:	f421 5140 	bic.w	r1, r1, #12288	; 0x3000
 800608a:	4301      	orrs	r1, r0
  tmpreg = (uint32_t)huart->Init.WordLength | huart->Init.Parity | huart->Init.Mode | huart->Init.OverSampling;
 800608c:	6920      	ldr	r0, [r4, #16]
  MODIFY_REG(huart->Instance->CR2, USART_CR2_STOP, huart->Init.StopBits);
 800608e:	6119      	str	r1, [r3, #16]
  tmpreg = (uint32_t)huart->Init.WordLength | huart->Init.Parity | huart->Init.Mode | huart->Init.OverSampling;
 8006090:	4302      	orrs	r2, r0
 8006092:	6960      	ldr	r0, [r4, #20]
  MODIFY_REG(huart->Instance->CR1,
 8006094:	68d9      	ldr	r1, [r3, #12]
  tmpreg = (uint32_t)huart->Init.WordLength | huart->Init.Parity | huart->Init.Mode | huart->Init.OverSampling;
 8006096:	4302      	orrs	r2, r0
 8006098:	69e0      	ldr	r0, [r4, #28]
  MODIFY_REG(huart->Instance->CR1,
 800609a:	f421 4116 	bic.w	r1, r1, #38400	; 0x9600
 800609e:	f021 010c 	bic.w	r1, r1, #12
  tmpreg = (uint32_t)huart->Init.WordLength | huart->Init.Parity | huart->Init.Mode | huart->Init.OverSampling;
 80060a2:	4302      	orrs	r2, r0
  MODIFY_REG(huart->Instance->CR1,
 80060a4:	430a      	orrs	r2, r1
 80060a6:	60da      	str	r2, [r3, #12]
             (uint32_t)(USART_CR1_M | USART_CR1_PCE | USART_CR1_PS | USART_CR1_TE | USART_CR1_RE | USART_CR1_OVER8),
             tmpreg);

  /*-------------------------- USART CR3 Configuration -----------------------*/
  /* Configure the UART HFC: Set CTSE and RTSE bits according to huart->Init.HwFlowCtl value */
  MODIFY_REG(huart->Instance->CR3, (USART_CR3_RTSE | USART_CR3_CTSE), huart->Init.HwFlowCtl);
 80060a8:	695a      	ldr	r2, [r3, #20]
 80060aa:	69a0      	ldr	r0, [r4, #24]
    if ((huart->Instance == USART1) || (huart->Instance == USART6) || (huart->Instance == UART9) || (huart->Instance == UART10))
    {
      pclk = HAL_RCC_GetPCLK2Freq();
    }
#elif defined(USART6)
    if ((huart->Instance == USART1) || (huart->Instance == USART6))
 80060ac:	4934      	ldr	r1, [pc, #208]	; (8006180 <HAL_UART_Init+0x128>)
  MODIFY_REG(huart->Instance->CR3, (USART_CR3_RTSE | USART_CR3_CTSE), huart->Init.HwFlowCtl);
 80060ae:	f422 7240 	bic.w	r2, r2, #768	; 0x300
 80060b2:	4302      	orrs	r2, r0
    if ((huart->Instance == USART1) || (huart->Instance == USART6))
 80060b4:	428b      	cmp	r3, r1
  MODIFY_REG(huart->Instance->CR3, (USART_CR3_RTSE | USART_CR3_CTSE), huart->Init.HwFlowCtl);
 80060b6:	615a      	str	r2, [r3, #20]
    if ((huart->Instance == USART1) || (huart->Instance == USART6))
 80060b8:	d035      	beq.n	8006126 <HAL_UART_Init+0xce>
 80060ba:	4a32      	ldr	r2, [pc, #200]	; (8006184 <HAL_UART_Init+0x12c>)
 80060bc:	4293      	cmp	r3, r2
 80060be:	d032      	beq.n	8006126 <HAL_UART_Init+0xce>
      pclk = HAL_RCC_GetPCLK2Freq();
    }
#endif /* USART6 */
    else
    {
      pclk = HAL_RCC_GetPCLK1Freq();
 80060c0:	f7ff f834 	bl	800512c <HAL_RCC_GetPCLK1Freq>
    }
  /*-------------------------- USART BRR Configuration ---------------------*/
  if (huart->Init.OverSampling == UART_OVERSAMPLING_8)
 80060c4:	69e3      	ldr	r3, [r4, #28]
 80060c6:	f5b3 4f00 	cmp.w	r3, #32768	; 0x8000
 80060ca:	d032      	beq.n	8006132 <HAL_UART_Init+0xda>
  {
    huart->Instance->BRR = UART_BRR_SAMPLING8(pclk, huart->Init.BaudRate);
  }
  else
  {
    huart->Instance->BRR = UART_BRR_SAMPLING16(pclk, huart->Init.BaudRate);
 80060cc:	6863      	ldr	r3, [r4, #4]
 80060ce:	2119      	movs	r1, #25
 80060d0:	009a      	lsls	r2, r3, #2
 80060d2:	fba0 0101 	umull	r0, r1, r0, r1
 80060d6:	0f9b      	lsrs	r3, r3, #30
 80060d8:	f7fa fc08 	bl	80008ec <__aeabi_uldivmod>
 80060dc:	492a      	ldr	r1, [pc, #168]	; (8006188 <HAL_UART_Init+0x130>)
 80060de:	fba1 3200 	umull	r3, r2, r1, r0
 80060e2:	0952      	lsrs	r2, r2, #5
 80060e4:	2564      	movs	r5, #100	; 0x64
 80060e6:	fb05 0012 	mls	r0, r5, r2, r0
 80060ea:	0100      	lsls	r0, r0, #4
 80060ec:	3032      	adds	r0, #50	; 0x32
 80060ee:	6823      	ldr	r3, [r4, #0]
 80060f0:	fba1 1000 	umull	r1, r0, r1, r0
 80060f4:	0112      	lsls	r2, r2, #4
 80060f6:	eb02 1050 	add.w	r0, r2, r0, lsr #5
 80060fa:	6098      	str	r0, [r3, #8]
  CLEAR_BIT(huart->Instance->CR2, (USART_CR2_LINEN | USART_CR2_CLKEN));
 80060fc:	691a      	ldr	r2, [r3, #16]
 80060fe:	f422 4290 	bic.w	r2, r2, #18432	; 0x4800
 8006102:	611a      	str	r2, [r3, #16]
  CLEAR_BIT(huart->Instance->CR3, (USART_CR3_SCEN | USART_CR3_HDSEL | USART_CR3_IREN));
 8006104:	695a      	ldr	r2, [r3, #20]
 8006106:	f022 022a 	bic.w	r2, r2, #42	; 0x2a
 800610a:	615a      	str	r2, [r3, #20]
  __HAL_UART_ENABLE(huart);
 800610c:	68da      	ldr	r2, [r3, #12]
  huart->ErrorCode = HAL_UART_ERROR_NONE;
 800610e:	2500      	movs	r5, #0
  huart->gState = HAL_UART_STATE_READY;
 8006110:	2120      	movs	r1, #32
  __HAL_UART_ENABLE(huart);
 8006112:	f442 5200 	orr.w	r2, r2, #8192	; 0x2000
 8006116:	60da      	str	r2, [r3, #12]
  huart->ErrorCode = HAL_UART_ERROR_NONE;
 8006118:	6425      	str	r5, [r4, #64]	; 0x40
  huart->gState = HAL_UART_STATE_READY;
 800611a:	f884 103d 	strb.w	r1, [r4, #61]	; 0x3d
  huart->RxState = HAL_UART_STATE_READY;
 800611e:	f884 103e 	strb.w	r1, [r4, #62]	; 0x3e
  return HAL_OK;
 8006122:	4628      	mov	r0, r5
}
 8006124:	bd38      	pop	{r3, r4, r5, pc}
      pclk = HAL_RCC_GetPCLK2Freq();
 8006126:	f7ff f811 	bl	800514c <HAL_RCC_GetPCLK2Freq>
  if (huart->Init.OverSampling == UART_OVERSAMPLING_8)
 800612a:	69e3      	ldr	r3, [r4, #28]
 800612c:	f5b3 4f00 	cmp.w	r3, #32768	; 0x8000
 8006130:	d1cc      	bne.n	80060cc <HAL_UART_Init+0x74>
    huart->Instance->BRR = UART_BRR_SAMPLING8(pclk, huart->Init.BaudRate);
 8006132:	6862      	ldr	r2, [r4, #4]
 8006134:	2119      	movs	r1, #25
 8006136:	1892      	adds	r2, r2, r2
 8006138:	f04f 0300 	mov.w	r3, #0
 800613c:	415b      	adcs	r3, r3
 800613e:	fba0 0101 	umull	r0, r1, r0, r1
 8006142:	f7fa fbd3 	bl	80008ec <__aeabi_uldivmod>
 8006146:	4b10      	ldr	r3, [pc, #64]	; (8006188 <HAL_UART_Init+0x130>)
 8006148:	fba3 2100 	umull	r2, r1, r3, r0
 800614c:	094d      	lsrs	r5, r1, #5
 800614e:	2264      	movs	r2, #100	; 0x64
 8006150:	fb02 0215 	mls	r2, r2, r5, r0
 8006154:	00d2      	lsls	r2, r2, #3
 8006156:	3232      	adds	r2, #50	; 0x32
 8006158:	fba3 3202 	umull	r3, r2, r3, r2
 800615c:	f3c2 1142 	ubfx	r1, r2, #5, #3
 8006160:	0912      	lsrs	r2, r2, #4
 8006162:	6823      	ldr	r3, [r4, #0]
 8006164:	eb01 1105 	add.w	r1, r1, r5, lsl #4
 8006168:	f402 72f8 	and.w	r2, r2, #496	; 0x1f0
 800616c:	440a      	add	r2, r1
 800616e:	609a      	str	r2, [r3, #8]
 8006170:	e7c4      	b.n	80060fc <HAL_UART_Init+0xa4>
    huart->Lock = HAL_UNLOCKED;
 8006172:	f880 203c 	strb.w	r2, [r0, #60]	; 0x3c
    HAL_UART_MspInit(huart);
 8006176:	f7fc fb7b 	bl	8002870 <HAL_UART_MspInit>
 800617a:	e779      	b.n	8006070 <HAL_UART_Init+0x18>
    return HAL_ERROR;
 800617c:	2001      	movs	r0, #1
}
 800617e:	4770      	bx	lr
 8006180:	40011000 	.word	0x40011000
 8006184:	40011400 	.word	0x40011400
 8006188:	51eb851f 	.word	0x51eb851f

0800618c <__assert_func>:
 800618c:	b51f      	push	{r0, r1, r2, r3, r4, lr}
 800618e:	4614      	mov	r4, r2
 8006190:	461a      	mov	r2, r3
 8006192:	4b09      	ldr	r3, [pc, #36]	; (80061b8 <__assert_func+0x2c>)
 8006194:	681b      	ldr	r3, [r3, #0]
 8006196:	4605      	mov	r5, r0
 8006198:	68d8      	ldr	r0, [r3, #12]
 800619a:	b14c      	cbz	r4, 80061b0 <__assert_func+0x24>
 800619c:	4b07      	ldr	r3, [pc, #28]	; (80061bc <__assert_func+0x30>)
 800619e:	9100      	str	r1, [sp, #0]
 80061a0:	e9cd 3401 	strd	r3, r4, [sp, #4]
 80061a4:	4906      	ldr	r1, [pc, #24]	; (80061c0 <__assert_func+0x34>)
 80061a6:	462b      	mov	r3, r5
 80061a8:	f000 f814 	bl	80061d4 <fiprintf>
 80061ac:	f000 fc18 	bl	80069e0 <abort>
 80061b0:	4b04      	ldr	r3, [pc, #16]	; (80061c4 <__assert_func+0x38>)
 80061b2:	461c      	mov	r4, r3
 80061b4:	e7f3      	b.n	800619e <__assert_func+0x12>
 80061b6:	bf00      	nop
 80061b8:	2000004c 	.word	0x2000004c
 80061bc:	0800776c 	.word	0x0800776c
 80061c0:	08007779 	.word	0x08007779
 80061c4:	080077a7 	.word	0x080077a7

080061c8 <__errno>:
 80061c8:	4b01      	ldr	r3, [pc, #4]	; (80061d0 <__errno+0x8>)
 80061ca:	6818      	ldr	r0, [r3, #0]
 80061cc:	4770      	bx	lr
 80061ce:	bf00      	nop
 80061d0:	2000004c 	.word	0x2000004c

080061d4 <fiprintf>:
 80061d4:	b40e      	push	{r1, r2, r3}
 80061d6:	b503      	push	{r0, r1, lr}
 80061d8:	4601      	mov	r1, r0
 80061da:	ab03      	add	r3, sp, #12
 80061dc:	4805      	ldr	r0, [pc, #20]	; (80061f4 <fiprintf+0x20>)
 80061de:	f853 2b04 	ldr.w	r2, [r3], #4
 80061e2:	6800      	ldr	r0, [r0, #0]
 80061e4:	9301      	str	r3, [sp, #4]
 80061e6:	f000 f877 	bl	80062d8 <_vfiprintf_r>
 80061ea:	b002      	add	sp, #8
 80061ec:	f85d eb04 	ldr.w	lr, [sp], #4
 80061f0:	b003      	add	sp, #12
 80061f2:	4770      	bx	lr
 80061f4:	2000004c 	.word	0x2000004c

080061f8 <__libc_init_array>:
 80061f8:	b570      	push	{r4, r5, r6, lr}
 80061fa:	4d0d      	ldr	r5, [pc, #52]	; (8006230 <__libc_init_array+0x38>)
 80061fc:	4c0d      	ldr	r4, [pc, #52]	; (8006234 <__libc_init_array+0x3c>)
 80061fe:	1b64      	subs	r4, r4, r5
 8006200:	10a4      	asrs	r4, r4, #2
 8006202:	2600      	movs	r6, #0
 8006204:	42a6      	cmp	r6, r4
 8006206:	d109      	bne.n	800621c <__libc_init_array+0x24>
 8006208:	4d0b      	ldr	r5, [pc, #44]	; (8006238 <__libc_init_array+0x40>)
 800620a:	4c0c      	ldr	r4, [pc, #48]	; (800623c <__libc_init_array+0x44>)
 800620c:	f000 fffc 	bl	8007208 <_init>
 8006210:	1b64      	subs	r4, r4, r5
 8006212:	10a4      	asrs	r4, r4, #2
 8006214:	2600      	movs	r6, #0
 8006216:	42a6      	cmp	r6, r4
 8006218:	d105      	bne.n	8006226 <__libc_init_array+0x2e>
 800621a:	bd70      	pop	{r4, r5, r6, pc}
 800621c:	f855 3b04 	ldr.w	r3, [r5], #4
 8006220:	4798      	blx	r3
 8006222:	3601      	adds	r6, #1
 8006224:	e7ee      	b.n	8006204 <__libc_init_array+0xc>
 8006226:	f855 3b04 	ldr.w	r3, [r5], #4
 800622a:	4798      	blx	r3
 800622c:	3601      	adds	r6, #1
 800622e:	e7f2      	b.n	8006216 <__libc_init_array+0x1e>
 8006230:	08007848 	.word	0x08007848
 8006234:	08007848 	.word	0x08007848
 8006238:	08007848 	.word	0x08007848
 800623c:	0800784c 	.word	0x0800784c

08006240 <memmove>:
 8006240:	4288      	cmp	r0, r1
 8006242:	b510      	push	{r4, lr}
 8006244:	eb01 0402 	add.w	r4, r1, r2
 8006248:	d902      	bls.n	8006250 <memmove+0x10>
 800624a:	4284      	cmp	r4, r0
 800624c:	4623      	mov	r3, r4
 800624e:	d807      	bhi.n	8006260 <memmove+0x20>
 8006250:	1e43      	subs	r3, r0, #1
 8006252:	42a1      	cmp	r1, r4
 8006254:	d008      	beq.n	8006268 <memmove+0x28>
 8006256:	f811 2b01 	ldrb.w	r2, [r1], #1
 800625a:	f803 2f01 	strb.w	r2, [r3, #1]!
 800625e:	e7f8      	b.n	8006252 <memmove+0x12>
 8006260:	4402      	add	r2, r0
 8006262:	4601      	mov	r1, r0
 8006264:	428a      	cmp	r2, r1
 8006266:	d100      	bne.n	800626a <memmove+0x2a>
 8006268:	bd10      	pop	{r4, pc}
 800626a:	f813 4d01 	ldrb.w	r4, [r3, #-1]!
 800626e:	f802 4d01 	strb.w	r4, [r2, #-1]!
 8006272:	e7f7      	b.n	8006264 <memmove+0x24>

08006274 <memset>:
 8006274:	4402      	add	r2, r0
 8006276:	4603      	mov	r3, r0
 8006278:	4293      	cmp	r3, r2
 800627a:	d100      	bne.n	800627e <memset+0xa>
 800627c:	4770      	bx	lr
 800627e:	f803 1b01 	strb.w	r1, [r3], #1
 8006282:	e7f9      	b.n	8006278 <memset+0x4>

08006284 <__sfputc_r>:
 8006284:	6893      	ldr	r3, [r2, #8]
 8006286:	3b01      	subs	r3, #1
 8006288:	2b00      	cmp	r3, #0
 800628a:	b410      	push	{r4}
 800628c:	6093      	str	r3, [r2, #8]
 800628e:	da08      	bge.n	80062a2 <__sfputc_r+0x1e>
 8006290:	6994      	ldr	r4, [r2, #24]
 8006292:	42a3      	cmp	r3, r4
 8006294:	db01      	blt.n	800629a <__sfputc_r+0x16>
 8006296:	290a      	cmp	r1, #10
 8006298:	d103      	bne.n	80062a2 <__sfputc_r+0x1e>
 800629a:	f85d 4b04 	ldr.w	r4, [sp], #4
 800629e:	f000 badf 	b.w	8006860 <__swbuf_r>
 80062a2:	6813      	ldr	r3, [r2, #0]
 80062a4:	1c58      	adds	r0, r3, #1
 80062a6:	6010      	str	r0, [r2, #0]
 80062a8:	7019      	strb	r1, [r3, #0]
 80062aa:	4608      	mov	r0, r1
 80062ac:	f85d 4b04 	ldr.w	r4, [sp], #4
 80062b0:	4770      	bx	lr

080062b2 <__sfputs_r>:
 80062b2:	b5f8      	push	{r3, r4, r5, r6, r7, lr}
 80062b4:	4606      	mov	r6, r0
 80062b6:	460f      	mov	r7, r1
 80062b8:	4614      	mov	r4, r2
 80062ba:	18d5      	adds	r5, r2, r3
 80062bc:	42ac      	cmp	r4, r5
 80062be:	d101      	bne.n	80062c4 <__sfputs_r+0x12>
 80062c0:	2000      	movs	r0, #0
 80062c2:	e007      	b.n	80062d4 <__sfputs_r+0x22>
 80062c4:	f814 1b01 	ldrb.w	r1, [r4], #1
 80062c8:	463a      	mov	r2, r7
 80062ca:	4630      	mov	r0, r6
 80062cc:	f7ff ffda 	bl	8006284 <__sfputc_r>
 80062d0:	1c43      	adds	r3, r0, #1
 80062d2:	d1f3      	bne.n	80062bc <__sfputs_r+0xa>
 80062d4:	bdf8      	pop	{r3, r4, r5, r6, r7, pc}
	...

080062d8 <_vfiprintf_r>:
 80062d8:	e92d 4ff0 	stmdb	sp!, {r4, r5, r6, r7, r8, r9, sl, fp, lr}
 80062dc:	460d      	mov	r5, r1
 80062de:	b09d      	sub	sp, #116	; 0x74
 80062e0:	4614      	mov	r4, r2
 80062e2:	4698      	mov	r8, r3
 80062e4:	4606      	mov	r6, r0
 80062e6:	b118      	cbz	r0, 80062f0 <_vfiprintf_r+0x18>
 80062e8:	6983      	ldr	r3, [r0, #24]
 80062ea:	b90b      	cbnz	r3, 80062f0 <_vfiprintf_r+0x18>
 80062ec:	f000 fc9a 	bl	8006c24 <__sinit>
 80062f0:	4b89      	ldr	r3, [pc, #548]	; (8006518 <_vfiprintf_r+0x240>)
 80062f2:	429d      	cmp	r5, r3
 80062f4:	d11b      	bne.n	800632e <_vfiprintf_r+0x56>
 80062f6:	6875      	ldr	r5, [r6, #4]
 80062f8:	6e6b      	ldr	r3, [r5, #100]	; 0x64
 80062fa:	07d9      	lsls	r1, r3, #31
 80062fc:	d405      	bmi.n	800630a <_vfiprintf_r+0x32>
 80062fe:	89ab      	ldrh	r3, [r5, #12]
 8006300:	059a      	lsls	r2, r3, #22
 8006302:	d402      	bmi.n	800630a <_vfiprintf_r+0x32>
 8006304:	6da8      	ldr	r0, [r5, #88]	; 0x58
 8006306:	f000 fd2b 	bl	8006d60 <__retarget_lock_acquire_recursive>
 800630a:	89ab      	ldrh	r3, [r5, #12]
 800630c:	071b      	lsls	r3, r3, #28
 800630e:	d501      	bpl.n	8006314 <_vfiprintf_r+0x3c>
 8006310:	692b      	ldr	r3, [r5, #16]
 8006312:	b9eb      	cbnz	r3, 8006350 <_vfiprintf_r+0x78>
 8006314:	4629      	mov	r1, r5
 8006316:	4630      	mov	r0, r6
 8006318:	f000 faf4 	bl	8006904 <__swsetup_r>
 800631c:	b1c0      	cbz	r0, 8006350 <_vfiprintf_r+0x78>
 800631e:	6e6b      	ldr	r3, [r5, #100]	; 0x64
 8006320:	07dc      	lsls	r4, r3, #31
 8006322:	d50e      	bpl.n	8006342 <_vfiprintf_r+0x6a>
 8006324:	f04f 30ff 	mov.w	r0, #4294967295
 8006328:	b01d      	add	sp, #116	; 0x74
 800632a:	e8bd 8ff0 	ldmia.w	sp!, {r4, r5, r6, r7, r8, r9, sl, fp, pc}
 800632e:	4b7b      	ldr	r3, [pc, #492]	; (800651c <_vfiprintf_r+0x244>)
 8006330:	429d      	cmp	r5, r3
 8006332:	d101      	bne.n	8006338 <_vfiprintf_r+0x60>
 8006334:	68b5      	ldr	r5, [r6, #8]
 8006336:	e7df      	b.n	80062f8 <_vfiprintf_r+0x20>
 8006338:	4b79      	ldr	r3, [pc, #484]	; (8006520 <_vfiprintf_r+0x248>)
 800633a:	429d      	cmp	r5, r3
 800633c:	bf08      	it	eq
 800633e:	68f5      	ldreq	r5, [r6, #12]
 8006340:	e7da      	b.n	80062f8 <_vfiprintf_r+0x20>
 8006342:	89ab      	ldrh	r3, [r5, #12]
 8006344:	0598      	lsls	r0, r3, #22
 8006346:	d4ed      	bmi.n	8006324 <_vfiprintf_r+0x4c>
 8006348:	6da8      	ldr	r0, [r5, #88]	; 0x58
 800634a:	f000 fd0a 	bl	8006d62 <__retarget_lock_release_recursive>
 800634e:	e7e9      	b.n	8006324 <_vfiprintf_r+0x4c>
 8006350:	2300      	movs	r3, #0
 8006352:	9309      	str	r3, [sp, #36]	; 0x24
 8006354:	2320      	movs	r3, #32
 8006356:	f88d 3029 	strb.w	r3, [sp, #41]	; 0x29
 800635a:	f8cd 800c 	str.w	r8, [sp, #12]
 800635e:	2330      	movs	r3, #48	; 0x30
 8006360:	f8df 81c0 	ldr.w	r8, [pc, #448]	; 8006524 <_vfiprintf_r+0x24c>
 8006364:	f88d 302a 	strb.w	r3, [sp, #42]	; 0x2a
 8006368:	f04f 0901 	mov.w	r9, #1
 800636c:	4623      	mov	r3, r4
 800636e:	469a      	mov	sl, r3
 8006370:	f813 2b01 	ldrb.w	r2, [r3], #1
 8006374:	b10a      	cbz	r2, 800637a <_vfiprintf_r+0xa2>
 8006376:	2a25      	cmp	r2, #37	; 0x25
 8006378:	d1f9      	bne.n	800636e <_vfiprintf_r+0x96>
 800637a:	ebba 0b04 	subs.w	fp, sl, r4
 800637e:	d00b      	beq.n	8006398 <_vfiprintf_r+0xc0>
 8006380:	465b      	mov	r3, fp
 8006382:	4622      	mov	r2, r4
 8006384:	4629      	mov	r1, r5
 8006386:	4630      	mov	r0, r6
 8006388:	f7ff ff93 	bl	80062b2 <__sfputs_r>
 800638c:	3001      	adds	r0, #1
 800638e:	f000 80aa 	beq.w	80064e6 <_vfiprintf_r+0x20e>
 8006392:	9a09      	ldr	r2, [sp, #36]	; 0x24
 8006394:	445a      	add	r2, fp
 8006396:	9209      	str	r2, [sp, #36]	; 0x24
 8006398:	f89a 3000 	ldrb.w	r3, [sl]
 800639c:	2b00      	cmp	r3, #0
 800639e:	f000 80a2 	beq.w	80064e6 <_vfiprintf_r+0x20e>
 80063a2:	2300      	movs	r3, #0
 80063a4:	f04f 32ff 	mov.w	r2, #4294967295
 80063a8:	e9cd 2305 	strd	r2, r3, [sp, #20]
 80063ac:	f10a 0a01 	add.w	sl, sl, #1
 80063b0:	9304      	str	r3, [sp, #16]
 80063b2:	9307      	str	r3, [sp, #28]
 80063b4:	f88d 3053 	strb.w	r3, [sp, #83]	; 0x53
 80063b8:	931a      	str	r3, [sp, #104]	; 0x68
 80063ba:	4654      	mov	r4, sl
 80063bc:	2205      	movs	r2, #5
 80063be:	f814 1b01 	ldrb.w	r1, [r4], #1
 80063c2:	4858      	ldr	r0, [pc, #352]	; (8006524 <_vfiprintf_r+0x24c>)
 80063c4:	f7f9 ff0c 	bl	80001e0 <memchr>
 80063c8:	9a04      	ldr	r2, [sp, #16]
 80063ca:	b9d8      	cbnz	r0, 8006404 <_vfiprintf_r+0x12c>
 80063cc:	06d1      	lsls	r1, r2, #27
 80063ce:	bf44      	itt	mi
 80063d0:	2320      	movmi	r3, #32
 80063d2:	f88d 3053 	strbmi.w	r3, [sp, #83]	; 0x53
 80063d6:	0713      	lsls	r3, r2, #28
 80063d8:	bf44      	itt	mi
 80063da:	232b      	movmi	r3, #43	; 0x2b
 80063dc:	f88d 3053 	strbmi.w	r3, [sp, #83]	; 0x53
 80063e0:	f89a 3000 	ldrb.w	r3, [sl]
 80063e4:	2b2a      	cmp	r3, #42	; 0x2a
 80063e6:	d015      	beq.n	8006414 <_vfiprintf_r+0x13c>
 80063e8:	9a07      	ldr	r2, [sp, #28]
 80063ea:	4654      	mov	r4, sl
 80063ec:	2000      	movs	r0, #0
 80063ee:	f04f 0c0a 	mov.w	ip, #10
 80063f2:	4621      	mov	r1, r4
 80063f4:	f811 3b01 	ldrb.w	r3, [r1], #1
 80063f8:	3b30      	subs	r3, #48	; 0x30
 80063fa:	2b09      	cmp	r3, #9
 80063fc:	d94e      	bls.n	800649c <_vfiprintf_r+0x1c4>
 80063fe:	b1b0      	cbz	r0, 800642e <_vfiprintf_r+0x156>
 8006400:	9207      	str	r2, [sp, #28]
 8006402:	e014      	b.n	800642e <_vfiprintf_r+0x156>
 8006404:	eba0 0308 	sub.w	r3, r0, r8
 8006408:	fa09 f303 	lsl.w	r3, r9, r3
 800640c:	4313      	orrs	r3, r2
 800640e:	9304      	str	r3, [sp, #16]
 8006410:	46a2      	mov	sl, r4
 8006412:	e7d2      	b.n	80063ba <_vfiprintf_r+0xe2>
 8006414:	9b03      	ldr	r3, [sp, #12]
 8006416:	1d19      	adds	r1, r3, #4
 8006418:	681b      	ldr	r3, [r3, #0]
 800641a:	9103      	str	r1, [sp, #12]
 800641c:	2b00      	cmp	r3, #0
 800641e:	bfbb      	ittet	lt
 8006420:	425b      	neglt	r3, r3
 8006422:	f042 0202 	orrlt.w	r2, r2, #2
 8006426:	9307      	strge	r3, [sp, #28]
 8006428:	9307      	strlt	r3, [sp, #28]
 800642a:	bfb8      	it	lt
 800642c:	9204      	strlt	r2, [sp, #16]
 800642e:	7823      	ldrb	r3, [r4, #0]
 8006430:	2b2e      	cmp	r3, #46	; 0x2e
 8006432:	d10c      	bne.n	800644e <_vfiprintf_r+0x176>
 8006434:	7863      	ldrb	r3, [r4, #1]
 8006436:	2b2a      	cmp	r3, #42	; 0x2a
 8006438:	d135      	bne.n	80064a6 <_vfiprintf_r+0x1ce>
 800643a:	9b03      	ldr	r3, [sp, #12]
 800643c:	1d1a      	adds	r2, r3, #4
 800643e:	681b      	ldr	r3, [r3, #0]
 8006440:	9203      	str	r2, [sp, #12]
 8006442:	2b00      	cmp	r3, #0
 8006444:	bfb8      	it	lt
 8006446:	f04f 33ff 	movlt.w	r3, #4294967295
 800644a:	3402      	adds	r4, #2
 800644c:	9305      	str	r3, [sp, #20]
 800644e:	f8df a0e4 	ldr.w	sl, [pc, #228]	; 8006534 <_vfiprintf_r+0x25c>
 8006452:	7821      	ldrb	r1, [r4, #0]
 8006454:	2203      	movs	r2, #3
 8006456:	4650      	mov	r0, sl
 8006458:	f7f9 fec2 	bl	80001e0 <memchr>
 800645c:	b140      	cbz	r0, 8006470 <_vfiprintf_r+0x198>
 800645e:	2340      	movs	r3, #64	; 0x40
 8006460:	eba0 000a 	sub.w	r0, r0, sl
 8006464:	fa03 f000 	lsl.w	r0, r3, r0
 8006468:	9b04      	ldr	r3, [sp, #16]
 800646a:	4303      	orrs	r3, r0
 800646c:	3401      	adds	r4, #1
 800646e:	9304      	str	r3, [sp, #16]
 8006470:	f814 1b01 	ldrb.w	r1, [r4], #1
 8006474:	482c      	ldr	r0, [pc, #176]	; (8006528 <_vfiprintf_r+0x250>)
 8006476:	f88d 1028 	strb.w	r1, [sp, #40]	; 0x28
 800647a:	2206      	movs	r2, #6
 800647c:	f7f9 feb0 	bl	80001e0 <memchr>
 8006480:	2800      	cmp	r0, #0
 8006482:	d03f      	beq.n	8006504 <_vfiprintf_r+0x22c>
 8006484:	4b29      	ldr	r3, [pc, #164]	; (800652c <_vfiprintf_r+0x254>)
 8006486:	bb1b      	cbnz	r3, 80064d0 <_vfiprintf_r+0x1f8>
 8006488:	9b03      	ldr	r3, [sp, #12]
 800648a:	3307      	adds	r3, #7
 800648c:	f023 0307 	bic.w	r3, r3, #7
 8006490:	3308      	adds	r3, #8
 8006492:	9303      	str	r3, [sp, #12]
 8006494:	9b09      	ldr	r3, [sp, #36]	; 0x24
 8006496:	443b      	add	r3, r7
 8006498:	9309      	str	r3, [sp, #36]	; 0x24
 800649a:	e767      	b.n	800636c <_vfiprintf_r+0x94>
 800649c:	fb0c 3202 	mla	r2, ip, r2, r3
 80064a0:	460c      	mov	r4, r1
 80064a2:	2001      	movs	r0, #1
 80064a4:	e7a5      	b.n	80063f2 <_vfiprintf_r+0x11a>
 80064a6:	2300      	movs	r3, #0
 80064a8:	3401      	adds	r4, #1
 80064aa:	9305      	str	r3, [sp, #20]
 80064ac:	4619      	mov	r1, r3
 80064ae:	f04f 0c0a 	mov.w	ip, #10
 80064b2:	4620      	mov	r0, r4
 80064b4:	f810 2b01 	ldrb.w	r2, [r0], #1
 80064b8:	3a30      	subs	r2, #48	; 0x30
 80064ba:	2a09      	cmp	r2, #9
 80064bc:	d903      	bls.n	80064c6 <_vfiprintf_r+0x1ee>
 80064be:	2b00      	cmp	r3, #0
 80064c0:	d0c5      	beq.n	800644e <_vfiprintf_r+0x176>
 80064c2:	9105      	str	r1, [sp, #20]
 80064c4:	e7c3      	b.n	800644e <_vfiprintf_r+0x176>
 80064c6:	fb0c 2101 	mla	r1, ip, r1, r2
 80064ca:	4604      	mov	r4, r0
 80064cc:	2301      	movs	r3, #1
 80064ce:	e7f0      	b.n	80064b2 <_vfiprintf_r+0x1da>
 80064d0:	ab03      	add	r3, sp, #12
 80064d2:	9300      	str	r3, [sp, #0]
 80064d4:	462a      	mov	r2, r5
 80064d6:	4b16      	ldr	r3, [pc, #88]	; (8006530 <_vfiprintf_r+0x258>)
 80064d8:	a904      	add	r1, sp, #16
 80064da:	4630      	mov	r0, r6
 80064dc:	f3af 8000 	nop.w
 80064e0:	4607      	mov	r7, r0
 80064e2:	1c78      	adds	r0, r7, #1
 80064e4:	d1d6      	bne.n	8006494 <_vfiprintf_r+0x1bc>
 80064e6:	6e6b      	ldr	r3, [r5, #100]	; 0x64
 80064e8:	07d9      	lsls	r1, r3, #31
 80064ea:	d405      	bmi.n	80064f8 <_vfiprintf_r+0x220>
 80064ec:	89ab      	ldrh	r3, [r5, #12]
 80064ee:	059a      	lsls	r2, r3, #22
 80064f0:	d402      	bmi.n	80064f8 <_vfiprintf_r+0x220>
 80064f2:	6da8      	ldr	r0, [r5, #88]	; 0x58
 80064f4:	f000 fc35 	bl	8006d62 <__retarget_lock_release_recursive>
 80064f8:	89ab      	ldrh	r3, [r5, #12]
 80064fa:	065b      	lsls	r3, r3, #25
 80064fc:	f53f af12 	bmi.w	8006324 <_vfiprintf_r+0x4c>
 8006500:	9809      	ldr	r0, [sp, #36]	; 0x24
 8006502:	e711      	b.n	8006328 <_vfiprintf_r+0x50>
 8006504:	ab03      	add	r3, sp, #12
 8006506:	9300      	str	r3, [sp, #0]
 8006508:	462a      	mov	r2, r5
 800650a:	4b09      	ldr	r3, [pc, #36]	; (8006530 <_vfiprintf_r+0x258>)
 800650c:	a904      	add	r1, sp, #16
 800650e:	4630      	mov	r0, r6
 8006510:	f000 f880 	bl	8006614 <_printf_i>
 8006514:	e7e4      	b.n	80064e0 <_vfiprintf_r+0x208>
 8006516:	bf00      	nop
 8006518:	08007800 	.word	0x08007800
 800651c:	08007820 	.word	0x08007820
 8006520:	080077e0 	.word	0x080077e0
 8006524:	080077ac 	.word	0x080077ac
 8006528:	080077b6 	.word	0x080077b6
 800652c:	00000000 	.word	0x00000000
 8006530:	080062b3 	.word	0x080062b3
 8006534:	080077b2 	.word	0x080077b2

08006538 <_printf_common>:
 8006538:	e92d 47f0 	stmdb	sp!, {r4, r5, r6, r7, r8, r9, sl, lr}
 800653c:	4616      	mov	r6, r2
 800653e:	4699      	mov	r9, r3
 8006540:	688a      	ldr	r2, [r1, #8]
 8006542:	690b      	ldr	r3, [r1, #16]
 8006544:	f8dd 8020 	ldr.w	r8, [sp, #32]
 8006548:	4293      	cmp	r3, r2
 800654a:	bfb8      	it	lt
 800654c:	4613      	movlt	r3, r2
 800654e:	6033      	str	r3, [r6, #0]
 8006550:	f891 2043 	ldrb.w	r2, [r1, #67]	; 0x43
 8006554:	4607      	mov	r7, r0
 8006556:	460c      	mov	r4, r1
 8006558:	b10a      	cbz	r2, 800655e <_printf_common+0x26>
 800655a:	3301      	adds	r3, #1
 800655c:	6033      	str	r3, [r6, #0]
 800655e:	6823      	ldr	r3, [r4, #0]
 8006560:	0699      	lsls	r1, r3, #26
 8006562:	bf42      	ittt	mi
 8006564:	6833      	ldrmi	r3, [r6, #0]
 8006566:	3302      	addmi	r3, #2
 8006568:	6033      	strmi	r3, [r6, #0]
 800656a:	6825      	ldr	r5, [r4, #0]
 800656c:	f015 0506 	ands.w	r5, r5, #6
 8006570:	d106      	bne.n	8006580 <_printf_common+0x48>
 8006572:	f104 0a19 	add.w	sl, r4, #25
 8006576:	68e3      	ldr	r3, [r4, #12]
 8006578:	6832      	ldr	r2, [r6, #0]
 800657a:	1a9b      	subs	r3, r3, r2
 800657c:	42ab      	cmp	r3, r5
 800657e:	dc26      	bgt.n	80065ce <_printf_common+0x96>
 8006580:	f894 2043 	ldrb.w	r2, [r4, #67]	; 0x43
 8006584:	1e13      	subs	r3, r2, #0
 8006586:	6822      	ldr	r2, [r4, #0]
 8006588:	bf18      	it	ne
 800658a:	2301      	movne	r3, #1
 800658c:	0692      	lsls	r2, r2, #26
 800658e:	d42b      	bmi.n	80065e8 <_printf_common+0xb0>
 8006590:	f104 0243 	add.w	r2, r4, #67	; 0x43
 8006594:	4649      	mov	r1, r9
 8006596:	4638      	mov	r0, r7
 8006598:	47c0      	blx	r8
 800659a:	3001      	adds	r0, #1
 800659c:	d01e      	beq.n	80065dc <_printf_common+0xa4>
 800659e:	6823      	ldr	r3, [r4, #0]
 80065a0:	68e5      	ldr	r5, [r4, #12]
 80065a2:	6832      	ldr	r2, [r6, #0]
 80065a4:	f003 0306 	and.w	r3, r3, #6
 80065a8:	2b04      	cmp	r3, #4
 80065aa:	bf08      	it	eq
 80065ac:	1aad      	subeq	r5, r5, r2
 80065ae:	68a3      	ldr	r3, [r4, #8]
 80065b0:	6922      	ldr	r2, [r4, #16]
 80065b2:	bf0c      	ite	eq
 80065b4:	ea25 75e5 	biceq.w	r5, r5, r5, asr #31
 80065b8:	2500      	movne	r5, #0
 80065ba:	4293      	cmp	r3, r2
 80065bc:	bfc4      	itt	gt
 80065be:	1a9b      	subgt	r3, r3, r2
 80065c0:	18ed      	addgt	r5, r5, r3
 80065c2:	2600      	movs	r6, #0
 80065c4:	341a      	adds	r4, #26
 80065c6:	42b5      	cmp	r5, r6
 80065c8:	d11a      	bne.n	8006600 <_printf_common+0xc8>
 80065ca:	2000      	movs	r0, #0
 80065cc:	e008      	b.n	80065e0 <_printf_common+0xa8>
 80065ce:	2301      	movs	r3, #1
 80065d0:	4652      	mov	r2, sl
 80065d2:	4649      	mov	r1, r9
 80065d4:	4638      	mov	r0, r7
 80065d6:	47c0      	blx	r8
 80065d8:	3001      	adds	r0, #1
 80065da:	d103      	bne.n	80065e4 <_printf_common+0xac>
 80065dc:	f04f 30ff 	mov.w	r0, #4294967295
 80065e0:	e8bd 87f0 	ldmia.w	sp!, {r4, r5, r6, r7, r8, r9, sl, pc}
 80065e4:	3501      	adds	r5, #1
 80065e6:	e7c6      	b.n	8006576 <_printf_common+0x3e>
 80065e8:	18e1      	adds	r1, r4, r3
 80065ea:	1c5a      	adds	r2, r3, #1
 80065ec:	2030      	movs	r0, #48	; 0x30
 80065ee:	f881 0043 	strb.w	r0, [r1, #67]	; 0x43
 80065f2:	4422      	add	r2, r4
 80065f4:	f894 1045 	ldrb.w	r1, [r4, #69]	; 0x45
 80065f8:	f882 1043 	strb.w	r1, [r2, #67]	; 0x43
 80065fc:	3302      	adds	r3, #2
 80065fe:	e7c7      	b.n	8006590 <_printf_common+0x58>
 8006600:	2301      	movs	r3, #1
 8006602:	4622      	mov	r2, r4
 8006604:	4649      	mov	r1, r9
 8006606:	4638      	mov	r0, r7
 8006608:	47c0      	blx	r8
 800660a:	3001      	adds	r0, #1
 800660c:	d0e6      	beq.n	80065dc <_printf_common+0xa4>
 800660e:	3601      	adds	r6, #1
 8006610:	e7d9      	b.n	80065c6 <_printf_common+0x8e>
	...

08006614 <_printf_i>:
 8006614:	e92d 47ff 	stmdb	sp!, {r0, r1, r2, r3, r4, r5, r6, r7, r8, r9, sl, lr}
 8006618:	7e0f      	ldrb	r7, [r1, #24]
 800661a:	9d0c      	ldr	r5, [sp, #48]	; 0x30
 800661c:	2f78      	cmp	r7, #120	; 0x78
 800661e:	4691      	mov	r9, r2
 8006620:	4680      	mov	r8, r0
 8006622:	460c      	mov	r4, r1
 8006624:	469a      	mov	sl, r3
 8006626:	f101 0243 	add.w	r2, r1, #67	; 0x43
 800662a:	d807      	bhi.n	800663c <_printf_i+0x28>
 800662c:	2f62      	cmp	r7, #98	; 0x62
 800662e:	d80a      	bhi.n	8006646 <_printf_i+0x32>
 8006630:	2f00      	cmp	r7, #0
 8006632:	f000 80d8 	beq.w	80067e6 <_printf_i+0x1d2>
 8006636:	2f58      	cmp	r7, #88	; 0x58
 8006638:	f000 80a3 	beq.w	8006782 <_printf_i+0x16e>
 800663c:	f104 0542 	add.w	r5, r4, #66	; 0x42
 8006640:	f884 7042 	strb.w	r7, [r4, #66]	; 0x42
 8006644:	e03a      	b.n	80066bc <_printf_i+0xa8>
 8006646:	f1a7 0363 	sub.w	r3, r7, #99	; 0x63
 800664a:	2b15      	cmp	r3, #21
 800664c:	d8f6      	bhi.n	800663c <_printf_i+0x28>
 800664e:	a101      	add	r1, pc, #4	; (adr r1, 8006654 <_printf_i+0x40>)
 8006650:	f851 f023 	ldr.w	pc, [r1, r3, lsl #2]
 8006654:	080066ad 	.word	0x080066ad
 8006658:	080066c1 	.word	0x080066c1
 800665c:	0800663d 	.word	0x0800663d
 8006660:	0800663d 	.word	0x0800663d
 8006664:	0800663d 	.word	0x0800663d
 8006668:	0800663d 	.word	0x0800663d
 800666c:	080066c1 	.word	0x080066c1
 8006670:	0800663d 	.word	0x0800663d
 8006674:	0800663d 	.word	0x0800663d
 8006678:	0800663d 	.word	0x0800663d
 800667c:	0800663d 	.word	0x0800663d
 8006680:	080067cd 	.word	0x080067cd
 8006684:	080066f1 	.word	0x080066f1
 8006688:	080067af 	.word	0x080067af
 800668c:	0800663d 	.word	0x0800663d
 8006690:	0800663d 	.word	0x0800663d
 8006694:	080067ef 	.word	0x080067ef
 8006698:	0800663d 	.word	0x0800663d
 800669c:	080066f1 	.word	0x080066f1
 80066a0:	0800663d 	.word	0x0800663d
 80066a4:	0800663d 	.word	0x0800663d
 80066a8:	080067b7 	.word	0x080067b7
 80066ac:	682b      	ldr	r3, [r5, #0]
 80066ae:	1d1a      	adds	r2, r3, #4
 80066b0:	681b      	ldr	r3, [r3, #0]
 80066b2:	602a      	str	r2, [r5, #0]
 80066b4:	f104 0542 	add.w	r5, r4, #66	; 0x42
 80066b8:	f884 3042 	strb.w	r3, [r4, #66]	; 0x42
 80066bc:	2301      	movs	r3, #1
 80066be:	e0a3      	b.n	8006808 <_printf_i+0x1f4>
 80066c0:	6820      	ldr	r0, [r4, #0]
 80066c2:	6829      	ldr	r1, [r5, #0]
 80066c4:	0606      	lsls	r6, r0, #24
 80066c6:	f101 0304 	add.w	r3, r1, #4
 80066ca:	d50a      	bpl.n	80066e2 <_printf_i+0xce>
 80066cc:	680e      	ldr	r6, [r1, #0]
 80066ce:	602b      	str	r3, [r5, #0]
 80066d0:	2e00      	cmp	r6, #0
 80066d2:	da03      	bge.n	80066dc <_printf_i+0xc8>
 80066d4:	232d      	movs	r3, #45	; 0x2d
 80066d6:	4276      	negs	r6, r6
 80066d8:	f884 3043 	strb.w	r3, [r4, #67]	; 0x43
 80066dc:	485e      	ldr	r0, [pc, #376]	; (8006858 <_printf_i+0x244>)
 80066de:	230a      	movs	r3, #10
 80066e0:	e019      	b.n	8006716 <_printf_i+0x102>
 80066e2:	680e      	ldr	r6, [r1, #0]
 80066e4:	602b      	str	r3, [r5, #0]
 80066e6:	f010 0f40 	tst.w	r0, #64	; 0x40
 80066ea:	bf18      	it	ne
 80066ec:	b236      	sxthne	r6, r6
 80066ee:	e7ef      	b.n	80066d0 <_printf_i+0xbc>
 80066f0:	682b      	ldr	r3, [r5, #0]
 80066f2:	6820      	ldr	r0, [r4, #0]
 80066f4:	1d19      	adds	r1, r3, #4
 80066f6:	6029      	str	r1, [r5, #0]
 80066f8:	0601      	lsls	r1, r0, #24
 80066fa:	d501      	bpl.n	8006700 <_printf_i+0xec>
 80066fc:	681e      	ldr	r6, [r3, #0]
 80066fe:	e002      	b.n	8006706 <_printf_i+0xf2>
 8006700:	0646      	lsls	r6, r0, #25
 8006702:	d5fb      	bpl.n	80066fc <_printf_i+0xe8>
 8006704:	881e      	ldrh	r6, [r3, #0]
 8006706:	4854      	ldr	r0, [pc, #336]	; (8006858 <_printf_i+0x244>)
 8006708:	2f6f      	cmp	r7, #111	; 0x6f
 800670a:	bf0c      	ite	eq
 800670c:	2308      	moveq	r3, #8
 800670e:	230a      	movne	r3, #10
 8006710:	2100      	movs	r1, #0
 8006712:	f884 1043 	strb.w	r1, [r4, #67]	; 0x43
 8006716:	6865      	ldr	r5, [r4, #4]
 8006718:	60a5      	str	r5, [r4, #8]
 800671a:	2d00      	cmp	r5, #0
 800671c:	bfa2      	ittt	ge
 800671e:	6821      	ldrge	r1, [r4, #0]
 8006720:	f021 0104 	bicge.w	r1, r1, #4
 8006724:	6021      	strge	r1, [r4, #0]
 8006726:	b90e      	cbnz	r6, 800672c <_printf_i+0x118>
 8006728:	2d00      	cmp	r5, #0
 800672a:	d04d      	beq.n	80067c8 <_printf_i+0x1b4>
 800672c:	4615      	mov	r5, r2
 800672e:	fbb6 f1f3 	udiv	r1, r6, r3
 8006732:	fb03 6711 	mls	r7, r3, r1, r6
 8006736:	5dc7      	ldrb	r7, [r0, r7]
 8006738:	f805 7d01 	strb.w	r7, [r5, #-1]!
 800673c:	4637      	mov	r7, r6
 800673e:	42bb      	cmp	r3, r7
 8006740:	460e      	mov	r6, r1
 8006742:	d9f4      	bls.n	800672e <_printf_i+0x11a>
 8006744:	2b08      	cmp	r3, #8
 8006746:	d10b      	bne.n	8006760 <_printf_i+0x14c>
 8006748:	6823      	ldr	r3, [r4, #0]
 800674a:	07de      	lsls	r6, r3, #31
 800674c:	d508      	bpl.n	8006760 <_printf_i+0x14c>
 800674e:	6923      	ldr	r3, [r4, #16]
 8006750:	6861      	ldr	r1, [r4, #4]
 8006752:	4299      	cmp	r1, r3
 8006754:	bfde      	ittt	le
 8006756:	2330      	movle	r3, #48	; 0x30
 8006758:	f805 3c01 	strble.w	r3, [r5, #-1]
 800675c:	f105 35ff 	addle.w	r5, r5, #4294967295
 8006760:	1b52      	subs	r2, r2, r5
 8006762:	6122      	str	r2, [r4, #16]
 8006764:	f8cd a000 	str.w	sl, [sp]
 8006768:	464b      	mov	r3, r9
 800676a:	aa03      	add	r2, sp, #12
 800676c:	4621      	mov	r1, r4
 800676e:	4640      	mov	r0, r8
 8006770:	f7ff fee2 	bl	8006538 <_printf_common>
 8006774:	3001      	adds	r0, #1
 8006776:	d14c      	bne.n	8006812 <_printf_i+0x1fe>
 8006778:	f04f 30ff 	mov.w	r0, #4294967295
 800677c:	b004      	add	sp, #16
 800677e:	e8bd 87f0 	ldmia.w	sp!, {r4, r5, r6, r7, r8, r9, sl, pc}
 8006782:	4835      	ldr	r0, [pc, #212]	; (8006858 <_printf_i+0x244>)
 8006784:	f881 7045 	strb.w	r7, [r1, #69]	; 0x45
 8006788:	6829      	ldr	r1, [r5, #0]
 800678a:	6823      	ldr	r3, [r4, #0]
 800678c:	f851 6b04 	ldr.w	r6, [r1], #4
 8006790:	6029      	str	r1, [r5, #0]
 8006792:	061d      	lsls	r5, r3, #24
 8006794:	d514      	bpl.n	80067c0 <_printf_i+0x1ac>
 8006796:	07df      	lsls	r7, r3, #31
 8006798:	bf44      	itt	mi
 800679a:	f043 0320 	orrmi.w	r3, r3, #32
 800679e:	6023      	strmi	r3, [r4, #0]
 80067a0:	b91e      	cbnz	r6, 80067aa <_printf_i+0x196>
 80067a2:	6823      	ldr	r3, [r4, #0]
 80067a4:	f023 0320 	bic.w	r3, r3, #32
 80067a8:	6023      	str	r3, [r4, #0]
 80067aa:	2310      	movs	r3, #16
 80067ac:	e7b0      	b.n	8006710 <_printf_i+0xfc>
 80067ae:	6823      	ldr	r3, [r4, #0]
 80067b0:	f043 0320 	orr.w	r3, r3, #32
 80067b4:	6023      	str	r3, [r4, #0]
 80067b6:	2378      	movs	r3, #120	; 0x78
 80067b8:	4828      	ldr	r0, [pc, #160]	; (800685c <_printf_i+0x248>)
 80067ba:	f884 3045 	strb.w	r3, [r4, #69]	; 0x45
 80067be:	e7e3      	b.n	8006788 <_printf_i+0x174>
 80067c0:	0659      	lsls	r1, r3, #25
 80067c2:	bf48      	it	mi
 80067c4:	b2b6      	uxthmi	r6, r6
 80067c6:	e7e6      	b.n	8006796 <_printf_i+0x182>
 80067c8:	4615      	mov	r5, r2
 80067ca:	e7bb      	b.n	8006744 <_printf_i+0x130>
 80067cc:	682b      	ldr	r3, [r5, #0]
 80067ce:	6826      	ldr	r6, [r4, #0]
 80067d0:	6961      	ldr	r1, [r4, #20]
 80067d2:	1d18      	adds	r0, r3, #4
 80067d4:	6028      	str	r0, [r5, #0]
 80067d6:	0635      	lsls	r5, r6, #24
 80067d8:	681b      	ldr	r3, [r3, #0]
 80067da:	d501      	bpl.n	80067e0 <_printf_i+0x1cc>
 80067dc:	6019      	str	r1, [r3, #0]
 80067de:	e002      	b.n	80067e6 <_printf_i+0x1d2>
 80067e0:	0670      	lsls	r0, r6, #25
 80067e2:	d5fb      	bpl.n	80067dc <_printf_i+0x1c8>
 80067e4:	8019      	strh	r1, [r3, #0]
 80067e6:	2300      	movs	r3, #0
 80067e8:	6123      	str	r3, [r4, #16]
 80067ea:	4615      	mov	r5, r2
 80067ec:	e7ba      	b.n	8006764 <_printf_i+0x150>
 80067ee:	682b      	ldr	r3, [r5, #0]
 80067f0:	1d1a      	adds	r2, r3, #4
 80067f2:	602a      	str	r2, [r5, #0]
 80067f4:	681d      	ldr	r5, [r3, #0]
 80067f6:	6862      	ldr	r2, [r4, #4]
 80067f8:	2100      	movs	r1, #0
 80067fa:	4628      	mov	r0, r5
 80067fc:	f7f9 fcf0 	bl	80001e0 <memchr>
 8006800:	b108      	cbz	r0, 8006806 <_printf_i+0x1f2>
 8006802:	1b40      	subs	r0, r0, r5
 8006804:	6060      	str	r0, [r4, #4]
 8006806:	6863      	ldr	r3, [r4, #4]
 8006808:	6123      	str	r3, [r4, #16]
 800680a:	2300      	movs	r3, #0
 800680c:	f884 3043 	strb.w	r3, [r4, #67]	; 0x43
 8006810:	e7a8      	b.n	8006764 <_printf_i+0x150>
 8006812:	6923      	ldr	r3, [r4, #16]
 8006814:	462a      	mov	r2, r5
 8006816:	4649      	mov	r1, r9
 8006818:	4640      	mov	r0, r8
 800681a:	47d0      	blx	sl
 800681c:	3001      	adds	r0, #1
 800681e:	d0ab      	beq.n	8006778 <_printf_i+0x164>
 8006820:	6823      	ldr	r3, [r4, #0]
 8006822:	079b      	lsls	r3, r3, #30
 8006824:	d413      	bmi.n	800684e <_printf_i+0x23a>
 8006826:	68e0      	ldr	r0, [r4, #12]
 8006828:	9b03      	ldr	r3, [sp, #12]
 800682a:	4298      	cmp	r0, r3
 800682c:	bfb8      	it	lt
 800682e:	4618      	movlt	r0, r3
 8006830:	e7a4      	b.n	800677c <_printf_i+0x168>
 8006832:	2301      	movs	r3, #1
 8006834:	4632      	mov	r2, r6
 8006836:	4649      	mov	r1, r9
 8006838:	4640      	mov	r0, r8
 800683a:	47d0      	blx	sl
 800683c:	3001      	adds	r0, #1
 800683e:	d09b      	beq.n	8006778 <_printf_i+0x164>
 8006840:	3501      	adds	r5, #1
 8006842:	68e3      	ldr	r3, [r4, #12]
 8006844:	9903      	ldr	r1, [sp, #12]
 8006846:	1a5b      	subs	r3, r3, r1
 8006848:	42ab      	cmp	r3, r5
 800684a:	dcf2      	bgt.n	8006832 <_printf_i+0x21e>
 800684c:	e7eb      	b.n	8006826 <_printf_i+0x212>
 800684e:	2500      	movs	r5, #0
 8006850:	f104 0619 	add.w	r6, r4, #25
 8006854:	e7f5      	b.n	8006842 <_printf_i+0x22e>
 8006856:	bf00      	nop
 8006858:	080077bd 	.word	0x080077bd
 800685c:	080077ce 	.word	0x080077ce

08006860 <__swbuf_r>:
 8006860:	b5f8      	push	{r3, r4, r5, r6, r7, lr}
 8006862:	460e      	mov	r6, r1
 8006864:	4614      	mov	r4, r2
 8006866:	4605      	mov	r5, r0
 8006868:	b118      	cbz	r0, 8006872 <__swbuf_r+0x12>
 800686a:	6983      	ldr	r3, [r0, #24]
 800686c:	b90b      	cbnz	r3, 8006872 <__swbuf_r+0x12>
 800686e:	f000 f9d9 	bl	8006c24 <__sinit>
 8006872:	4b21      	ldr	r3, [pc, #132]	; (80068f8 <__swbuf_r+0x98>)
 8006874:	429c      	cmp	r4, r3
 8006876:	d12b      	bne.n	80068d0 <__swbuf_r+0x70>
 8006878:	686c      	ldr	r4, [r5, #4]
 800687a:	69a3      	ldr	r3, [r4, #24]
 800687c:	60a3      	str	r3, [r4, #8]
 800687e:	89a3      	ldrh	r3, [r4, #12]
 8006880:	071a      	lsls	r2, r3, #28
 8006882:	d52f      	bpl.n	80068e4 <__swbuf_r+0x84>
 8006884:	6923      	ldr	r3, [r4, #16]
 8006886:	b36b      	cbz	r3, 80068e4 <__swbuf_r+0x84>
 8006888:	6923      	ldr	r3, [r4, #16]
 800688a:	6820      	ldr	r0, [r4, #0]
 800688c:	1ac0      	subs	r0, r0, r3
 800688e:	6963      	ldr	r3, [r4, #20]
 8006890:	b2f6      	uxtb	r6, r6
 8006892:	4283      	cmp	r3, r0
 8006894:	4637      	mov	r7, r6
 8006896:	dc04      	bgt.n	80068a2 <__swbuf_r+0x42>
 8006898:	4621      	mov	r1, r4
 800689a:	4628      	mov	r0, r5
 800689c:	f000 f92e 	bl	8006afc <_fflush_r>
 80068a0:	bb30      	cbnz	r0, 80068f0 <__swbuf_r+0x90>
 80068a2:	68a3      	ldr	r3, [r4, #8]
 80068a4:	3b01      	subs	r3, #1
 80068a6:	60a3      	str	r3, [r4, #8]
 80068a8:	6823      	ldr	r3, [r4, #0]
 80068aa:	1c5a      	adds	r2, r3, #1
 80068ac:	6022      	str	r2, [r4, #0]
 80068ae:	701e      	strb	r6, [r3, #0]
 80068b0:	6963      	ldr	r3, [r4, #20]
 80068b2:	3001      	adds	r0, #1
 80068b4:	4283      	cmp	r3, r0
 80068b6:	d004      	beq.n	80068c2 <__swbuf_r+0x62>
 80068b8:	89a3      	ldrh	r3, [r4, #12]
 80068ba:	07db      	lsls	r3, r3, #31
 80068bc:	d506      	bpl.n	80068cc <__swbuf_r+0x6c>
 80068be:	2e0a      	cmp	r6, #10
 80068c0:	d104      	bne.n	80068cc <__swbuf_r+0x6c>
 80068c2:	4621      	mov	r1, r4
 80068c4:	4628      	mov	r0, r5
 80068c6:	f000 f919 	bl	8006afc <_fflush_r>
 80068ca:	b988      	cbnz	r0, 80068f0 <__swbuf_r+0x90>
 80068cc:	4638      	mov	r0, r7
 80068ce:	bdf8      	pop	{r3, r4, r5, r6, r7, pc}
 80068d0:	4b0a      	ldr	r3, [pc, #40]	; (80068fc <__swbuf_r+0x9c>)
 80068d2:	429c      	cmp	r4, r3
 80068d4:	d101      	bne.n	80068da <__swbuf_r+0x7a>
 80068d6:	68ac      	ldr	r4, [r5, #8]
 80068d8:	e7cf      	b.n	800687a <__swbuf_r+0x1a>
 80068da:	4b09      	ldr	r3, [pc, #36]	; (8006900 <__swbuf_r+0xa0>)
 80068dc:	429c      	cmp	r4, r3
 80068de:	bf08      	it	eq
 80068e0:	68ec      	ldreq	r4, [r5, #12]
 80068e2:	e7ca      	b.n	800687a <__swbuf_r+0x1a>
 80068e4:	4621      	mov	r1, r4
 80068e6:	4628      	mov	r0, r5
 80068e8:	f000 f80c 	bl	8006904 <__swsetup_r>
 80068ec:	2800      	cmp	r0, #0
 80068ee:	d0cb      	beq.n	8006888 <__swbuf_r+0x28>
 80068f0:	f04f 37ff 	mov.w	r7, #4294967295
 80068f4:	e7ea      	b.n	80068cc <__swbuf_r+0x6c>
 80068f6:	bf00      	nop
 80068f8:	08007800 	.word	0x08007800
 80068fc:	08007820 	.word	0x08007820
 8006900:	080077e0 	.word	0x080077e0

08006904 <__swsetup_r>:
 8006904:	4b32      	ldr	r3, [pc, #200]	; (80069d0 <__swsetup_r+0xcc>)
 8006906:	b570      	push	{r4, r5, r6, lr}
 8006908:	681d      	ldr	r5, [r3, #0]
 800690a:	4606      	mov	r6, r0
 800690c:	460c      	mov	r4, r1
 800690e:	b125      	cbz	r5, 800691a <__swsetup_r+0x16>
 8006910:	69ab      	ldr	r3, [r5, #24]
 8006912:	b913      	cbnz	r3, 800691a <__swsetup_r+0x16>
 8006914:	4628      	mov	r0, r5
 8006916:	f000 f985 	bl	8006c24 <__sinit>
 800691a:	4b2e      	ldr	r3, [pc, #184]	; (80069d4 <__swsetup_r+0xd0>)
 800691c:	429c      	cmp	r4, r3
 800691e:	d10f      	bne.n	8006940 <__swsetup_r+0x3c>
 8006920:	686c      	ldr	r4, [r5, #4]
 8006922:	89a3      	ldrh	r3, [r4, #12]
 8006924:	f9b4 200c 	ldrsh.w	r2, [r4, #12]
 8006928:	0719      	lsls	r1, r3, #28
 800692a:	d42c      	bmi.n	8006986 <__swsetup_r+0x82>
 800692c:	06dd      	lsls	r5, r3, #27
 800692e:	d411      	bmi.n	8006954 <__swsetup_r+0x50>
 8006930:	2309      	movs	r3, #9
 8006932:	6033      	str	r3, [r6, #0]
 8006934:	f042 0340 	orr.w	r3, r2, #64	; 0x40
 8006938:	81a3      	strh	r3, [r4, #12]
 800693a:	f04f 30ff 	mov.w	r0, #4294967295
 800693e:	e03e      	b.n	80069be <__swsetup_r+0xba>
 8006940:	4b25      	ldr	r3, [pc, #148]	; (80069d8 <__swsetup_r+0xd4>)
 8006942:	429c      	cmp	r4, r3
 8006944:	d101      	bne.n	800694a <__swsetup_r+0x46>
 8006946:	68ac      	ldr	r4, [r5, #8]
 8006948:	e7eb      	b.n	8006922 <__swsetup_r+0x1e>
 800694a:	4b24      	ldr	r3, [pc, #144]	; (80069dc <__swsetup_r+0xd8>)
 800694c:	429c      	cmp	r4, r3
 800694e:	bf08      	it	eq
 8006950:	68ec      	ldreq	r4, [r5, #12]
 8006952:	e7e6      	b.n	8006922 <__swsetup_r+0x1e>
 8006954:	0758      	lsls	r0, r3, #29
 8006956:	d512      	bpl.n	800697e <__swsetup_r+0x7a>
 8006958:	6b61      	ldr	r1, [r4, #52]	; 0x34
 800695a:	b141      	cbz	r1, 800696e <__swsetup_r+0x6a>
 800695c:	f104 0344 	add.w	r3, r4, #68	; 0x44
 8006960:	4299      	cmp	r1, r3
 8006962:	d002      	beq.n	800696a <__swsetup_r+0x66>
 8006964:	4630      	mov	r0, r6
 8006966:	f000 fa63 	bl	8006e30 <_free_r>
 800696a:	2300      	movs	r3, #0
 800696c:	6363      	str	r3, [r4, #52]	; 0x34
 800696e:	89a3      	ldrh	r3, [r4, #12]
 8006970:	f023 0324 	bic.w	r3, r3, #36	; 0x24
 8006974:	81a3      	strh	r3, [r4, #12]
 8006976:	2300      	movs	r3, #0
 8006978:	6063      	str	r3, [r4, #4]
 800697a:	6923      	ldr	r3, [r4, #16]
 800697c:	6023      	str	r3, [r4, #0]
 800697e:	89a3      	ldrh	r3, [r4, #12]
 8006980:	f043 0308 	orr.w	r3, r3, #8
 8006984:	81a3      	strh	r3, [r4, #12]
 8006986:	6923      	ldr	r3, [r4, #16]
 8006988:	b94b      	cbnz	r3, 800699e <__swsetup_r+0x9a>
 800698a:	89a3      	ldrh	r3, [r4, #12]
 800698c:	f403 7320 	and.w	r3, r3, #640	; 0x280
 8006990:	f5b3 7f00 	cmp.w	r3, #512	; 0x200
 8006994:	d003      	beq.n	800699e <__swsetup_r+0x9a>
 8006996:	4621      	mov	r1, r4
 8006998:	4630      	mov	r0, r6
 800699a:	f000 fa09 	bl	8006db0 <__smakebuf_r>
 800699e:	89a0      	ldrh	r0, [r4, #12]
 80069a0:	f9b4 200c 	ldrsh.w	r2, [r4, #12]
 80069a4:	f010 0301 	ands.w	r3, r0, #1
 80069a8:	d00a      	beq.n	80069c0 <__swsetup_r+0xbc>
 80069aa:	2300      	movs	r3, #0
 80069ac:	60a3      	str	r3, [r4, #8]
 80069ae:	6963      	ldr	r3, [r4, #20]
 80069b0:	425b      	negs	r3, r3
 80069b2:	61a3      	str	r3, [r4, #24]
 80069b4:	6923      	ldr	r3, [r4, #16]
 80069b6:	b943      	cbnz	r3, 80069ca <__swsetup_r+0xc6>
 80069b8:	f010 0080 	ands.w	r0, r0, #128	; 0x80
 80069bc:	d1ba      	bne.n	8006934 <__swsetup_r+0x30>
 80069be:	bd70      	pop	{r4, r5, r6, pc}
 80069c0:	0781      	lsls	r1, r0, #30
 80069c2:	bf58      	it	pl
 80069c4:	6963      	ldrpl	r3, [r4, #20]
 80069c6:	60a3      	str	r3, [r4, #8]
 80069c8:	e7f4      	b.n	80069b4 <__swsetup_r+0xb0>
 80069ca:	2000      	movs	r0, #0
 80069cc:	e7f7      	b.n	80069be <__swsetup_r+0xba>
 80069ce:	bf00      	nop
 80069d0:	2000004c 	.word	0x2000004c
 80069d4:	08007800 	.word	0x08007800
 80069d8:	08007820 	.word	0x08007820
 80069dc:	080077e0 	.word	0x080077e0

080069e0 <abort>:
 80069e0:	b508      	push	{r3, lr}
 80069e2:	2006      	movs	r0, #6
 80069e4:	f000 fb3c 	bl	8007060 <raise>
 80069e8:	2001      	movs	r0, #1
 80069ea:	f7fb ffc5 	bl	8002978 <_exit>
	...

080069f0 <__sflush_r>:
 80069f0:	898a      	ldrh	r2, [r1, #12]
 80069f2:	e92d 41f0 	stmdb	sp!, {r4, r5, r6, r7, r8, lr}
 80069f6:	4605      	mov	r5, r0
 80069f8:	0710      	lsls	r0, r2, #28
 80069fa:	460c      	mov	r4, r1
 80069fc:	d458      	bmi.n	8006ab0 <__sflush_r+0xc0>
 80069fe:	684b      	ldr	r3, [r1, #4]
 8006a00:	2b00      	cmp	r3, #0
 8006a02:	dc05      	bgt.n	8006a10 <__sflush_r+0x20>
 8006a04:	6c0b      	ldr	r3, [r1, #64]	; 0x40
 8006a06:	2b00      	cmp	r3, #0
 8006a08:	dc02      	bgt.n	8006a10 <__sflush_r+0x20>
 8006a0a:	2000      	movs	r0, #0
 8006a0c:	e8bd 81f0 	ldmia.w	sp!, {r4, r5, r6, r7, r8, pc}
 8006a10:	6ae6      	ldr	r6, [r4, #44]	; 0x2c
 8006a12:	2e00      	cmp	r6, #0
 8006a14:	d0f9      	beq.n	8006a0a <__sflush_r+0x1a>
 8006a16:	2300      	movs	r3, #0
 8006a18:	f412 5280 	ands.w	r2, r2, #4096	; 0x1000
 8006a1c:	682f      	ldr	r7, [r5, #0]
 8006a1e:	602b      	str	r3, [r5, #0]
 8006a20:	d032      	beq.n	8006a88 <__sflush_r+0x98>
 8006a22:	6d60      	ldr	r0, [r4, #84]	; 0x54
 8006a24:	89a3      	ldrh	r3, [r4, #12]
 8006a26:	075a      	lsls	r2, r3, #29
 8006a28:	d505      	bpl.n	8006a36 <__sflush_r+0x46>
 8006a2a:	6863      	ldr	r3, [r4, #4]
 8006a2c:	1ac0      	subs	r0, r0, r3
 8006a2e:	6b63      	ldr	r3, [r4, #52]	; 0x34
 8006a30:	b10b      	cbz	r3, 8006a36 <__sflush_r+0x46>
 8006a32:	6c23      	ldr	r3, [r4, #64]	; 0x40
 8006a34:	1ac0      	subs	r0, r0, r3
 8006a36:	2300      	movs	r3, #0
 8006a38:	4602      	mov	r2, r0
 8006a3a:	6ae6      	ldr	r6, [r4, #44]	; 0x2c
 8006a3c:	6a21      	ldr	r1, [r4, #32]
 8006a3e:	4628      	mov	r0, r5
 8006a40:	47b0      	blx	r6
 8006a42:	1c43      	adds	r3, r0, #1
 8006a44:	89a3      	ldrh	r3, [r4, #12]
 8006a46:	d106      	bne.n	8006a56 <__sflush_r+0x66>
 8006a48:	6829      	ldr	r1, [r5, #0]
 8006a4a:	291d      	cmp	r1, #29
 8006a4c:	d82c      	bhi.n	8006aa8 <__sflush_r+0xb8>
 8006a4e:	4a2a      	ldr	r2, [pc, #168]	; (8006af8 <__sflush_r+0x108>)
 8006a50:	40ca      	lsrs	r2, r1
 8006a52:	07d6      	lsls	r6, r2, #31
 8006a54:	d528      	bpl.n	8006aa8 <__sflush_r+0xb8>
 8006a56:	2200      	movs	r2, #0
 8006a58:	6062      	str	r2, [r4, #4]
 8006a5a:	04d9      	lsls	r1, r3, #19
 8006a5c:	6922      	ldr	r2, [r4, #16]
 8006a5e:	6022      	str	r2, [r4, #0]
 8006a60:	d504      	bpl.n	8006a6c <__sflush_r+0x7c>
 8006a62:	1c42      	adds	r2, r0, #1
 8006a64:	d101      	bne.n	8006a6a <__sflush_r+0x7a>
 8006a66:	682b      	ldr	r3, [r5, #0]
 8006a68:	b903      	cbnz	r3, 8006a6c <__sflush_r+0x7c>
 8006a6a:	6560      	str	r0, [r4, #84]	; 0x54
 8006a6c:	6b61      	ldr	r1, [r4, #52]	; 0x34
 8006a6e:	602f      	str	r7, [r5, #0]
 8006a70:	2900      	cmp	r1, #0
 8006a72:	d0ca      	beq.n	8006a0a <__sflush_r+0x1a>
 8006a74:	f104 0344 	add.w	r3, r4, #68	; 0x44
 8006a78:	4299      	cmp	r1, r3
 8006a7a:	d002      	beq.n	8006a82 <__sflush_r+0x92>
 8006a7c:	4628      	mov	r0, r5
 8006a7e:	f000 f9d7 	bl	8006e30 <_free_r>
 8006a82:	2000      	movs	r0, #0
 8006a84:	6360      	str	r0, [r4, #52]	; 0x34
 8006a86:	e7c1      	b.n	8006a0c <__sflush_r+0x1c>
 8006a88:	6a21      	ldr	r1, [r4, #32]
 8006a8a:	2301      	movs	r3, #1
 8006a8c:	4628      	mov	r0, r5
 8006a8e:	47b0      	blx	r6
 8006a90:	1c41      	adds	r1, r0, #1
 8006a92:	d1c7      	bne.n	8006a24 <__sflush_r+0x34>
 8006a94:	682b      	ldr	r3, [r5, #0]
 8006a96:	2b00      	cmp	r3, #0
 8006a98:	d0c4      	beq.n	8006a24 <__sflush_r+0x34>
 8006a9a:	2b1d      	cmp	r3, #29
 8006a9c:	d001      	beq.n	8006aa2 <__sflush_r+0xb2>
 8006a9e:	2b16      	cmp	r3, #22
 8006aa0:	d101      	bne.n	8006aa6 <__sflush_r+0xb6>
 8006aa2:	602f      	str	r7, [r5, #0]
 8006aa4:	e7b1      	b.n	8006a0a <__sflush_r+0x1a>
 8006aa6:	89a3      	ldrh	r3, [r4, #12]
 8006aa8:	f043 0340 	orr.w	r3, r3, #64	; 0x40
 8006aac:	81a3      	strh	r3, [r4, #12]
 8006aae:	e7ad      	b.n	8006a0c <__sflush_r+0x1c>
 8006ab0:	690f      	ldr	r7, [r1, #16]
 8006ab2:	2f00      	cmp	r7, #0
 8006ab4:	d0a9      	beq.n	8006a0a <__sflush_r+0x1a>
 8006ab6:	0793      	lsls	r3, r2, #30
 8006ab8:	680e      	ldr	r6, [r1, #0]
 8006aba:	bf08      	it	eq
 8006abc:	694b      	ldreq	r3, [r1, #20]
 8006abe:	600f      	str	r7, [r1, #0]
 8006ac0:	bf18      	it	ne
 8006ac2:	2300      	movne	r3, #0
 8006ac4:	eba6 0807 	sub.w	r8, r6, r7
 8006ac8:	608b      	str	r3, [r1, #8]
 8006aca:	f1b8 0f00 	cmp.w	r8, #0
 8006ace:	dd9c      	ble.n	8006a0a <__sflush_r+0x1a>
 8006ad0:	6a21      	ldr	r1, [r4, #32]
 8006ad2:	6aa6      	ldr	r6, [r4, #40]	; 0x28
 8006ad4:	4643      	mov	r3, r8
 8006ad6:	463a      	mov	r2, r7
 8006ad8:	4628      	mov	r0, r5
 8006ada:	47b0      	blx	r6
 8006adc:	2800      	cmp	r0, #0
 8006ade:	dc06      	bgt.n	8006aee <__sflush_r+0xfe>
 8006ae0:	89a3      	ldrh	r3, [r4, #12]
 8006ae2:	f043 0340 	orr.w	r3, r3, #64	; 0x40
 8006ae6:	81a3      	strh	r3, [r4, #12]
 8006ae8:	f04f 30ff 	mov.w	r0, #4294967295
 8006aec:	e78e      	b.n	8006a0c <__sflush_r+0x1c>
 8006aee:	4407      	add	r7, r0
 8006af0:	eba8 0800 	sub.w	r8, r8, r0
 8006af4:	e7e9      	b.n	8006aca <__sflush_r+0xda>
 8006af6:	bf00      	nop
 8006af8:	20400001 	.word	0x20400001

08006afc <_fflush_r>:
 8006afc:	b538      	push	{r3, r4, r5, lr}
 8006afe:	690b      	ldr	r3, [r1, #16]
 8006b00:	4605      	mov	r5, r0
 8006b02:	460c      	mov	r4, r1
 8006b04:	b913      	cbnz	r3, 8006b0c <_fflush_r+0x10>
 8006b06:	2500      	movs	r5, #0
 8006b08:	4628      	mov	r0, r5
 8006b0a:	bd38      	pop	{r3, r4, r5, pc}
 8006b0c:	b118      	cbz	r0, 8006b16 <_fflush_r+0x1a>
 8006b0e:	6983      	ldr	r3, [r0, #24]
 8006b10:	b90b      	cbnz	r3, 8006b16 <_fflush_r+0x1a>
 8006b12:	f000 f887 	bl	8006c24 <__sinit>
 8006b16:	4b14      	ldr	r3, [pc, #80]	; (8006b68 <_fflush_r+0x6c>)
 8006b18:	429c      	cmp	r4, r3
 8006b1a:	d11b      	bne.n	8006b54 <_fflush_r+0x58>
 8006b1c:	686c      	ldr	r4, [r5, #4]
 8006b1e:	f9b4 300c 	ldrsh.w	r3, [r4, #12]
 8006b22:	2b00      	cmp	r3, #0
 8006b24:	d0ef      	beq.n	8006b06 <_fflush_r+0xa>
 8006b26:	6e62      	ldr	r2, [r4, #100]	; 0x64
 8006b28:	07d0      	lsls	r0, r2, #31
 8006b2a:	d404      	bmi.n	8006b36 <_fflush_r+0x3a>
 8006b2c:	0599      	lsls	r1, r3, #22
 8006b2e:	d402      	bmi.n	8006b36 <_fflush_r+0x3a>
 8006b30:	6da0      	ldr	r0, [r4, #88]	; 0x58
 8006b32:	f000 f915 	bl	8006d60 <__retarget_lock_acquire_recursive>
 8006b36:	4628      	mov	r0, r5
 8006b38:	4621      	mov	r1, r4
 8006b3a:	f7ff ff59 	bl	80069f0 <__sflush_r>
 8006b3e:	6e63      	ldr	r3, [r4, #100]	; 0x64
 8006b40:	07da      	lsls	r2, r3, #31
 8006b42:	4605      	mov	r5, r0
 8006b44:	d4e0      	bmi.n	8006b08 <_fflush_r+0xc>
 8006b46:	89a3      	ldrh	r3, [r4, #12]
 8006b48:	059b      	lsls	r3, r3, #22
 8006b4a:	d4dd      	bmi.n	8006b08 <_fflush_r+0xc>
 8006b4c:	6da0      	ldr	r0, [r4, #88]	; 0x58
 8006b4e:	f000 f908 	bl	8006d62 <__retarget_lock_release_recursive>
 8006b52:	e7d9      	b.n	8006b08 <_fflush_r+0xc>
 8006b54:	4b05      	ldr	r3, [pc, #20]	; (8006b6c <_fflush_r+0x70>)
 8006b56:	429c      	cmp	r4, r3
 8006b58:	d101      	bne.n	8006b5e <_fflush_r+0x62>
 8006b5a:	68ac      	ldr	r4, [r5, #8]
 8006b5c:	e7df      	b.n	8006b1e <_fflush_r+0x22>
 8006b5e:	4b04      	ldr	r3, [pc, #16]	; (8006b70 <_fflush_r+0x74>)
 8006b60:	429c      	cmp	r4, r3
 8006b62:	bf08      	it	eq
 8006b64:	68ec      	ldreq	r4, [r5, #12]
 8006b66:	e7da      	b.n	8006b1e <_fflush_r+0x22>
 8006b68:	08007800 	.word	0x08007800
 8006b6c:	08007820 	.word	0x08007820
 8006b70:	080077e0 	.word	0x080077e0

08006b74 <std>:
 8006b74:	2300      	movs	r3, #0
 8006b76:	b510      	push	{r4, lr}
 8006b78:	4604      	mov	r4, r0
 8006b7a:	e9c0 3300 	strd	r3, r3, [r0]
 8006b7e:	e9c0 3304 	strd	r3, r3, [r0, #16]
 8006b82:	6083      	str	r3, [r0, #8]
 8006b84:	8181      	strh	r1, [r0, #12]
 8006b86:	6643      	str	r3, [r0, #100]	; 0x64
 8006b88:	81c2      	strh	r2, [r0, #14]
 8006b8a:	6183      	str	r3, [r0, #24]
 8006b8c:	4619      	mov	r1, r3
 8006b8e:	2208      	movs	r2, #8
 8006b90:	305c      	adds	r0, #92	; 0x5c
 8006b92:	f7ff fb6f 	bl	8006274 <memset>
 8006b96:	4b05      	ldr	r3, [pc, #20]	; (8006bac <std+0x38>)
 8006b98:	6263      	str	r3, [r4, #36]	; 0x24
 8006b9a:	4b05      	ldr	r3, [pc, #20]	; (8006bb0 <std+0x3c>)
 8006b9c:	62a3      	str	r3, [r4, #40]	; 0x28
 8006b9e:	4b05      	ldr	r3, [pc, #20]	; (8006bb4 <std+0x40>)
 8006ba0:	62e3      	str	r3, [r4, #44]	; 0x2c
 8006ba2:	4b05      	ldr	r3, [pc, #20]	; (8006bb8 <std+0x44>)
 8006ba4:	6224      	str	r4, [r4, #32]
 8006ba6:	6323      	str	r3, [r4, #48]	; 0x30
 8006ba8:	bd10      	pop	{r4, pc}
 8006baa:	bf00      	nop
 8006bac:	08007099 	.word	0x08007099
 8006bb0:	080070bb 	.word	0x080070bb
 8006bb4:	080070f3 	.word	0x080070f3
 8006bb8:	08007117 	.word	0x08007117

08006bbc <_cleanup_r>:
 8006bbc:	4901      	ldr	r1, [pc, #4]	; (8006bc4 <_cleanup_r+0x8>)
 8006bbe:	f000 b8af 	b.w	8006d20 <_fwalk_reent>
 8006bc2:	bf00      	nop
 8006bc4:	08006afd 	.word	0x08006afd

08006bc8 <__sfmoreglue>:
 8006bc8:	b570      	push	{r4, r5, r6, lr}
 8006bca:	2268      	movs	r2, #104	; 0x68
 8006bcc:	1e4d      	subs	r5, r1, #1
 8006bce:	4355      	muls	r5, r2
 8006bd0:	460e      	mov	r6, r1
 8006bd2:	f105 0174 	add.w	r1, r5, #116	; 0x74
 8006bd6:	f000 f997 	bl	8006f08 <_malloc_r>
 8006bda:	4604      	mov	r4, r0
 8006bdc:	b140      	cbz	r0, 8006bf0 <__sfmoreglue+0x28>
 8006bde:	2100      	movs	r1, #0
 8006be0:	e9c0 1600 	strd	r1, r6, [r0]
 8006be4:	300c      	adds	r0, #12
 8006be6:	60a0      	str	r0, [r4, #8]
 8006be8:	f105 0268 	add.w	r2, r5, #104	; 0x68
 8006bec:	f7ff fb42 	bl	8006274 <memset>
 8006bf0:	4620      	mov	r0, r4
 8006bf2:	bd70      	pop	{r4, r5, r6, pc}

08006bf4 <__sfp_lock_acquire>:
 8006bf4:	4801      	ldr	r0, [pc, #4]	; (8006bfc <__sfp_lock_acquire+0x8>)
 8006bf6:	f000 b8b3 	b.w	8006d60 <__retarget_lock_acquire_recursive>
 8006bfa:	bf00      	nop
 8006bfc:	200005a9 	.word	0x200005a9

08006c00 <__sfp_lock_release>:
 8006c00:	4801      	ldr	r0, [pc, #4]	; (8006c08 <__sfp_lock_release+0x8>)
 8006c02:	f000 b8ae 	b.w	8006d62 <__retarget_lock_release_recursive>
 8006c06:	bf00      	nop
 8006c08:	200005a9 	.word	0x200005a9

08006c0c <__sinit_lock_acquire>:
 8006c0c:	4801      	ldr	r0, [pc, #4]	; (8006c14 <__sinit_lock_acquire+0x8>)
 8006c0e:	f000 b8a7 	b.w	8006d60 <__retarget_lock_acquire_recursive>
 8006c12:	bf00      	nop
 8006c14:	200005aa 	.word	0x200005aa

08006c18 <__sinit_lock_release>:
 8006c18:	4801      	ldr	r0, [pc, #4]	; (8006c20 <__sinit_lock_release+0x8>)
 8006c1a:	f000 b8a2 	b.w	8006d62 <__retarget_lock_release_recursive>
 8006c1e:	bf00      	nop
 8006c20:	200005aa 	.word	0x200005aa

08006c24 <__sinit>:
 8006c24:	b510      	push	{r4, lr}
 8006c26:	4604      	mov	r4, r0
 8006c28:	f7ff fff0 	bl	8006c0c <__sinit_lock_acquire>
 8006c2c:	69a3      	ldr	r3, [r4, #24]
 8006c2e:	b11b      	cbz	r3, 8006c38 <__sinit+0x14>
 8006c30:	e8bd 4010 	ldmia.w	sp!, {r4, lr}
 8006c34:	f7ff bff0 	b.w	8006c18 <__sinit_lock_release>
 8006c38:	e9c4 3312 	strd	r3, r3, [r4, #72]	; 0x48
 8006c3c:	6523      	str	r3, [r4, #80]	; 0x50
 8006c3e:	4b13      	ldr	r3, [pc, #76]	; (8006c8c <__sinit+0x68>)
 8006c40:	4a13      	ldr	r2, [pc, #76]	; (8006c90 <__sinit+0x6c>)
 8006c42:	681b      	ldr	r3, [r3, #0]
 8006c44:	62a2      	str	r2, [r4, #40]	; 0x28
 8006c46:	42a3      	cmp	r3, r4
 8006c48:	bf04      	itt	eq
 8006c4a:	2301      	moveq	r3, #1
 8006c4c:	61a3      	streq	r3, [r4, #24]
 8006c4e:	4620      	mov	r0, r4
 8006c50:	f000 f820 	bl	8006c94 <__sfp>
 8006c54:	6060      	str	r0, [r4, #4]
 8006c56:	4620      	mov	r0, r4
 8006c58:	f000 f81c 	bl	8006c94 <__sfp>
 8006c5c:	60a0      	str	r0, [r4, #8]
 8006c5e:	4620      	mov	r0, r4
 8006c60:	f000 f818 	bl	8006c94 <__sfp>
 8006c64:	2200      	movs	r2, #0
 8006c66:	60e0      	str	r0, [r4, #12]
 8006c68:	2104      	movs	r1, #4
 8006c6a:	6860      	ldr	r0, [r4, #4]
 8006c6c:	f7ff ff82 	bl	8006b74 <std>
 8006c70:	68a0      	ldr	r0, [r4, #8]
 8006c72:	2201      	movs	r2, #1
 8006c74:	2109      	movs	r1, #9
 8006c76:	f7ff ff7d 	bl	8006b74 <std>
 8006c7a:	68e0      	ldr	r0, [r4, #12]
 8006c7c:	2202      	movs	r2, #2
 8006c7e:	2112      	movs	r1, #18
 8006c80:	f7ff ff78 	bl	8006b74 <std>
 8006c84:	2301      	movs	r3, #1
 8006c86:	61a3      	str	r3, [r4, #24]
 8006c88:	e7d2      	b.n	8006c30 <__sinit+0xc>
 8006c8a:	bf00      	nop
 8006c8c:	080077a8 	.word	0x080077a8
 8006c90:	08006bbd 	.word	0x08006bbd

08006c94 <__sfp>:
 8006c94:	b5f8      	push	{r3, r4, r5, r6, r7, lr}
 8006c96:	4607      	mov	r7, r0
 8006c98:	f7ff ffac 	bl	8006bf4 <__sfp_lock_acquire>
 8006c9c:	4b1e      	ldr	r3, [pc, #120]	; (8006d18 <__sfp+0x84>)
 8006c9e:	681e      	ldr	r6, [r3, #0]
 8006ca0:	69b3      	ldr	r3, [r6, #24]
 8006ca2:	b913      	cbnz	r3, 8006caa <__sfp+0x16>
 8006ca4:	4630      	mov	r0, r6
 8006ca6:	f7ff ffbd 	bl	8006c24 <__sinit>
 8006caa:	3648      	adds	r6, #72	; 0x48
 8006cac:	e9d6 3401 	ldrd	r3, r4, [r6, #4]
 8006cb0:	3b01      	subs	r3, #1
 8006cb2:	d503      	bpl.n	8006cbc <__sfp+0x28>
 8006cb4:	6833      	ldr	r3, [r6, #0]
 8006cb6:	b30b      	cbz	r3, 8006cfc <__sfp+0x68>
 8006cb8:	6836      	ldr	r6, [r6, #0]
 8006cba:	e7f7      	b.n	8006cac <__sfp+0x18>
 8006cbc:	f9b4 500c 	ldrsh.w	r5, [r4, #12]
 8006cc0:	b9d5      	cbnz	r5, 8006cf8 <__sfp+0x64>
 8006cc2:	4b16      	ldr	r3, [pc, #88]	; (8006d1c <__sfp+0x88>)
 8006cc4:	60e3      	str	r3, [r4, #12]
 8006cc6:	f104 0058 	add.w	r0, r4, #88	; 0x58
 8006cca:	6665      	str	r5, [r4, #100]	; 0x64
 8006ccc:	f000 f847 	bl	8006d5e <__retarget_lock_init_recursive>
 8006cd0:	f7ff ff96 	bl	8006c00 <__sfp_lock_release>
 8006cd4:	e9c4 5501 	strd	r5, r5, [r4, #4]
 8006cd8:	e9c4 5504 	strd	r5, r5, [r4, #16]
 8006cdc:	6025      	str	r5, [r4, #0]
 8006cde:	61a5      	str	r5, [r4, #24]
 8006ce0:	2208      	movs	r2, #8
 8006ce2:	4629      	mov	r1, r5
 8006ce4:	f104 005c 	add.w	r0, r4, #92	; 0x5c
 8006ce8:	f7ff fac4 	bl	8006274 <memset>
 8006cec:	e9c4 550d 	strd	r5, r5, [r4, #52]	; 0x34
 8006cf0:	e9c4 5512 	strd	r5, r5, [r4, #72]	; 0x48
 8006cf4:	4620      	mov	r0, r4
 8006cf6:	bdf8      	pop	{r3, r4, r5, r6, r7, pc}
 8006cf8:	3468      	adds	r4, #104	; 0x68
 8006cfa:	e7d9      	b.n	8006cb0 <__sfp+0x1c>
 8006cfc:	2104      	movs	r1, #4
 8006cfe:	4638      	mov	r0, r7
 8006d00:	f7ff ff62 	bl	8006bc8 <__sfmoreglue>
 8006d04:	4604      	mov	r4, r0
 8006d06:	6030      	str	r0, [r6, #0]
 8006d08:	2800      	cmp	r0, #0
 8006d0a:	d1d5      	bne.n	8006cb8 <__sfp+0x24>
 8006d0c:	f7ff ff78 	bl	8006c00 <__sfp_lock_release>
 8006d10:	230c      	movs	r3, #12
 8006d12:	603b      	str	r3, [r7, #0]
 8006d14:	e7ee      	b.n	8006cf4 <__sfp+0x60>
 8006d16:	bf00      	nop
 8006d18:	080077a8 	.word	0x080077a8
 8006d1c:	ffff0001 	.word	0xffff0001

08006d20 <_fwalk_reent>:
 8006d20:	e92d 43f8 	stmdb	sp!, {r3, r4, r5, r6, r7, r8, r9, lr}
 8006d24:	4606      	mov	r6, r0
 8006d26:	4688      	mov	r8, r1
 8006d28:	f100 0448 	add.w	r4, r0, #72	; 0x48
 8006d2c:	2700      	movs	r7, #0
 8006d2e:	e9d4 9501 	ldrd	r9, r5, [r4, #4]
 8006d32:	f1b9 0901 	subs.w	r9, r9, #1
 8006d36:	d505      	bpl.n	8006d44 <_fwalk_reent+0x24>
 8006d38:	6824      	ldr	r4, [r4, #0]
 8006d3a:	2c00      	cmp	r4, #0
 8006d3c:	d1f7      	bne.n	8006d2e <_fwalk_reent+0xe>
 8006d3e:	4638      	mov	r0, r7
 8006d40:	e8bd 83f8 	ldmia.w	sp!, {r3, r4, r5, r6, r7, r8, r9, pc}
 8006d44:	89ab      	ldrh	r3, [r5, #12]
 8006d46:	2b01      	cmp	r3, #1
 8006d48:	d907      	bls.n	8006d5a <_fwalk_reent+0x3a>
 8006d4a:	f9b5 300e 	ldrsh.w	r3, [r5, #14]
 8006d4e:	3301      	adds	r3, #1
 8006d50:	d003      	beq.n	8006d5a <_fwalk_reent+0x3a>
 8006d52:	4629      	mov	r1, r5
 8006d54:	4630      	mov	r0, r6
 8006d56:	47c0      	blx	r8
 8006d58:	4307      	orrs	r7, r0
 8006d5a:	3568      	adds	r5, #104	; 0x68
 8006d5c:	e7e9      	b.n	8006d32 <_fwalk_reent+0x12>

08006d5e <__retarget_lock_init_recursive>:
 8006d5e:	4770      	bx	lr

08006d60 <__retarget_lock_acquire_recursive>:
 8006d60:	4770      	bx	lr

08006d62 <__retarget_lock_release_recursive>:
 8006d62:	4770      	bx	lr

08006d64 <__swhatbuf_r>:
 8006d64:	b570      	push	{r4, r5, r6, lr}
 8006d66:	460e      	mov	r6, r1
 8006d68:	f9b1 100e 	ldrsh.w	r1, [r1, #14]
 8006d6c:	2900      	cmp	r1, #0
 8006d6e:	b096      	sub	sp, #88	; 0x58
 8006d70:	4614      	mov	r4, r2
 8006d72:	461d      	mov	r5, r3
 8006d74:	da08      	bge.n	8006d88 <__swhatbuf_r+0x24>
 8006d76:	f9b6 300c 	ldrsh.w	r3, [r6, #12]
 8006d7a:	2200      	movs	r2, #0
 8006d7c:	602a      	str	r2, [r5, #0]
 8006d7e:	061a      	lsls	r2, r3, #24
 8006d80:	d410      	bmi.n	8006da4 <__swhatbuf_r+0x40>
 8006d82:	f44f 6380 	mov.w	r3, #1024	; 0x400
 8006d86:	e00e      	b.n	8006da6 <__swhatbuf_r+0x42>
 8006d88:	466a      	mov	r2, sp
 8006d8a:	f000 f9eb 	bl	8007164 <_fstat_r>
 8006d8e:	2800      	cmp	r0, #0
 8006d90:	dbf1      	blt.n	8006d76 <__swhatbuf_r+0x12>
 8006d92:	9a01      	ldr	r2, [sp, #4]
 8006d94:	f402 4270 	and.w	r2, r2, #61440	; 0xf000
 8006d98:	f5a2 5300 	sub.w	r3, r2, #8192	; 0x2000
 8006d9c:	425a      	negs	r2, r3
 8006d9e:	415a      	adcs	r2, r3
 8006da0:	602a      	str	r2, [r5, #0]
 8006da2:	e7ee      	b.n	8006d82 <__swhatbuf_r+0x1e>
 8006da4:	2340      	movs	r3, #64	; 0x40
 8006da6:	2000      	movs	r0, #0
 8006da8:	6023      	str	r3, [r4, #0]
 8006daa:	b016      	add	sp, #88	; 0x58
 8006dac:	bd70      	pop	{r4, r5, r6, pc}
	...

08006db0 <__smakebuf_r>:
 8006db0:	898b      	ldrh	r3, [r1, #12]
 8006db2:	b573      	push	{r0, r1, r4, r5, r6, lr}
 8006db4:	079d      	lsls	r5, r3, #30
 8006db6:	4606      	mov	r6, r0
 8006db8:	460c      	mov	r4, r1
 8006dba:	d507      	bpl.n	8006dcc <__smakebuf_r+0x1c>
 8006dbc:	f104 0347 	add.w	r3, r4, #71	; 0x47
 8006dc0:	6023      	str	r3, [r4, #0]
 8006dc2:	6123      	str	r3, [r4, #16]
 8006dc4:	2301      	movs	r3, #1
 8006dc6:	6163      	str	r3, [r4, #20]
 8006dc8:	b002      	add	sp, #8
 8006dca:	bd70      	pop	{r4, r5, r6, pc}
 8006dcc:	ab01      	add	r3, sp, #4
 8006dce:	466a      	mov	r2, sp
 8006dd0:	f7ff ffc8 	bl	8006d64 <__swhatbuf_r>
 8006dd4:	9900      	ldr	r1, [sp, #0]
 8006dd6:	4605      	mov	r5, r0
 8006dd8:	4630      	mov	r0, r6
 8006dda:	f000 f895 	bl	8006f08 <_malloc_r>
 8006dde:	b948      	cbnz	r0, 8006df4 <__smakebuf_r+0x44>
 8006de0:	f9b4 300c 	ldrsh.w	r3, [r4, #12]
 8006de4:	059a      	lsls	r2, r3, #22
 8006de6:	d4ef      	bmi.n	8006dc8 <__smakebuf_r+0x18>
 8006de8:	f023 0303 	bic.w	r3, r3, #3
 8006dec:	f043 0302 	orr.w	r3, r3, #2
 8006df0:	81a3      	strh	r3, [r4, #12]
 8006df2:	e7e3      	b.n	8006dbc <__smakebuf_r+0xc>
 8006df4:	4b0d      	ldr	r3, [pc, #52]	; (8006e2c <__smakebuf_r+0x7c>)
 8006df6:	62b3      	str	r3, [r6, #40]	; 0x28
 8006df8:	89a3      	ldrh	r3, [r4, #12]
 8006dfa:	6020      	str	r0, [r4, #0]
 8006dfc:	f043 0380 	orr.w	r3, r3, #128	; 0x80
 8006e00:	81a3      	strh	r3, [r4, #12]
 8006e02:	9b00      	ldr	r3, [sp, #0]
 8006e04:	6163      	str	r3, [r4, #20]
 8006e06:	9b01      	ldr	r3, [sp, #4]
 8006e08:	6120      	str	r0, [r4, #16]
 8006e0a:	b15b      	cbz	r3, 8006e24 <__smakebuf_r+0x74>
 8006e0c:	f9b4 100e 	ldrsh.w	r1, [r4, #14]
 8006e10:	4630      	mov	r0, r6
 8006e12:	f000 f9b9 	bl	8007188 <_isatty_r>
 8006e16:	b128      	cbz	r0, 8006e24 <__smakebuf_r+0x74>
 8006e18:	89a3      	ldrh	r3, [r4, #12]
 8006e1a:	f023 0303 	bic.w	r3, r3, #3
 8006e1e:	f043 0301 	orr.w	r3, r3, #1
 8006e22:	81a3      	strh	r3, [r4, #12]
 8006e24:	89a0      	ldrh	r0, [r4, #12]
 8006e26:	4305      	orrs	r5, r0
 8006e28:	81a5      	strh	r5, [r4, #12]
 8006e2a:	e7cd      	b.n	8006dc8 <__smakebuf_r+0x18>
 8006e2c:	08006bbd 	.word	0x08006bbd

08006e30 <_free_r>:
 8006e30:	b537      	push	{r0, r1, r2, r4, r5, lr}
 8006e32:	2900      	cmp	r1, #0
 8006e34:	d044      	beq.n	8006ec0 <_free_r+0x90>
 8006e36:	f851 3c04 	ldr.w	r3, [r1, #-4]
 8006e3a:	9001      	str	r0, [sp, #4]
 8006e3c:	2b00      	cmp	r3, #0
 8006e3e:	f1a1 0404 	sub.w	r4, r1, #4
 8006e42:	bfb8      	it	lt
 8006e44:	18e4      	addlt	r4, r4, r3
 8006e46:	f000 f9c1 	bl	80071cc <__malloc_lock>
 8006e4a:	4a1e      	ldr	r2, [pc, #120]	; (8006ec4 <_free_r+0x94>)
 8006e4c:	9801      	ldr	r0, [sp, #4]
 8006e4e:	6813      	ldr	r3, [r2, #0]
 8006e50:	b933      	cbnz	r3, 8006e60 <_free_r+0x30>
 8006e52:	6063      	str	r3, [r4, #4]
 8006e54:	6014      	str	r4, [r2, #0]
 8006e56:	b003      	add	sp, #12
 8006e58:	e8bd 4030 	ldmia.w	sp!, {r4, r5, lr}
 8006e5c:	f000 b9bc 	b.w	80071d8 <__malloc_unlock>
 8006e60:	42a3      	cmp	r3, r4
 8006e62:	d908      	bls.n	8006e76 <_free_r+0x46>
 8006e64:	6825      	ldr	r5, [r4, #0]
 8006e66:	1961      	adds	r1, r4, r5
 8006e68:	428b      	cmp	r3, r1
 8006e6a:	bf01      	itttt	eq
 8006e6c:	6819      	ldreq	r1, [r3, #0]
 8006e6e:	685b      	ldreq	r3, [r3, #4]
 8006e70:	1949      	addeq	r1, r1, r5
 8006e72:	6021      	streq	r1, [r4, #0]
 8006e74:	e7ed      	b.n	8006e52 <_free_r+0x22>
 8006e76:	461a      	mov	r2, r3
 8006e78:	685b      	ldr	r3, [r3, #4]
 8006e7a:	b10b      	cbz	r3, 8006e80 <_free_r+0x50>
 8006e7c:	42a3      	cmp	r3, r4
 8006e7e:	d9fa      	bls.n	8006e76 <_free_r+0x46>
 8006e80:	6811      	ldr	r1, [r2, #0]
 8006e82:	1855      	adds	r5, r2, r1
 8006e84:	42a5      	cmp	r5, r4
 8006e86:	d10b      	bne.n	8006ea0 <_free_r+0x70>
 8006e88:	6824      	ldr	r4, [r4, #0]
 8006e8a:	4421      	add	r1, r4
 8006e8c:	1854      	adds	r4, r2, r1
 8006e8e:	42a3      	cmp	r3, r4
 8006e90:	6011      	str	r1, [r2, #0]
 8006e92:	d1e0      	bne.n	8006e56 <_free_r+0x26>
 8006e94:	681c      	ldr	r4, [r3, #0]
 8006e96:	685b      	ldr	r3, [r3, #4]
 8006e98:	6053      	str	r3, [r2, #4]
 8006e9a:	4421      	add	r1, r4
 8006e9c:	6011      	str	r1, [r2, #0]
 8006e9e:	e7da      	b.n	8006e56 <_free_r+0x26>
 8006ea0:	d902      	bls.n	8006ea8 <_free_r+0x78>
 8006ea2:	230c      	movs	r3, #12
 8006ea4:	6003      	str	r3, [r0, #0]
 8006ea6:	e7d6      	b.n	8006e56 <_free_r+0x26>
 8006ea8:	6825      	ldr	r5, [r4, #0]
 8006eaa:	1961      	adds	r1, r4, r5
 8006eac:	428b      	cmp	r3, r1
 8006eae:	bf04      	itt	eq
 8006eb0:	6819      	ldreq	r1, [r3, #0]
 8006eb2:	685b      	ldreq	r3, [r3, #4]
 8006eb4:	6063      	str	r3, [r4, #4]
 8006eb6:	bf04      	itt	eq
 8006eb8:	1949      	addeq	r1, r1, r5
 8006eba:	6021      	streq	r1, [r4, #0]
 8006ebc:	6054      	str	r4, [r2, #4]
 8006ebe:	e7ca      	b.n	8006e56 <_free_r+0x26>
 8006ec0:	b003      	add	sp, #12
 8006ec2:	bd30      	pop	{r4, r5, pc}
 8006ec4:	200005ac 	.word	0x200005ac

08006ec8 <sbrk_aligned>:
 8006ec8:	b570      	push	{r4, r5, r6, lr}
 8006eca:	4e0e      	ldr	r6, [pc, #56]	; (8006f04 <sbrk_aligned+0x3c>)
 8006ecc:	460c      	mov	r4, r1
 8006ece:	6831      	ldr	r1, [r6, #0]
 8006ed0:	4605      	mov	r5, r0
 8006ed2:	b911      	cbnz	r1, 8006eda <sbrk_aligned+0x12>
 8006ed4:	f000 f88c 	bl	8006ff0 <_sbrk_r>
 8006ed8:	6030      	str	r0, [r6, #0]
 8006eda:	4621      	mov	r1, r4
 8006edc:	4628      	mov	r0, r5
 8006ede:	f000 f887 	bl	8006ff0 <_sbrk_r>
 8006ee2:	1c43      	adds	r3, r0, #1
 8006ee4:	d00a      	beq.n	8006efc <sbrk_aligned+0x34>
 8006ee6:	1cc4      	adds	r4, r0, #3
 8006ee8:	f024 0403 	bic.w	r4, r4, #3
 8006eec:	42a0      	cmp	r0, r4
 8006eee:	d007      	beq.n	8006f00 <sbrk_aligned+0x38>
 8006ef0:	1a21      	subs	r1, r4, r0
 8006ef2:	4628      	mov	r0, r5
 8006ef4:	f000 f87c 	bl	8006ff0 <_sbrk_r>
 8006ef8:	3001      	adds	r0, #1
 8006efa:	d101      	bne.n	8006f00 <sbrk_aligned+0x38>
 8006efc:	f04f 34ff 	mov.w	r4, #4294967295
 8006f00:	4620      	mov	r0, r4
 8006f02:	bd70      	pop	{r4, r5, r6, pc}
 8006f04:	200005b0 	.word	0x200005b0

08006f08 <_malloc_r>:
 8006f08:	e92d 41f0 	stmdb	sp!, {r4, r5, r6, r7, r8, lr}
 8006f0c:	1ccd      	adds	r5, r1, #3
 8006f0e:	f025 0503 	bic.w	r5, r5, #3
 8006f12:	3508      	adds	r5, #8
 8006f14:	2d0c      	cmp	r5, #12
 8006f16:	bf38      	it	cc
 8006f18:	250c      	movcc	r5, #12
 8006f1a:	2d00      	cmp	r5, #0
 8006f1c:	4607      	mov	r7, r0
 8006f1e:	db01      	blt.n	8006f24 <_malloc_r+0x1c>
 8006f20:	42a9      	cmp	r1, r5
 8006f22:	d905      	bls.n	8006f30 <_malloc_r+0x28>
 8006f24:	230c      	movs	r3, #12
 8006f26:	603b      	str	r3, [r7, #0]
 8006f28:	2600      	movs	r6, #0
 8006f2a:	4630      	mov	r0, r6
 8006f2c:	e8bd 81f0 	ldmia.w	sp!, {r4, r5, r6, r7, r8, pc}
 8006f30:	4e2e      	ldr	r6, [pc, #184]	; (8006fec <_malloc_r+0xe4>)
 8006f32:	f000 f94b 	bl	80071cc <__malloc_lock>
 8006f36:	6833      	ldr	r3, [r6, #0]
 8006f38:	461c      	mov	r4, r3
 8006f3a:	bb34      	cbnz	r4, 8006f8a <_malloc_r+0x82>
 8006f3c:	4629      	mov	r1, r5
 8006f3e:	4638      	mov	r0, r7
 8006f40:	f7ff ffc2 	bl	8006ec8 <sbrk_aligned>
 8006f44:	1c43      	adds	r3, r0, #1
 8006f46:	4604      	mov	r4, r0
 8006f48:	d14d      	bne.n	8006fe6 <_malloc_r+0xde>
 8006f4a:	6834      	ldr	r4, [r6, #0]
 8006f4c:	4626      	mov	r6, r4
 8006f4e:	2e00      	cmp	r6, #0
 8006f50:	d140      	bne.n	8006fd4 <_malloc_r+0xcc>
 8006f52:	6823      	ldr	r3, [r4, #0]
 8006f54:	4631      	mov	r1, r6
 8006f56:	4638      	mov	r0, r7
 8006f58:	eb04 0803 	add.w	r8, r4, r3
 8006f5c:	f000 f848 	bl	8006ff0 <_sbrk_r>
 8006f60:	4580      	cmp	r8, r0
 8006f62:	d13a      	bne.n	8006fda <_malloc_r+0xd2>
 8006f64:	6821      	ldr	r1, [r4, #0]
 8006f66:	3503      	adds	r5, #3
 8006f68:	1a6d      	subs	r5, r5, r1
 8006f6a:	f025 0503 	bic.w	r5, r5, #3
 8006f6e:	3508      	adds	r5, #8
 8006f70:	2d0c      	cmp	r5, #12
 8006f72:	bf38      	it	cc
 8006f74:	250c      	movcc	r5, #12
 8006f76:	4629      	mov	r1, r5
 8006f78:	4638      	mov	r0, r7
 8006f7a:	f7ff ffa5 	bl	8006ec8 <sbrk_aligned>
 8006f7e:	3001      	adds	r0, #1
 8006f80:	d02b      	beq.n	8006fda <_malloc_r+0xd2>
 8006f82:	6823      	ldr	r3, [r4, #0]
 8006f84:	442b      	add	r3, r5
 8006f86:	6023      	str	r3, [r4, #0]
 8006f88:	e00e      	b.n	8006fa8 <_malloc_r+0xa0>
 8006f8a:	6822      	ldr	r2, [r4, #0]
 8006f8c:	1b52      	subs	r2, r2, r5
 8006f8e:	d41e      	bmi.n	8006fce <_malloc_r+0xc6>
 8006f90:	2a0b      	cmp	r2, #11
 8006f92:	d916      	bls.n	8006fc2 <_malloc_r+0xba>
 8006f94:	1961      	adds	r1, r4, r5
 8006f96:	42a3      	cmp	r3, r4
 8006f98:	6025      	str	r5, [r4, #0]
 8006f9a:	bf18      	it	ne
 8006f9c:	6059      	strne	r1, [r3, #4]
 8006f9e:	6863      	ldr	r3, [r4, #4]
 8006fa0:	bf08      	it	eq
 8006fa2:	6031      	streq	r1, [r6, #0]
 8006fa4:	5162      	str	r2, [r4, r5]
 8006fa6:	604b      	str	r3, [r1, #4]
 8006fa8:	4638      	mov	r0, r7
 8006faa:	f104 060b 	add.w	r6, r4, #11
 8006fae:	f000 f913 	bl	80071d8 <__malloc_unlock>
 8006fb2:	f026 0607 	bic.w	r6, r6, #7
 8006fb6:	1d23      	adds	r3, r4, #4
 8006fb8:	1af2      	subs	r2, r6, r3
 8006fba:	d0b6      	beq.n	8006f2a <_malloc_r+0x22>
 8006fbc:	1b9b      	subs	r3, r3, r6
 8006fbe:	50a3      	str	r3, [r4, r2]
 8006fc0:	e7b3      	b.n	8006f2a <_malloc_r+0x22>
 8006fc2:	6862      	ldr	r2, [r4, #4]
 8006fc4:	42a3      	cmp	r3, r4
 8006fc6:	bf0c      	ite	eq
 8006fc8:	6032      	streq	r2, [r6, #0]
 8006fca:	605a      	strne	r2, [r3, #4]
 8006fcc:	e7ec      	b.n	8006fa8 <_malloc_r+0xa0>
 8006fce:	4623      	mov	r3, r4
 8006fd0:	6864      	ldr	r4, [r4, #4]
 8006fd2:	e7b2      	b.n	8006f3a <_malloc_r+0x32>
 8006fd4:	4634      	mov	r4, r6
 8006fd6:	6876      	ldr	r6, [r6, #4]
 8006fd8:	e7b9      	b.n	8006f4e <_malloc_r+0x46>
 8006fda:	230c      	movs	r3, #12
 8006fdc:	603b      	str	r3, [r7, #0]
 8006fde:	4638      	mov	r0, r7
 8006fe0:	f000 f8fa 	bl	80071d8 <__malloc_unlock>
 8006fe4:	e7a1      	b.n	8006f2a <_malloc_r+0x22>
 8006fe6:	6025      	str	r5, [r4, #0]
 8006fe8:	e7de      	b.n	8006fa8 <_malloc_r+0xa0>
 8006fea:	bf00      	nop
 8006fec:	200005ac 	.word	0x200005ac

08006ff0 <_sbrk_r>:
 8006ff0:	b538      	push	{r3, r4, r5, lr}
 8006ff2:	4d06      	ldr	r5, [pc, #24]	; (800700c <_sbrk_r+0x1c>)
 8006ff4:	2300      	movs	r3, #0
 8006ff6:	4604      	mov	r4, r0
 8006ff8:	4608      	mov	r0, r1
 8006ffa:	602b      	str	r3, [r5, #0]
 8006ffc:	f7fb fcec 	bl	80029d8 <_sbrk>
 8007000:	1c43      	adds	r3, r0, #1
 8007002:	d102      	bne.n	800700a <_sbrk_r+0x1a>
 8007004:	682b      	ldr	r3, [r5, #0]
 8007006:	b103      	cbz	r3, 800700a <_sbrk_r+0x1a>
 8007008:	6023      	str	r3, [r4, #0]
 800700a:	bd38      	pop	{r3, r4, r5, pc}
 800700c:	200005b4 	.word	0x200005b4

08007010 <_raise_r>:
 8007010:	291f      	cmp	r1, #31
 8007012:	b538      	push	{r3, r4, r5, lr}
 8007014:	4604      	mov	r4, r0
 8007016:	460d      	mov	r5, r1
 8007018:	d904      	bls.n	8007024 <_raise_r+0x14>
 800701a:	2316      	movs	r3, #22
 800701c:	6003      	str	r3, [r0, #0]
 800701e:	f04f 30ff 	mov.w	r0, #4294967295
 8007022:	bd38      	pop	{r3, r4, r5, pc}
 8007024:	6c42      	ldr	r2, [r0, #68]	; 0x44
 8007026:	b112      	cbz	r2, 800702e <_raise_r+0x1e>
 8007028:	f852 3021 	ldr.w	r3, [r2, r1, lsl #2]
 800702c:	b94b      	cbnz	r3, 8007042 <_raise_r+0x32>
 800702e:	4620      	mov	r0, r4
 8007030:	f000 f830 	bl	8007094 <_getpid_r>
 8007034:	462a      	mov	r2, r5
 8007036:	4601      	mov	r1, r0
 8007038:	4620      	mov	r0, r4
 800703a:	e8bd 4038 	ldmia.w	sp!, {r3, r4, r5, lr}
 800703e:	f000 b817 	b.w	8007070 <_kill_r>
 8007042:	2b01      	cmp	r3, #1
 8007044:	d00a      	beq.n	800705c <_raise_r+0x4c>
 8007046:	1c59      	adds	r1, r3, #1
 8007048:	d103      	bne.n	8007052 <_raise_r+0x42>
 800704a:	2316      	movs	r3, #22
 800704c:	6003      	str	r3, [r0, #0]
 800704e:	2001      	movs	r0, #1
 8007050:	e7e7      	b.n	8007022 <_raise_r+0x12>
 8007052:	2400      	movs	r4, #0
 8007054:	f842 4025 	str.w	r4, [r2, r5, lsl #2]
 8007058:	4628      	mov	r0, r5
 800705a:	4798      	blx	r3
 800705c:	2000      	movs	r0, #0
 800705e:	e7e0      	b.n	8007022 <_raise_r+0x12>

08007060 <raise>:
 8007060:	4b02      	ldr	r3, [pc, #8]	; (800706c <raise+0xc>)
 8007062:	4601      	mov	r1, r0
 8007064:	6818      	ldr	r0, [r3, #0]
 8007066:	f7ff bfd3 	b.w	8007010 <_raise_r>
 800706a:	bf00      	nop
 800706c:	2000004c 	.word	0x2000004c

08007070 <_kill_r>:
 8007070:	b538      	push	{r3, r4, r5, lr}
 8007072:	4d07      	ldr	r5, [pc, #28]	; (8007090 <_kill_r+0x20>)
 8007074:	2300      	movs	r3, #0
 8007076:	4604      	mov	r4, r0
 8007078:	4608      	mov	r0, r1
 800707a:	4611      	mov	r1, r2
 800707c:	602b      	str	r3, [r5, #0]
 800707e:	f7fb fc73 	bl	8002968 <_kill>
 8007082:	1c43      	adds	r3, r0, #1
 8007084:	d102      	bne.n	800708c <_kill_r+0x1c>
 8007086:	682b      	ldr	r3, [r5, #0]
 8007088:	b103      	cbz	r3, 800708c <_kill_r+0x1c>
 800708a:	6023      	str	r3, [r4, #0]
 800708c:	bd38      	pop	{r3, r4, r5, pc}
 800708e:	bf00      	nop
 8007090:	200005b4 	.word	0x200005b4

08007094 <_getpid_r>:
 8007094:	f7fb bc66 	b.w	8002964 <_getpid>

08007098 <__sread>:
 8007098:	b510      	push	{r4, lr}
 800709a:	460c      	mov	r4, r1
 800709c:	f9b1 100e 	ldrsh.w	r1, [r1, #14]
 80070a0:	f000 f8a0 	bl	80071e4 <_read_r>
 80070a4:	2800      	cmp	r0, #0
 80070a6:	bfab      	itete	ge
 80070a8:	6d63      	ldrge	r3, [r4, #84]	; 0x54
 80070aa:	89a3      	ldrhlt	r3, [r4, #12]
 80070ac:	181b      	addge	r3, r3, r0
 80070ae:	f423 5380 	biclt.w	r3, r3, #4096	; 0x1000
 80070b2:	bfac      	ite	ge
 80070b4:	6563      	strge	r3, [r4, #84]	; 0x54
 80070b6:	81a3      	strhlt	r3, [r4, #12]
 80070b8:	bd10      	pop	{r4, pc}

080070ba <__swrite>:
 80070ba:	e92d 41f0 	stmdb	sp!, {r4, r5, r6, r7, r8, lr}
 80070be:	461f      	mov	r7, r3
 80070c0:	898b      	ldrh	r3, [r1, #12]
 80070c2:	05db      	lsls	r3, r3, #23
 80070c4:	4605      	mov	r5, r0
 80070c6:	460c      	mov	r4, r1
 80070c8:	4616      	mov	r6, r2
 80070ca:	d505      	bpl.n	80070d8 <__swrite+0x1e>
 80070cc:	f9b1 100e 	ldrsh.w	r1, [r1, #14]
 80070d0:	2302      	movs	r3, #2
 80070d2:	2200      	movs	r2, #0
 80070d4:	f000 f868 	bl	80071a8 <_lseek_r>
 80070d8:	89a3      	ldrh	r3, [r4, #12]
 80070da:	f9b4 100e 	ldrsh.w	r1, [r4, #14]
 80070de:	f423 5380 	bic.w	r3, r3, #4096	; 0x1000
 80070e2:	81a3      	strh	r3, [r4, #12]
 80070e4:	4632      	mov	r2, r6
 80070e6:	463b      	mov	r3, r7
 80070e8:	4628      	mov	r0, r5
 80070ea:	e8bd 41f0 	ldmia.w	sp!, {r4, r5, r6, r7, r8, lr}
 80070ee:	f000 b817 	b.w	8007120 <_write_r>

080070f2 <__sseek>:
 80070f2:	b510      	push	{r4, lr}
 80070f4:	460c      	mov	r4, r1
 80070f6:	f9b1 100e 	ldrsh.w	r1, [r1, #14]
 80070fa:	f000 f855 	bl	80071a8 <_lseek_r>
 80070fe:	1c43      	adds	r3, r0, #1
 8007100:	89a3      	ldrh	r3, [r4, #12]
 8007102:	bf15      	itete	ne
 8007104:	6560      	strne	r0, [r4, #84]	; 0x54
 8007106:	f423 5380 	biceq.w	r3, r3, #4096	; 0x1000
 800710a:	f443 5380 	orrne.w	r3, r3, #4096	; 0x1000
 800710e:	81a3      	strheq	r3, [r4, #12]
 8007110:	bf18      	it	ne
 8007112:	81a3      	strhne	r3, [r4, #12]
 8007114:	bd10      	pop	{r4, pc}

08007116 <__sclose>:
 8007116:	f9b1 100e 	ldrsh.w	r1, [r1, #14]
 800711a:	f000 b813 	b.w	8007144 <_close_r>
	...

08007120 <_write_r>:
 8007120:	b538      	push	{r3, r4, r5, lr}
 8007122:	4d07      	ldr	r5, [pc, #28]	; (8007140 <_write_r+0x20>)
 8007124:	4604      	mov	r4, r0
 8007126:	4608      	mov	r0, r1
 8007128:	4611      	mov	r1, r2
 800712a:	2200      	movs	r2, #0
 800712c:	602a      	str	r2, [r5, #0]
 800712e:	461a      	mov	r2, r3
 8007130:	f7fb fc36 	bl	80029a0 <_write>
 8007134:	1c43      	adds	r3, r0, #1
 8007136:	d102      	bne.n	800713e <_write_r+0x1e>
 8007138:	682b      	ldr	r3, [r5, #0]
 800713a:	b103      	cbz	r3, 800713e <_write_r+0x1e>
 800713c:	6023      	str	r3, [r4, #0]
 800713e:	bd38      	pop	{r3, r4, r5, pc}
 8007140:	200005b4 	.word	0x200005b4

08007144 <_close_r>:
 8007144:	b538      	push	{r3, r4, r5, lr}
 8007146:	4d06      	ldr	r5, [pc, #24]	; (8007160 <_close_r+0x1c>)
 8007148:	2300      	movs	r3, #0
 800714a:	4604      	mov	r4, r0
 800714c:	4608      	mov	r0, r1
 800714e:	602b      	str	r3, [r5, #0]
 8007150:	f7fb fc34 	bl	80029bc <_close>
 8007154:	1c43      	adds	r3, r0, #1
 8007156:	d102      	bne.n	800715e <_close_r+0x1a>
 8007158:	682b      	ldr	r3, [r5, #0]
 800715a:	b103      	cbz	r3, 800715e <_close_r+0x1a>
 800715c:	6023      	str	r3, [r4, #0]
 800715e:	bd38      	pop	{r3, r4, r5, pc}
 8007160:	200005b4 	.word	0x200005b4

08007164 <_fstat_r>:
 8007164:	b538      	push	{r3, r4, r5, lr}
 8007166:	4d07      	ldr	r5, [pc, #28]	; (8007184 <_fstat_r+0x20>)
 8007168:	2300      	movs	r3, #0
 800716a:	4604      	mov	r4, r0
 800716c:	4608      	mov	r0, r1
 800716e:	4611      	mov	r1, r2
 8007170:	602b      	str	r3, [r5, #0]
 8007172:	f7fb fc27 	bl	80029c4 <_fstat>
 8007176:	1c43      	adds	r3, r0, #1
 8007178:	d102      	bne.n	8007180 <_fstat_r+0x1c>
 800717a:	682b      	ldr	r3, [r5, #0]
 800717c:	b103      	cbz	r3, 8007180 <_fstat_r+0x1c>
 800717e:	6023      	str	r3, [r4, #0]
 8007180:	bd38      	pop	{r3, r4, r5, pc}
 8007182:	bf00      	nop
 8007184:	200005b4 	.word	0x200005b4

08007188 <_isatty_r>:
 8007188:	b538      	push	{r3, r4, r5, lr}
 800718a:	4d06      	ldr	r5, [pc, #24]	; (80071a4 <_isatty_r+0x1c>)
 800718c:	2300      	movs	r3, #0
 800718e:	4604      	mov	r4, r0
 8007190:	4608      	mov	r0, r1
 8007192:	602b      	str	r3, [r5, #0]
 8007194:	f7fb fc1c 	bl	80029d0 <_isatty>
 8007198:	1c43      	adds	r3, r0, #1
 800719a:	d102      	bne.n	80071a2 <_isatty_r+0x1a>
 800719c:	682b      	ldr	r3, [r5, #0]
 800719e:	b103      	cbz	r3, 80071a2 <_isatty_r+0x1a>
 80071a0:	6023      	str	r3, [r4, #0]
 80071a2:	bd38      	pop	{r3, r4, r5, pc}
 80071a4:	200005b4 	.word	0x200005b4

080071a8 <_lseek_r>:
 80071a8:	b538      	push	{r3, r4, r5, lr}
 80071aa:	4d07      	ldr	r5, [pc, #28]	; (80071c8 <_lseek_r+0x20>)
 80071ac:	4604      	mov	r4, r0
 80071ae:	4608      	mov	r0, r1
 80071b0:	4611      	mov	r1, r2
 80071b2:	2200      	movs	r2, #0
 80071b4:	602a      	str	r2, [r5, #0]
 80071b6:	461a      	mov	r2, r3
 80071b8:	f7fb fc0c 	bl	80029d4 <_lseek>
 80071bc:	1c43      	adds	r3, r0, #1
 80071be:	d102      	bne.n	80071c6 <_lseek_r+0x1e>
 80071c0:	682b      	ldr	r3, [r5, #0]
 80071c2:	b103      	cbz	r3, 80071c6 <_lseek_r+0x1e>
 80071c4:	6023      	str	r3, [r4, #0]
 80071c6:	bd38      	pop	{r3, r4, r5, pc}
 80071c8:	200005b4 	.word	0x200005b4

080071cc <__malloc_lock>:
 80071cc:	4801      	ldr	r0, [pc, #4]	; (80071d4 <__malloc_lock+0x8>)
 80071ce:	f7ff bdc7 	b.w	8006d60 <__retarget_lock_acquire_recursive>
 80071d2:	bf00      	nop
 80071d4:	200005a8 	.word	0x200005a8

080071d8 <__malloc_unlock>:
 80071d8:	4801      	ldr	r0, [pc, #4]	; (80071e0 <__malloc_unlock+0x8>)
 80071da:	f7ff bdc2 	b.w	8006d62 <__retarget_lock_release_recursive>
 80071de:	bf00      	nop
 80071e0:	200005a8 	.word	0x200005a8

080071e4 <_read_r>:
 80071e4:	b538      	push	{r3, r4, r5, lr}
 80071e6:	4d07      	ldr	r5, [pc, #28]	; (8007204 <_read_r+0x20>)
 80071e8:	4604      	mov	r4, r0
 80071ea:	4608      	mov	r0, r1
 80071ec:	4611      	mov	r1, r2
 80071ee:	2200      	movs	r2, #0
 80071f0:	602a      	str	r2, [r5, #0]
 80071f2:	461a      	mov	r2, r3
 80071f4:	f7fb fbc6 	bl	8002984 <_read>
 80071f8:	1c43      	adds	r3, r0, #1
 80071fa:	d102      	bne.n	8007202 <_read_r+0x1e>
 80071fc:	682b      	ldr	r3, [r5, #0]
 80071fe:	b103      	cbz	r3, 8007202 <_read_r+0x1e>
 8007200:	6023      	str	r3, [r4, #0]
 8007202:	bd38      	pop	{r3, r4, r5, pc}
 8007204:	200005b4 	.word	0x200005b4

08007208 <_init>:
 8007208:	b5f8      	push	{r3, r4, r5, r6, r7, lr}
 800720a:	bf00      	nop
 800720c:	bcf8      	pop	{r3, r4, r5, r6, r7}
 800720e:	bc08      	pop	{r3}
 8007210:	469e      	mov	lr, r3
 8007212:	4770      	bx	lr

08007214 <_fini>:
 8007214:	b5f8      	push	{r3, r4, r5, r6, r7, lr}
 8007216:	bf00      	nop
 8007218:	bcf8      	pop	{r3, r4, r5, r6, r7}
 800721a:	bc08      	pop	{r3}
 800721c:	469e      	mov	lr, r3
 800721e:	4770      	bx	lr
